 win32_main

 Timestamp is 60f043d1 (Thu Jul 15 15:18:57 2021)

 Preferred load address is 00400000

 Start         Length     Name                   Class
 0001:00000000 0000f3f0H .text$di                CODE
 0001:0000f3f0 000fe0a0H .text$mn                CODE
 0001:0010d490 00007500H .text$x                 CODE
 0001:00114990 00001110H .text$yd                CODE
 0002:00000000 00000104H .CRT$XCA                DATA
 0002:00000104 00000104H .CRT$XCAA               DATA
 0002:00000208 000001c4H .CRT$XCC                DATA
 0002:000003cc 00000124H .CRT$XCL                DATA
 0002:000004f0 00000104H .CRT$XCU                DATA
 0002:000005f4 00000104H .CRT$XCZ                DATA
 0002:000006f8 00000104H .CRT$XIA                DATA
 0002:000007fc 00000104H .CRT$XIAA               DATA
 0002:00000900 00000104H .CRT$XIAC               DATA
 0002:00000a04 00000118H .CRT$XIC                DATA
 0002:00000b1c 00000104H .CRT$XIZ                DATA
 0002:00000c20 00000104H .CRT$XPA                DATA
 0002:00000d24 0000010cH .CRT$XPX                DATA
 0002:00000e30 00000104H .CRT$XPXA               DATA
 0002:00000f34 00000104H .CRT$XPZ                DATA
 0002:00001038 00000104H .CRT$XTA                DATA
 0002:0000113c 00000104H .CRT$XTZ                DATA
 0002:00001240 00031440H .rdata                  DATA
 0002:00032680 00000104H .rdata$CastGuardVftablesA DATA
 0002:00032784 00000104H .rdata$CastGuardVftablesC DATA
 0002:00032888 00002204H .rdata$r                DATA
 0002:00034a8c 000006dcH .rdata$sxdata           DATA
 0002:00035168 0000016cH .rdata$zzzdbg           DATA
 0002:000352d4 00000104H .rtc$IAA                DATA
 0002:000353d8 00000104H .rtc$IZZ                DATA
 0002:000354dc 00000104H .rtc$TAA                DATA
 0002:000355e0 00000108H .rtc$TZZ                DATA
 0002:000356e8 000062a4H .xdata$x                DATA
 0002:0003b98c 00000000H .edata                  DATA
 0003:00000000 00000ee8H .data                   DATA
 0003:00000ee8 00000388H .data$r                 DATA
 0003:00001270 00001038H .data$rs                DATA
 0003:000022a8 00001c0cH .bss                    DATA
 0004:00000000 00000384H .idata$5                DATA
 0004:00000384 00000078H .idata$2                DATA
 0004:000003fc 00000014H .idata$3                DATA
 0004:00000410 00000384H .idata$4                DATA
 0004:00000794 00000c39H .idata$6                DATA
 0005:00000000 00000109H .00cfg                  DATA

  Address         Publics by Value              Rva+Base       Lib:Object

 0000:00000000       ___guard_eh_cont_table     00000000     <absolute>
 0000:00000000       __except_list              00000000     <absolute>
 0000:00000000       ___guard_iat_count         00000000     <absolute>
 0000:00000000       ___guard_check_icall_a64n_fptr 00000000     <absolute>
 0000:00000000       ___arm64x_redirection_metadata_count 00000000     <absolute>
 0000:00000000       ___guard_longjmp_count     00000000     <absolute>
 0000:00000000       ___arm64x_extra_rfe_table_size 00000000     <absolute>
 0000:00000000       ___hybrid_code_map         00000000     <absolute>
 0000:00000000       ___guard_iat_table         00000000     <absolute>
 0000:00000000       ___guard_fids_count        00000000     <absolute>
 0000:00000000       ___hybrid_code_map_count   00000000     <absolute>
 0000:00000000       ___arm64x_native_entrypoint 00000000     <absolute>
 0000:00000000       ___x64_code_ranges_to_entry_points_count 00000000     <absolute>
 0000:00000000       ___guard_longjmp_table     00000000     <absolute>
 0000:00000000       ___guard_fids_table        00000000     <absolute>
 0000:00000000       ___hybrid_auxiliary_iat    00000000     <absolute>
 0000:00000000       ___volatile_metadata       00000000     <absolute>
 0000:00000000       ___dynamic_value_reloc_table 00000000     <absolute>
 0000:00000000       ___arm64x_extra_rfe_table  00000000     <absolute>
 0000:00000000       ___arm64x_redirection_metadata 00000000     <absolute>
 0000:00000000       ___enclave_config          00000000     <absolute>
 0000:00000000       ___guard_eh_cont_count     00000000     <absolute>
 0000:00000000       ___hybrid_auxiliary_iat_copy 00000000     <absolute>
 0000:00000000       ___AbsoluteZero            00000000     <absolute>
 0000:00000000       ___x64_code_ranges_to_entry_points 00000000     <absolute>
 0000:00000100       ___guard_flags             00000100     <absolute>
 0000:00000138       ___safe_se_handler_count   00000138     <absolute>
 0000:00000000       ___ImageBase               00400000     <linker-defined>
 0001:0000f3f0       _WinMain@16                004103f0 f   win32_main.obj
 0001:0000fc00       ?CreateGLContext@@YAXPAUHDC__@@@Z 00410c00 f   win32_main.obj
 0001:0000fce0       ?setupshaderprogram@@YAIXZ 00410ce0 f   win32_main.obj
 0001:000100d0       ?debugSetThingsUp@@YAIXZ   004110d0 f   win32_main.obj
 0001:00010620       ??$?0$$V@?$_Compressed_pair@V?$allocator@D@std@@V?$_String_val@U?$_Simple_types@D@std@@@2@$00@std@@QAE@U_Zero_then_variadic_args_t@1@@Z 00411620 f i win32_main.obj
 0001:00010650       ??$?0AAPAV_Facet_base@std@@@?$_Compressed_pair@U?$default_delete@V_Facet_base@std@@@std@@PAV_Facet_base@2@$00@std@@QAE@U_Zero_then_variadic_args_t@1@AAPAV_Facet_base@1@@Z 00411650 f i win32_main.obj
 0001:00010680       ??$?0ABV?$allocator@D@std@@$$V@?$_Compressed_pair@V?$allocator@D@std@@V?$_String_val@U?$_Simple_types@D@std@@@2@$00@std@@QAE@U_One_then_variadic_args_t@1@ABV?$allocator@D@1@@Z 00411680 f i win32_main.obj
 0001:000106b0       ??$?0D@?$allocator@U_Container_proxy@std@@@std@@QAE@ABV?$allocator@D@1@@Z 004116b0 f i win32_main.obj
 0001:000106d0       ??$?0U?$default_delete@V_Facet_base@std@@@std@@$0A@@?$unique_ptr@V_Facet_base@std@@U?$default_delete@V_Facet_base@std@@@2@@std@@QAE@PAV_Facet_base@1@@Z 004116d0 f i win32_main.obj
 0001:00010710       ??$?0V?$allocator@D@std@@$$V@?$_Compressed_pair@V?$allocator@D@std@@V?$_String_val@U?$_Simple_types@D@std@@@2@$00@std@@QAE@U_One_then_variadic_args_t@1@$$QAV?$allocator@D@1@@Z 00411710 f i win32_main.obj
 0001:00010740       ??$?6U?$char_traits@D@std@@@std@@YAAAV?$basic_ostream@DU?$char_traits@D@std@@@0@AAV10@PBD@Z 00411740 f i win32_main.obj
 0001:00010b90       ??$_Adl_verify_range@PADPBD@std@@YAXABQADABQBD@Z 00411b90 f i win32_main.obj
 0001:00010bb0       ??$_Adl_verify_range@PBDPBD@std@@YAXABQBD0@Z 00411bb0 f i win32_main.obj
 0001:00010bd0       ??$_Alloc_proxy@V?$allocator@U_Container_proxy@std@@@std@@@_Container_base12@std@@QAEX$$QAV?$allocator@U_Container_proxy@std@@@1@@Z 00411bd0 f i win32_main.obj
 0001:00010c30       ??$_Allocate@$07U_Default_allocate_traits@std@@$0A@@std@@YAPAXI@Z 00411c30 f i win32_main.obj
 0001:00010c70       ??$_Allocate_manually_vector_aligned@U_Default_allocate_traits@std@@@std@@YAPAXI@Z 00411c70 f i win32_main.obj
 0001:00010d60       ??$_Construct_in_place@PADAAPAD@std@@YAXAAPAD0@Z 00411d60 f i win32_main.obj
 0001:00010db0       ??$_Construct_in_place@PADABQAD@std@@YAXAAPADABQAD@Z 00411db0 f i win32_main.obj
 0001:00010e00       ??$_Construct_in_place@U_Container_proxy@std@@PAU_Container_base12@2@@std@@YAXAAU_Container_proxy@0@$$QAPAU_Container_base12@0@@Z 00411e00 f i win32_main.obj
 0001:00010e60       ??$_Convert_size@I@std@@YAII@Z 00411e60 f i win32_main.obj
 0001:00010e70       ??$_Deallocate@$07$0A@@std@@YAXPAXI@Z 00411e70 f i win32_main.obj
 0001:00010ef0       ??$_Deallocate_plain@V?$allocator@U_Container_proxy@std@@@std@@@std@@YAXAAV?$allocator@U_Container_proxy@std@@@0@QAU_Container_proxy@0@@Z 00411ef0 f i win32_main.obj
 0001:00010f50       ??$_Delete_plain_internal@V?$allocator@U_Container_proxy@std@@@std@@@std@@YAXAAV?$allocator@U_Container_proxy@std@@@0@QAU_Container_proxy@0@@Z 00411f50 f i win32_main.obj
 0001:00010f70       ??$_Destroy_in_place@PAD@std@@YAXAAPAD@Z 00411f70 f i win32_main.obj
 0001:00010f80       ??$_Fgetc@D@std@@YA_NAADPAU_iobuf@@@Z 00411f80 f i win32_main.obj
 0001:00010fc0       ??$_Fputc@D@std@@YA_NDPAU_iobuf@@@Z 00411fc0 f i win32_main.obj
 0001:00011000       ??$_Get_size_of_n@$00@std@@YAII@Z 00412000 f i win32_main.obj
 0001:00011020       ??$_Get_size_of_n@$07@std@@YAII@Z 00412020 f i win32_main.obj
 0001:00011060       ??$_Immortalize_memcpy_image@V_Iostream_error_category2@std@@@std@@YAABV_Iostream_error_category2@0@XZ 00412060 f i win32_main.obj
 0001:00011070       ??$_Pocma@V?$allocator@D@std@@@std@@YAXAAV?$allocator@D@0@0@Z 00412070 f i win32_main.obj
 0001:00011090       ??$_Reallocate_for@V<lambda_9366063389c5f42a00a5088cf24e69de>@@PBD@?$basic_string@DU?$char_traits@D@std@@V?$allocator@D@2@@std@@AAEAAV01@IV<lambda_9366063389c5f42a00a5088cf24e69de>@@PBD@Z 00412090 f i win32_main.obj
 0001:00011190       ??$_Reallocate_for@V<lambda_c6753c90be971fc9cc00b4f35f237a75>@@D@?$basic_string@DU?$char_traits@D@std@@V?$allocator@D@2@@std@@AAEAAV01@IV<lambda_c6753c90be971fc9cc00b4f35f237a75>@@D@Z 00412190 f i win32_main.obj
 0001:00011290       ??$_Reallocate_grow_by@V<lambda_15711c68e099a15a58f4d77303cb286d>@@D@?$basic_string@DU?$char_traits@D@std@@V?$allocator@D@2@@std@@AAEAAV01@IV<lambda_15711c68e099a15a58f4d77303cb286d>@@D@Z 00412290 f i win32_main.obj
 0001:00011400       ??$_Reallocate_grow_by@V<lambda_ab246b20b9526e2ef7792587e4298a77>@@PBDI@?$basic_string@DU?$char_traits@D@std@@V?$allocator@D@2@@std@@AAEAAV01@IV<lambda_ab246b20b9526e2ef7792587e4298a77>@@PBDI@Z 00412400 f i win32_main.obj
 0001:00011570       ??$_Unfancy@D@std@@YAPADPAD@Z 00412570 f i win32_main.obj
 0001:00011580       ??$_Unfancy@U_Container_proxy@std@@@std@@YAPAU_Container_proxy@0@PAU10@@Z 00412580 f i win32_main.obj
 0001:00011590       ??$_Ungetc@D@std@@YA_NABDPAU_iobuf@@@Z 00412590 f i win32_main.obj
 0001:000115d0       ??$_Verify_range@D@std@@YAXQBD0@Z 004125d0 f i win32_main.obj
 0001:00011650       ??$_Voidify_iter@PAPAD@std@@YAPAXPAPAD@Z 00412650 f i win32_main.obj
 0001:00011660       ??$_Voidify_iter@PAU_Container_proxy@std@@@std@@YAPAXPAU_Container_proxy@0@@Z 00412660 f i win32_main.obj
 0001:00011670       ??$addressof@$$CBV?$_String_val@U?$_Simple_types@D@std@@@std@@@std@@YAPBV?$_String_val@U?$_Simple_types@D@std@@@0@ABV10@@Z 00412670 f i win32_main.obj
 0001:00011680       ??$addressof@$$CBV?$basic_filebuf@DU?$char_traits@D@std@@@std@@@std@@YAPBV?$basic_filebuf@DU?$char_traits@D@std@@@0@ABV10@@Z 00412680 f i win32_main.obj
 0001:00011690       ??$addressof@$$CBV?$codecvt@DDU_Mbstatet@@@std@@@std@@YAPBV?$codecvt@DDU_Mbstatet@@@0@ABV10@@Z 00412690 f i win32_main.obj
 0001:000116a0       ??$addressof@D@std@@YAPADAAD@Z 004126a0 f i win32_main.obj
 0001:000116b0       ??$addressof@PAD@std@@YAPAPADAAPAD@Z 004126b0 f i win32_main.obj
 0001:000116c0       ??$addressof@U_Container_base12@std@@@std@@YAPAU_Container_base12@0@AAU10@@Z 004126c0 f i win32_main.obj
 0001:000116d0       ??$addressof@U_Container_proxy@std@@@std@@YAPAU_Container_proxy@0@AAU10@@Z 004126d0 f i win32_main.obj
 0001:000116e0       ??$addressof@V?$_String_val@U?$_Simple_types@D@std@@@std@@@std@@YAPAV?$_String_val@U?$_Simple_types@D@std@@@0@AAV10@@Z 004126e0 f i win32_main.obj
 0001:000116f0       ??$addressof@V?$basic_filebuf@DU?$char_traits@D@std@@@std@@@std@@YAPAV?$basic_filebuf@DU?$char_traits@D@std@@@0@AAV10@@Z 004126f0 f i win32_main.obj
 0001:00011700       ??$addressof@V?$basic_string@DU?$char_traits@D@std@@V?$allocator@D@2@@std@@@std@@YAPAV?$basic_string@DU?$char_traits@D@std@@V?$allocator@D@2@@0@AAV10@@Z 00412700 f i win32_main.obj
 0001:00011710       ??$addressof@V?$basic_stringbuf@DU?$char_traits@D@std@@V?$allocator@D@2@@std@@@std@@YAPAV?$basic_stringbuf@DU?$char_traits@D@std@@V?$allocator@D@2@@0@AAV10@@Z 00412710 f i win32_main.obj
 0001:00011720       ??$endl@DU?$char_traits@D@std@@@std@@YAAAV?$basic_ostream@DU?$char_traits@D@std@@@0@AAV10@@Z 00412720 f i win32_main.obj
 0001:00011770       ??$exchange@PAV_Facet_base@std@@$$T@std@@YAPAV_Facet_base@0@AAPAV10@$$QA$$T@Z 00412770 f i win32_main.obj
 0001:000117a0       ??$forward@AAPAD@std@@YAAAPADAAPAD@Z 004127a0 f i win32_main.obj
 0001:000117b0       ??$forward@AAPAV_Facet_base@std@@@std@@YAAAPAV_Facet_base@0@AAPAV10@@Z 004127b0 f i win32_main.obj
 0001:000117c0       ??$forward@ABQAD@std@@YAABQADABQAD@Z 004127c0 f i win32_main.obj
 0001:000117d0       ??$forward@ABV?$allocator@D@std@@@std@@YAABV?$allocator@D@0@ABV10@@Z 004127d0 f i win32_main.obj
 0001:000117e0       ??$forward@PAU_Container_base12@std@@@std@@YA$$QAPAU_Container_base12@0@AAPAU10@@Z 004127e0 f i win32_main.obj
 0001:000117f0       ??$forward@V?$allocator@D@std@@@std@@YA$$QAV?$allocator@D@0@AAV10@@Z 004127f0 f i win32_main.obj
 0001:00011800       ??$max@I@std@@YAABIABI0@Z  00412800 f i win32_main.obj
 0001:00011840       ??$max@PAD@std@@YAABQADABQAD0@Z 00412840 f i win32_main.obj
 0001:00011880       ??$min@H@std@@YAABHABH0@Z  00412880 f i win32_main.obj
 0001:000118c0       ??$min@I@std@@YAABIABI0@Z  004128c0 f i win32_main.obj
 0001:00011900       ??$move@AAV?$allocator@D@std@@@std@@YA$$QAV?$allocator@D@0@AAV10@@Z 00412900 f i win32_main.obj
 0001:00011910       ??$use_facet@V?$codecvt@DDU_Mbstatet@@@std@@@std@@YAABV?$codecvt@DDU_Mbstatet@@@0@ABVlocale@0@@Z 00412910 f i win32_main.obj
 0001:00011a60       ??$use_facet@V?$ctype@D@std@@@std@@YAABV?$ctype@D@0@ABVlocale@0@@Z 00412a60 f i win32_main.obj
 0001:00011bb0       ??0?$_Container_proxy_ptr12@V?$allocator@U_Container_proxy@std@@@std@@@std@@QAE@AAV?$allocator@U_Container_proxy@std@@@1@AAU_Container_base12@1@@Z 00412bb0 f i win32_main.obj
 0001:00011c30       ??0?$_String_val@U?$_Simple_types@D@std@@@std@@QAE@XZ 00412c30 f i win32_main.obj
 0001:00011c80       ??0?$_Yarn@D@std@@QAE@XZ   00412c80 f i win32_main.obj
 0001:00011cb0       ??0?$_Yarn@_W@std@@QAE@XZ  00412cb0 f i win32_main.obj
 0001:00011ce0       ??0?$allocator@D@std@@QAE@XZ 00412ce0 f i win32_main.obj
 0001:00011d00       ??0?$basic_filebuf@DU?$char_traits@D@std@@@std@@QAE@XZ 00412d00 f i win32_main.obj
 0001:00011d80       ??0?$basic_ifstream@DU?$char_traits@D@std@@@std@@QAE@XZ 00412d80 f i win32_main.obj
 0001:00011e90       ??0?$basic_ios@DU?$char_traits@D@std@@@std@@IAE@XZ 00412e90 f i win32_main.obj
 0001:00011ec0       ??0?$basic_iostream@DU?$char_traits@D@std@@@std@@QAE@PAV?$basic_streambuf@DU?$char_traits@D@std@@@1@@Z 00412ec0 f i win32_main.obj
 0001:00011fd0       ??0?$basic_istream@DU?$char_traits@D@std@@@std@@QAE@PAV?$basic_streambuf@DU?$char_traits@D@std@@@1@_N@Z 00412fd0 f i win32_main.obj
 0001:000120d0       ??0?$basic_ostream@DU?$char_traits@D@std@@@std@@QAE@W4_Uninitialized@1@_N@Z 004130d0 f i win32_main.obj
 0001:000121e0       ??0?$basic_streambuf@DU?$char_traits@D@std@@@std@@IAE@XZ 004131e0 f i win32_main.obj
 0001:00012250       ??0?$basic_string@DU?$char_traits@D@std@@V?$allocator@D@2@@std@@QAE@$$QAV01@@Z 00413250 f i win32_main.obj
 0001:00012320       ??0?$basic_string@DU?$char_traits@D@std@@V?$allocator@D@2@@std@@QAE@ABV01@@Z 00413320 f i win32_main.obj
 0001:00012420       ??0?$basic_string@DU?$char_traits@D@std@@V?$allocator@D@2@@std@@QAE@ABV?$allocator@D@1@@Z 00413420 f i win32_main.obj
 0001:000124c0       ??0?$basic_string@DU?$char_traits@D@std@@V?$allocator@D@2@@std@@QAE@ID@Z 004134c0 f i win32_main.obj
 0001:000125b0       ??0?$basic_string@DU?$char_traits@D@std@@V?$allocator@D@2@@std@@QAE@QBD@Z 004135b0 f i win32_main.obj
 0001:00012690       ??0?$basic_string@DU?$char_traits@D@std@@V?$allocator@D@2@@std@@QAE@QBDI@Z 00413690 f i win32_main.obj
 0001:00012780       ??0?$basic_string@DU?$char_traits@D@std@@V?$allocator@D@2@@std@@QAE@XZ 00413780 f i win32_main.obj
 0001:00012820       ??0?$basic_stringbuf@DU?$char_traits@D@std@@V?$allocator@D@2@@std@@QAE@H@Z 00413820 f i win32_main.obj
 0001:000128c0       ??0?$basic_stringstream@DU?$char_traits@D@std@@V?$allocator@D@2@@std@@QAE@XZ 004138c0 f i win32_main.obj
 0001:000129e0       ??0?$codecvt@DDU_Mbstatet@@@std@@QAE@ABV_Locinfo@1@I@Z 004139e0 f i win32_main.obj
 0001:00012a70       ??0?$ctype@D@std@@QAE@ABV_Locinfo@1@I@Z 00413a70 f i win32_main.obj
 0001:00012b00       ??0?$fpos@U_Mbstatet@@@std@@QAE@U_Mbstatet@@_J@Z 00413b00 f i win32_main.obj
 0001:00012b50       ??0?$fpos@U_Mbstatet@@@std@@QAE@_J@Z 00413b50 f i win32_main.obj
 0001:00012ba0       ??0Console@platform@@QAE@XZ 00413ba0 f i win32_main.obj
 0001:00012be0       ??0_Basic_container_proxy_ptr12@std@@IAE@XZ 00413be0 f i win32_main.obj
 0001:00012c00       ??0_Bxty@?$_String_val@U?$_Simple_types@D@std@@@std@@QAE@XZ 00413c00 f i win32_main.obj
 0001:00012c20       ??0_Container_base12@std@@QAE@XZ 00413c20 f i win32_main.obj
 0001:00012c40       ??0_Container_proxy@std@@QAE@PAU_Container_base12@1@@Z 00413c40 f i win32_main.obj
 0001:00012c70       ??0_Facet_base@std@@QAE@XZ 00413c70 f i win32_main.obj
 0001:00012c90       ??0_Locinfo@std@@QAE@PBD@Z 00413c90 f i win32_main.obj
 0001:00012da0       ??0_Sentry_base@?$basic_ostream@DU?$char_traits@D@std@@@std@@QAE@AAV12@@Z 00413da0 f i win32_main.obj
 0001:00012e00       ??0_System_error@std@@IAE@Verror_code@1@ABV?$basic_string@DU?$char_traits@D@std@@V?$allocator@D@2@@1@@Z 00413e00 f i win32_main.obj
 0001:00012ee0       ??0_System_error@std@@QAE@ABV01@@Z 00413ee0 f i win32_main.obj
 0001:00012f30       ??0bad_alloc@std@@AAE@QBD@Z 00413f30 f i win32_main.obj
 0001:00012f60       ??0bad_alloc@std@@QAE@ABV01@@Z 00413f60 f i win32_main.obj
 0001:00012f90       ??0bad_array_new_length@std@@QAE@ABV01@@Z 00413f90 f i win32_main.obj
 0001:00012fc0       ??0bad_array_new_length@std@@QAE@XZ 00413fc0 f i win32_main.obj
 0001:00012ff0       ??0bad_cast@std@@QAE@ABV01@@Z 00413ff0 f i win32_main.obj
 0001:00013020       ??0bad_cast@std@@QAE@XZ    00414020 f i win32_main.obj
 0001:00013050       ??0codecvt_base@std@@QAE@I@Z 00414050 f i win32_main.obj
 0001:00013080       ??0ctype_base@std@@QAE@I@Z 00414080 f i win32_main.obj
 0001:000130b0       ??0error_code@std@@QAE@HABVerror_category@1@@Z 004140b0 f i win32_main.obj
 0001:000130e0       ??0error_condition@std@@QAE@HABVerror_category@1@@Z 004140e0 f i win32_main.obj
 0001:00013110       ??0exception@std@@QAE@ABV01@@Z 00414110 f i win32_main.obj
 0001:00013160       ??0exception@std@@QAE@QBD@Z 00414160 f i win32_main.obj
 0001:000131c0       ??0exception@std@@QAE@QBDH@Z 004141c0 f i win32_main.obj
 0001:00013200       ??0facet@locale@std@@IAE@I@Z 00414200 f i win32_main.obj
 0001:00013240       ??0failure@ios_base@std@@QAE@ABV012@@Z 00414240 f i win32_main.obj
 0001:00013270       ??0failure@ios_base@std@@QAE@PBDABVerror_code@2@@Z 00414270 f i win32_main.obj
 0001:000132b0       ??0id@locale@std@@QAE@I@Z  004142b0 f i win32_main.obj
 0001:000132d0       ??0ios_base@std@@IAE@XZ    004142d0 f i win32_main.obj
 0001:00013320       ??0locale@std@@QAE@ABV01@@Z 00414320 f i win32_main.obj
 0001:00013360       ??0locale@std@@QAE@XZ      00414360 f i win32_main.obj
 0001:000133c0       ??0runtime_error@std@@QAE@ABV01@@Z 004143c0 f i win32_main.obj
 0001:000133f0       ??0runtime_error@std@@QAE@ABV?$basic_string@DU?$char_traits@D@std@@V?$allocator@D@2@@1@@Z 004143f0 f i win32_main.obj
 0001:00013430       ??0runtime_error@std@@QAE@PBD@Z 00414430 f i win32_main.obj
 0001:00013460       ??0sentry@?$basic_ostream@DU?$char_traits@D@std@@@std@@QAE@AAV12@@Z 00414460 f i win32_main.obj
 0001:00013550       ??0shader@@QAE@V?$basic_string@DU?$char_traits@D@std@@V?$allocator@D@2@@std@@@Z 00414550 f i win32_main.obj
 0001:00013620       ??0system_error@std@@QAE@ABV01@@Z 00414620 f i win32_main.obj
 0001:00013650       ??0system_error@std@@QAE@Verror_code@1@PBD@Z 00414650 f i win32_main.obj
 0001:00013700       ??1?$_Compressed_pair@V?$allocator@D@std@@V?$_String_val@U?$_Simple_types@D@std@@@2@$00@std@@QAE@XZ 00414700 f i win32_main.obj
 0001:00013720       ??1?$_Container_proxy_ptr12@V?$allocator@U_Container_proxy@std@@@std@@@std@@QAE@XZ 00414720 f i win32_main.obj
 0001:00013760       ??1?$_String_val@U?$_Simple_types@D@std@@@std@@QAE@XZ 00414760 f i win32_main.obj
 0001:00013780       ??1?$_Yarn@D@std@@QAE@XZ   00414780 f i win32_main.obj
 0001:000137a0       ??1?$_Yarn@_W@std@@QAE@XZ  004147a0 f i win32_main.obj
 0001:000137c0       ??1?$basic_filebuf@DU?$char_traits@D@std@@@std@@UAE@XZ 004147c0 f i win32_main.obj
 0001:00013850       ??1?$basic_ifstream@DU?$char_traits@D@std@@@std@@UAE@XZ 00414850 f i win32_main.obj
 0001:000138c0       ??1?$basic_ios@DU?$char_traits@D@std@@@std@@UAE@XZ 004148c0 f i win32_main.obj
 0001:000138f0       ??1?$basic_iostream@DU?$char_traits@D@std@@@std@@UAE@XZ 004148f0 f i win32_main.obj
 0001:00013960       ??1?$basic_istream@DU?$char_traits@D@std@@@std@@UAE@XZ 00414960 f i win32_main.obj
 0001:000139b0       ??1?$basic_ostream@DU?$char_traits@D@std@@@std@@UAE@XZ 004149b0 f i win32_main.obj
 0001:00013a00       ??1?$basic_streambuf@DU?$char_traits@D@std@@@std@@UAE@XZ 00414a00 f i win32_main.obj
 0001:00013a50       ??1?$basic_string@DU?$char_traits@D@std@@V?$allocator@D@2@@std@@QAE@XZ 00414a50 f i win32_main.obj
 0001:00013ac0       ??1?$basic_stringbuf@DU?$char_traits@D@std@@V?$allocator@D@2@@std@@UAE@XZ 00414ac0 f i win32_main.obj
 0001:00013af0       ??1?$basic_stringstream@DU?$char_traits@D@std@@V?$allocator@D@2@@std@@UAE@XZ 00414af0 f i win32_main.obj
 0001:00013b60       ??1?$codecvt@DDU_Mbstatet@@@std@@MAE@XZ 00414b60 f i win32_main.obj
 0001:00013b90       ??1?$ctype@D@std@@MAE@XZ   00414b90 f i win32_main.obj
 0001:00013bc0       ??1?$unique_ptr@V_Facet_base@std@@U?$default_delete@V_Facet_base@std@@@2@@std@@QAE@XZ 00414bc0 f i win32_main.obj
 0001:00013c10       ??1_Bxty@?$_String_val@U?$_Simple_types@D@std@@@std@@QAE@XZ 00414c10 f i win32_main.obj
 0001:00013c20       ??1_Facet_base@std@@UAE@XZ 00414c20 f i win32_main.obj
 0001:00013c40       ??1_Iostream_error_category2@std@@UAE@XZ 00414c40 f i win32_main.obj
 0001:00013c60       ??1_Locinfo@std@@QAE@XZ    00414c60 f i win32_main.obj
 0001:00013d20       ??1_Sentry_base@?$basic_ostream@DU?$char_traits@D@std@@@std@@QAE@XZ 00414d20 f i win32_main.obj
 0001:00013db0       ??1_System_error@std@@UAE@XZ 00414db0 f i win32_main.obj
 0001:00013dd0       ??1bad_alloc@std@@UAE@XZ   00414dd0 f i win32_main.obj
 0001:00013df0       ??1bad_array_new_length@std@@UAE@XZ 00414df0 f i win32_main.obj
 0001:00013e10       ??1bad_cast@std@@UAE@XZ    00414e10 f i win32_main.obj
 0001:00013e30       ??1codecvt_base@std@@UAE@XZ 00414e30 f i win32_main.obj
 0001:00013e60       ??1ctype_base@std@@UAE@XZ  00414e60 f i win32_main.obj
 0001:00013e90       ??1error_category@std@@UAE@XZ 00414e90 f i win32_main.obj
 0001:00013ea0       ??1exception@std@@UAE@XZ   00414ea0 f i win32_main.obj
 0001:00013ed0       ??1facet@locale@std@@MAE@XZ 00414ed0 f i win32_main.obj
 0001:00013f00       ??1failure@ios_base@std@@UAE@XZ 00414f00 f i win32_main.obj
 0001:00013f20       ??1ios_base@std@@UAE@XZ    00414f20 f i win32_main.obj
 0001:00013f90       ??1locale@std@@QAE@XZ      00414f90 f i win32_main.obj
 0001:00014000       ??1runtime_error@std@@UAE@XZ 00415000 f i win32_main.obj
 0001:00014020       ??1sentry@?$basic_ostream@DU?$char_traits@D@std@@@std@@QAE@XZ 00415020 f i win32_main.obj
 0001:000140b0       ??1shader@@QAE@XZ          004150b0 f i win32_main.obj
 0001:00014150       ??1system_error@std@@UAE@XZ 00415150 f i win32_main.obj
 0001:00014170       ??2@YAPAXIPAX@Z            00415170 f i win32_main.obj
 0001:00014180       ??2_Crt_new_delete@std@@SAPAXI@Z 00415180 f i win32_main.obj
 0001:000141c0       ??2_Crt_new_delete@std@@SAPAXIABUnothrow_t@1@@Z 004151c0 f i win32_main.obj
 0001:00014200       ??3_Crt_new_delete@std@@SAXPAX@Z 00415200 f i win32_main.obj
 0001:00014220       ??4?$basic_string@DU?$char_traits@D@std@@V?$allocator@D@2@@std@@QAEAAV01@$$QAV01@@Z 00415220 f i win32_main.obj
 0001:00014270       ??6?$basic_ostream@DU?$char_traits@D@std@@@std@@QAEAAV01@P6AAAV01@AAV01@@Z@Z 00415270 f i win32_main.obj
 0001:000142a0       ??6?$basic_ostream@DU?$char_traits@D@std@@@std@@QAEAAV01@PAV?$basic_streambuf@DU?$char_traits@D@std@@@1@@Z 004152a0 f i win32_main.obj
 0001:00014590       ??8error_category@std@@QBE_NABV01@@Z 00415590 f i win32_main.obj
 0001:000145d0       ??8std@@YA_NABVerror_condition@0@0@Z 004155d0 f i win32_main.obj
 0001:00014650       ??A?$basic_string@DU?$char_traits@D@std@@V?$allocator@D@2@@std@@QAEAADI@Z 00415650 f i win32_main.obj
 0001:000146e0       ??B?$fpos@U_Mbstatet@@@std@@QBE_JXZ 004156e0 f i win32_main.obj
 0001:00014710       ??Bid@locale@std@@QAEIXZ   00415710 f i win32_main.obj
 0001:00014780       ??Bsentry@?$basic_ostream@DU?$char_traits@D@std@@@std@@QBE_NXZ 00415780 f i win32_main.obj
 0001:000147a0       ??R<lambda_15711c68e099a15a58f4d77303cb286d>@@QBE@QADQBDID@Z 004157a0 f i win32_main.obj
 0001:00014810       ??R<lambda_9366063389c5f42a00a5088cf24e69de>@@QBE@QADIQBD@Z 00415810 f i win32_main.obj
 0001:00014860       ??R<lambda_ab246b20b9526e2ef7792587e4298a77>@@QBE@QADQBDI1I@Z 00415860 f i win32_main.obj
 0001:000148d0       ??R<lambda_c6753c90be971fc9cc00b4f35f237a75>@@QBE@QADID@Z 004158d0 f i win32_main.obj
 0001:00014920       ??R?$default_delete@V_Facet_base@std@@@std@@QBEXPAV_Facet_base@1@@Z 00415920 f i win32_main.obj
 0001:00014970       ??_D?$basic_ifstream@DU?$char_traits@D@std@@@std@@QAEXXZ 00415970 f i win32_main.obj
 0001:000149a0       ??_D?$basic_iostream@DU?$char_traits@D@std@@@std@@QAEXXZ 004159a0 f i win32_main.obj
 0001:000149d0       ??_D?$basic_istream@DU?$char_traits@D@std@@@std@@QAEXXZ 004159d0 f i win32_main.obj
 0001:00014a00       ??_D?$basic_ostream@DU?$char_traits@D@std@@@std@@QAEXXZ 00415a00 f i win32_main.obj
 0001:00014a30       ??_D?$basic_stringstream@DU?$char_traits@D@std@@V?$allocator@D@2@@std@@QAEXXZ 00415a30 f i win32_main.obj
 0001:00014a59       ??_E?$basic_ifstream@DU?$char_traits@D@std@@@std@@$4PPPPPPPM@A@AEPAXI@Z 00415a59 f i win32_main.obj
 0001:00014a63       ??_E?$basic_iostream@DU?$char_traits@D@std@@@std@@$4PPPPPPPM@A@AEPAXI@Z 00415a63 f i win32_main.obj
 0001:00014a6d       ??_E?$basic_istream@DU?$char_traits@D@std@@@std@@$4PPPPPPPM@A@AEPAXI@Z 00415a6d f i win32_main.obj
 0001:00014a77       ??_E?$basic_ostream@DU?$char_traits@D@std@@@std@@$4PPPPPPPM@A@AEPAXI@Z 00415a77 f i win32_main.obj
 0001:00014a81       ??_E?$basic_stringstream@DU?$char_traits@D@std@@V?$allocator@D@2@@std@@$4PPPPPPPM@A@AEPAXI@Z 00415a81 f i win32_main.obj
 0001:00014a90       ??_E?$basic_filebuf@DU?$char_traits@D@std@@@std@@UAEPAXI@Z 00415a90 f i win32_main.obj
 0001:00014a90       ??_G?$basic_filebuf@DU?$char_traits@D@std@@@std@@UAEPAXI@Z 00415a90 f i win32_main.obj
 0001:00014ad0       ??_E?$basic_ifstream@DU?$char_traits@D@std@@@std@@UAEPAXI@Z 00415ad0 f i win32_main.obj
 0001:00014ad0       ??_G?$basic_ifstream@DU?$char_traits@D@std@@@std@@UAEPAXI@Z 00415ad0 f i win32_main.obj
 0001:00014b20       ??_E?$basic_ios@DU?$char_traits@D@std@@@std@@UAEPAXI@Z 00415b20 f i win32_main.obj
 0001:00014b20       ??_G?$basic_ios@DU?$char_traits@D@std@@@std@@UAEPAXI@Z 00415b20 f i win32_main.obj
 0001:00014b60       ??_E?$basic_iostream@DU?$char_traits@D@std@@@std@@UAEPAXI@Z 00415b60 f i win32_main.obj
 0001:00014b60       ??_G?$basic_iostream@DU?$char_traits@D@std@@@std@@UAEPAXI@Z 00415b60 f i win32_main.obj
 0001:00014bb0       ??_E?$basic_istream@DU?$char_traits@D@std@@@std@@UAEPAXI@Z 00415bb0 f i win32_main.obj
 0001:00014bb0       ??_G?$basic_istream@DU?$char_traits@D@std@@@std@@UAEPAXI@Z 00415bb0 f i win32_main.obj
 0001:00014c00       ??_E?$basic_ostream@DU?$char_traits@D@std@@@std@@UAEPAXI@Z 00415c00 f i win32_main.obj
 0001:00014c00       ??_G?$basic_ostream@DU?$char_traits@D@std@@@std@@UAEPAXI@Z 00415c00 f i win32_main.obj
 0001:00014c50       ??_E?$basic_streambuf@DU?$char_traits@D@std@@@std@@UAEPAXI@Z 00415c50 f i win32_main.obj
 0001:00014c50       ??_G?$basic_streambuf@DU?$char_traits@D@std@@@std@@UAEPAXI@Z 00415c50 f i win32_main.obj
 0001:00014c90       ??_G?$basic_stringbuf@DU?$char_traits@D@std@@V?$allocator@D@2@@std@@UAEPAXI@Z 00415c90 f i win32_main.obj
 0001:00014c90       ??_E?$basic_stringbuf@DU?$char_traits@D@std@@V?$allocator@D@2@@std@@UAEPAXI@Z 00415c90 f i win32_main.obj
 0001:00014cd0       ??_E?$basic_stringstream@DU?$char_traits@D@std@@V?$allocator@D@2@@std@@UAEPAXI@Z 00415cd0 f i win32_main.obj
 0001:00014cd0       ??_G?$basic_stringstream@DU?$char_traits@D@std@@V?$allocator@D@2@@std@@UAEPAXI@Z 00415cd0 f i win32_main.obj
 0001:00014d20       ??_G?$codecvt@DDU_Mbstatet@@@std@@MAEPAXI@Z 00415d20 f i win32_main.obj
 0001:00014d20       ??_E?$codecvt@DDU_Mbstatet@@@std@@MAEPAXI@Z 00415d20 f i win32_main.obj
 0001:00014d80       ??_G?$ctype@D@std@@MAEPAXI@Z 00415d80 f i win32_main.obj
 0001:00014d80       ??_E?$ctype@D@std@@MAEPAXI@Z 00415d80 f i win32_main.obj
 0001:00014de0       ??_G_Facet_base@std@@UAEPAXI@Z 00415de0 f i win32_main.obj
 0001:00014de0       ??_E_Facet_base@std@@UAEPAXI@Z 00415de0 f i win32_main.obj
 0001:00014e20       ??_G_Iostream_error_category2@std@@UAEPAXI@Z 00415e20 f i win32_main.obj
 0001:00014e20       ??_E_Iostream_error_category2@std@@UAEPAXI@Z 00415e20 f i win32_main.obj
 0001:00014e60       ??_G_System_error@std@@UAEPAXI@Z 00415e60 f i win32_main.obj
 0001:00014e60       ??_E_System_error@std@@UAEPAXI@Z 00415e60 f i win32_main.obj
 0001:00014ea0       ??_Ebad_alloc@std@@UAEPAXI@Z 00415ea0 f i win32_main.obj
 0001:00014ea0       ??_Gbad_alloc@std@@UAEPAXI@Z 00415ea0 f i win32_main.obj
 0001:00014ee0       ??_Ebad_array_new_length@std@@UAEPAXI@Z 00415ee0 f i win32_main.obj
 0001:00014ee0       ??_Gbad_array_new_length@std@@UAEPAXI@Z 00415ee0 f i win32_main.obj
 0001:00014f20       ??_Gbad_cast@std@@UAEPAXI@Z 00415f20 f i win32_main.obj
 0001:00014f20       ??_Ebad_cast@std@@UAEPAXI@Z 00415f20 f i win32_main.obj
 0001:00014f60       ??_Gcodecvt_base@std@@UAEPAXI@Z 00415f60 f i win32_main.obj
 0001:00014f60       ??_Ecodecvt_base@std@@UAEPAXI@Z 00415f60 f i win32_main.obj
 0001:00014fc0       ??_Gctype_base@std@@UAEPAXI@Z 00415fc0 f i win32_main.obj
 0001:00014fc0       ??_Ectype_base@std@@UAEPAXI@Z 00415fc0 f i win32_main.obj
 0001:00015020       ??_Gexception@std@@UAEPAXI@Z 00416020 f i win32_main.obj
 0001:00015020       ??_Eexception@std@@UAEPAXI@Z 00416020 f i win32_main.obj
 0001:00015060       ??_Gfacet@locale@std@@MAEPAXI@Z 00416060 f i win32_main.obj
 0001:00015060       ??_Efacet@locale@std@@MAEPAXI@Z 00416060 f i win32_main.obj
 0001:000150c0       ??_Gfailure@ios_base@std@@UAEPAXI@Z 004160c0 f i win32_main.obj
 0001:000150c0       ??_Efailure@ios_base@std@@UAEPAXI@Z 004160c0 f i win32_main.obj
 0001:00015100       ??_Gios_base@std@@UAEPAXI@Z 00416100 f i win32_main.obj
 0001:00015100       ??_Eios_base@std@@UAEPAXI@Z 00416100 f i win32_main.obj
 0001:00015140       ??_Glocale@std@@QAEPAXI@Z  00416140 f i win32_main.obj
 0001:000151a0       ??_Eruntime_error@std@@UAEPAXI@Z 004161a0 f i win32_main.obj
 0001:000151a0       ??_Gruntime_error@std@@UAEPAXI@Z 004161a0 f i win32_main.obj
 0001:000151e0       ??_Gsystem_error@std@@UAEPAXI@Z 004161e0 f i win32_main.obj
 0001:000151e0       ??_Esystem_error@std@@UAEPAXI@Z 004161e0 f i win32_main.obj
 0001:00015220       ?_Adjust_manually_vector_aligned@std@@YAXAAPAXAAI@Z 00416220 f i win32_main.obj
 0001:00015370       ?_Allocate@_Default_allocate_traits@std@@SAPAXI@Z 00416370 f i win32_main.obj
 0001:00015390       ?_Calculate_growth@?$basic_string@DU?$char_traits@D@std@@V?$allocator@D@2@@std@@ABEII@Z 00416390 f i win32_main.obj
 0001:000153e0       ?_Calculate_growth@?$basic_string@DU?$char_traits@D@std@@V?$allocator@D@2@@std@@CAIIII@Z 004163e0 f i win32_main.obj
 0001:00015450       ?_Check_offset@?$_String_val@U?$_Simple_types@D@std@@@std@@QBEXI@Z 00416450 f i win32_main.obj
 0001:00015480       ?_Clamp_suffix_size@?$_String_val@U?$_Simple_types@D@std@@@std@@QBEIII@Z 00416480 f i win32_main.obj
 0001:000154c0       ?_Construct_lv_contents@?$basic_string@DU?$char_traits@D@std@@V?$allocator@D@2@@std@@AAEXABV12@@Z 004164c0 f i win32_main.obj
 0001:00015610       ?_Decref@facet@locale@std@@UAEPAV_Facet_base@3@XZ 00416610 f i win32_main.obj
 0001:00015640       ?_Endwrite@?$basic_filebuf@DU?$char_traits@D@std@@@std@@IAE_NXZ 00416640 f i win32_main.obj
 0001:000157b0       ?_Erase_noexcept@?$basic_string@DU?$char_traits@D@std@@V?$allocator@D@2@@std@@AAEAAV12@II@Z 004167b0 f i win32_main.obj
 0001:00015850       ?_Get_buffer_view@?$basic_stringbuf@DU?$char_traits@D@std@@V?$allocator@D@2@@std@@QBE?AU_Buffer_view@12@XZ 00416850 f i win32_main.obj
 0001:000159a0       ?_Get_first@?$_Compressed_pair@U?$default_delete@V_Facet_base@std@@@std@@PAV_Facet_base@2@$00@std@@QAEAAU?$default_delete@V_Facet_base@std@@@2@XZ 004169a0 f i win32_main.obj
 0001:000159c0       ?_Get_first@?$_Compressed_pair@V?$allocator@D@std@@V?$_String_val@U?$_Simple_types@D@std@@@2@$00@std@@QAEAAV?$allocator@D@2@XZ 004169c0 f i win32_main.obj
 0001:000159e0       ?_Get_first@?$_Compressed_pair@V?$allocator@D@std@@V?$_String_val@U?$_Simple_types@D@std@@@2@$00@std@@QBEABV?$allocator@D@2@XZ 004169e0 f i win32_main.obj
 0001:00015a00       ?_Getal@?$basic_string@DU?$char_traits@D@std@@V?$allocator@D@2@@std@@AAEAAV?$allocator@D@2@XZ 00416a00 f i win32_main.obj
 0001:00015a20       ?_Getal@?$basic_string@DU?$char_traits@D@std@@V?$allocator@D@2@@std@@ABEABV?$allocator@D@2@XZ 00416a20 f i win32_main.obj
 0001:00015a40       ?_Getcat@?$codecvt@DDU_Mbstatet@@@std@@SAIPAPBVfacet@locale@2@PBV42@@Z 00416a40 f i win32_main.obj
 0001:00015b60       ?_Getcat@?$ctype@D@std@@SAIPAPBVfacet@locale@2@PBV42@@Z 00416b60 f i win32_main.obj
 0001:00015c80       ?_Getctype@_Locinfo@std@@QBE?AU_Ctypevec@@XZ 00416c80 f i win32_main.obj
 0001:00015cd0       ?_Getfacet@locale@std@@QBEPBVfacet@12@I@Z 00416cd0 f i win32_main.obj
 0001:00015d70       ?_Getstate@?$basic_stringbuf@DU?$char_traits@D@std@@V?$allocator@D@2@@std@@CAHH@Z 00416d70 f i win32_main.obj
 0001:00015de0       ?_Gnavail@?$basic_streambuf@DU?$char_traits@D@std@@@std@@IBE_JXZ 00416de0 f i win32_main.obj
 0001:00015e20       ?_Gndec@?$basic_streambuf@DU?$char_traits@D@std@@@std@@IAEPADXZ 00416e20 f i win32_main.obj
 0001:00015e70       ?_Gninc@?$basic_streambuf@DU?$char_traits@D@std@@@std@@IAEPADXZ 00416e70 f i win32_main.obj
 0001:00015ed0       ?_Gnpreinc@?$basic_streambuf@DU?$char_traits@D@std@@@std@@IAEPADXZ 00416ed0 f i win32_main.obj
 0001:00015f20       ?_Incref@facet@locale@std@@UAEXXZ 00416f20 f i win32_main.obj
 0001:00015f40       ?_Init@?$basic_filebuf@DU?$char_traits@D@std@@@std@@IAEXPAU_iobuf@@W4_Initfl@12@@Z 00416f40 f i win32_main.obj
 0001:00016040       ?_Init@?$basic_streambuf@DU?$char_traits@D@std@@@std@@IAEXPAPAD0PAH001@Z 00417040 f i win32_main.obj
 0001:000160a0       ?_Init@?$basic_streambuf@DU?$char_traits@D@std@@@std@@IAEXXZ 004170a0 f i win32_main.obj
 0001:00016130       ?_Init@?$codecvt@DDU_Mbstatet@@@std@@IAEXABV_Locinfo@2@@Z 00417130 f i win32_main.obj
 0001:00016140       ?_Init@?$ctype@D@std@@IAEXABV_Locinfo@2@@Z 00417140 f i win32_main.obj
 0001:00016190       ?_Init@ios_base@std@@IAEXXZ 00417190 f i win32_main.obj
 0001:00016260       ?_Initcvt@?$basic_filebuf@DU?$char_traits@D@std@@@std@@IAEXABV?$codecvt@DDU_Mbstatet@@@2@@Z 00417260 f i win32_main.obj
 0001:000162c0       ?_Large_string_engaged@?$_String_val@U?$_Simple_types@D@std@@@std@@QBE_NXZ 004172c0 f i win32_main.obj
 0001:00016300       ?_Lock@?$basic_filebuf@DU?$char_traits@D@std@@@std@@UAEXXZ 00417300 f i win32_main.obj
 0001:00016330       ?_Lock@?$basic_streambuf@DU?$char_traits@D@std@@@std@@UAEXXZ 00417330 f i win32_main.obj
 0001:00016340       ?_Makestr@_System_error@std@@CA?AV?$basic_string@DU?$char_traits@D@std@@V?$allocator@D@2@@2@Verror_code@2@V32@@Z 00417340 f i win32_main.obj
 0001:00016440       ?_Memcpy_val_from@?$basic_string@DU?$char_traits@D@std@@V?$allocator@D@2@@std@@AAEXABV12@@Z 00417440 f i win32_main.obj
 0001:000164c0       ?_Move_assign@?$basic_string@DU?$char_traits@D@std@@V?$allocator@D@2@@std@@AAEXAAV12@U_Equal_allocators@2@@Z 004174c0 f i win32_main.obj
 0001:00016520       ?_Myptr@?$_String_val@U?$_Simple_types@D@std@@@std@@QAEPADXZ 00417520 f i win32_main.obj
 0001:00016570       ?_Myptr@?$_String_val@U?$_Simple_types@D@std@@@std@@QBEPBDXZ 00417570 f i win32_main.obj
 0001:000165c0       ?_Orphan_all@_Container_base12@std@@QAEXXZ 004175c0 f i win32_main.obj
 0001:000165f0       ?_Orphan_all_locked@_Container_base12@std@@AAEXXZ 004175f0 f i win32_main.obj
 0001:00016620       ?_Orphan_all_unlocked@_Container_base12@std@@AAEXXZ 00417620 f i win32_main.obj
 0001:00016680       ?_Osfx@?$basic_ostream@DU?$char_traits@D@std@@@std@@QAEXXZ 00417680 f i win32_main.obj
 0001:000167a0       ?_Pnavail@?$basic_streambuf@DU?$char_traits@D@std@@@std@@IBE_JXZ 004177a0 f i win32_main.obj
 0001:000167e0       ?_Pninc@?$basic_streambuf@DU?$char_traits@D@std@@@std@@IAEPADXZ 004177e0 f i win32_main.obj
 0001:00016840       ?_Release@_Basic_container_proxy_ptr12@std@@QAEXXZ 00417840 f i win32_main.obj
 0001:00016860       ?_Reset_back@?$basic_filebuf@DU?$char_traits@D@std@@@std@@AAEXXZ 00417860 f i win32_main.obj
 0001:000168b0       ?_Set_back@?$basic_filebuf@DU?$char_traits@D@std@@@std@@AAEXXZ 004178b0 f i win32_main.obj
 0001:00016920       ?_Swap_proxy_and_iterators@?$basic_string@DU?$char_traits@D@std@@V?$allocator@D@2@@std@@AAEXAAV12@@Z 00417920 f i win32_main.obj
 0001:00016950       ?_Swap_proxy_and_iterators@_Container_base12@std@@QAEXAAU12@@Z 00417950 f i win32_main.obj
 0001:00016970       ?_Swap_proxy_and_iterators_locked@_Container_base12@std@@AAEXAAU12@@Z 00417970 f i win32_main.obj
 0001:000169b0       ?_Swap_proxy_and_iterators_unlocked@_Container_base12@std@@AAEXAAU12@@Z 004179b0 f i win32_main.obj
 0001:00016a10       ?_Take_contents@?$basic_string@DU?$char_traits@D@std@@V?$allocator@D@2@@std@@AAEXAAV12@@Z 00417a10 f i win32_main.obj
 0001:00016b60       ?_Throw_bad_array_new_length@std@@YAXXZ 00417b60 f i win32_main.obj
 0001:00016b90       ?_Throw_bad_cast@std@@YAXXZ 00417b90 f i win32_main.obj
 0001:00016bc0       ?_Tidy@?$_Yarn@D@std@@AAEXXZ 00417bc0 f i win32_main.obj
 0001:00016c00       ?_Tidy@?$_Yarn@_W@std@@AAEXXZ 00417c00 f i win32_main.obj
 0001:00016c40       ?_Tidy@?$basic_stringbuf@DU?$char_traits@D@std@@V?$allocator@D@2@@std@@IAEXXZ 00417c40 f i win32_main.obj
 0001:00016d60       ?_Tidy@?$ctype@D@std@@IAEXXZ 00417d60 f i win32_main.obj
 0001:00016dd0       ?_Tidy_deallocate@?$basic_string@DU?$char_traits@D@std@@V?$allocator@D@2@@std@@AAEXXZ 00417dd0 f i win32_main.obj
 0001:00016ec0       ?_Tidy_init@?$basic_string@DU?$char_traits@D@std@@V?$allocator@D@2@@std@@AAEXXZ 00417ec0 f i win32_main.obj
 0001:00016f20       ?_Unlock@?$basic_filebuf@DU?$char_traits@D@std@@@std@@UAEXXZ 00417f20 f i win32_main.obj
 0001:00016f50       ?_Unlock@?$basic_streambuf@DU?$char_traits@D@std@@@std@@UAEXXZ 00417f50 f i win32_main.obj
 0001:00016f60       ?_Xlen_string@std@@YAXXZ   00417f60 f i win32_main.obj
 0001:00016f80       ?_Xran@?$_String_val@U?$_Simple_types@D@std@@@std@@SAXXZ 00417f80 f i win32_main.obj
 0001:00016fa0       ?__empty_global_delete@@YAXPAX@Z 00417fa0 f i win32_main.obj
 0001:00016fb0       ?__global_delete@@YAXPAXI@Z 00417fb0 f i win32_main.obj
 0001:00016fb0       ?__empty_global_delete@@YAXPAXI@Z 00417fb0 f i win32_main.obj
 0001:00016fc0       ?__empty_global_delete@@YAXPAXIW4align_val_t@std@@@Z 00417fc0 f i win32_main.obj
 0001:00016fd0       ?__empty_global_delete@@YAXPAXW4align_val_t@std@@@Z 00417fd0 f i win32_main.obj
 0001:00016fe0       ?allocate@?$allocator@D@std@@QAEPADI@Z 00417fe0 f i win32_main.obj
 0001:00017010       ?allocate@?$allocator@U_Container_proxy@std@@@std@@QAEPAU_Container_proxy@2@I@Z 00418010 f i win32_main.obj
 0001:00017040       ?always_noconv@codecvt_base@std@@QBE_NXZ 00418040 f i win32_main.obj
 0001:00017060       ?append@?$basic_string@DU?$char_traits@D@std@@V?$allocator@D@2@@std@@QAEAAV12@ABV12@@Z 00418060 f i win32_main.obj
 0001:000170a0       ?append@?$basic_string@DU?$char_traits@D@std@@V?$allocator@D@2@@std@@QAEAAV12@QBD@Z 004180a0 f i win32_main.obj
 0001:000170e0       ?append@?$basic_string@DU?$char_traits@D@std@@V?$allocator@D@2@@std@@QAEAAV12@QBDI@Z 004180e0 f i win32_main.obj
 0001:000171a0       ?assign@?$_Narrow_char_traits@DH@std@@SAPADQADID@Z 004181a0 f i win32_main.obj
 0001:000171c0       ?assign@?$_Narrow_char_traits@DH@std@@SAXAADABD@Z 004181c0 f i win32_main.obj
 0001:000171e0       ?assign@?$basic_string@DU?$char_traits@D@std@@V?$allocator@D@2@@std@@QAEAAV12@ID@Z 004181e0 f i win32_main.obj
 0001:00017280       ?assign@?$basic_string@DU?$char_traits@D@std@@V?$allocator@D@2@@std@@QAEAAV12@QBD@Z 00418280 f i win32_main.obj
 0001:000172c0       ?assign@?$basic_string@DU?$char_traits@D@std@@V?$allocator@D@2@@std@@QAEAAV12@QBDI@Z 004182c0 f i win32_main.obj
 0001:00017360       ?c_str@?$_Yarn@D@std@@QBEPBDXZ 00418360 f i win32_main.obj
 0001:000173a0       ?c_str@?$basic_string@DU?$char_traits@D@std@@V?$allocator@D@2@@std@@QBEPBDXZ 004183a0 f i win32_main.obj
 0001:000173c0       ?c_str@locale@std@@QBEPBDXZ 004183c0 f i win32_main.obj
 0001:00017400       ?category@error_code@std@@QBEABVerror_category@2@XZ 00418400 f i win32_main.obj
 0001:00017420       ?category@error_condition@std@@QBEABVerror_category@2@XZ 00418420 f i win32_main.obj
 0001:00017440       ?clear@?$basic_ios@DU?$char_traits@D@std@@@std@@QAEXH_N@Z 00418440 f i win32_main.obj
 0001:000174a0       ?clear@ios_base@std@@QAEXH@Z 004184a0 f i win32_main.obj
 0001:000174d0       ?clear@ios_base@std@@QAEXH_N@Z 004184d0 f i win32_main.obj
 0001:00017590       ?close@?$basic_filebuf@DU?$char_traits@D@std@@@std@@QAEPAV12@XZ 00418590 f i win32_main.obj
 0001:00017610       ?close@?$basic_ifstream@DU?$char_traits@D@std@@@std@@QAEXXZ 00418610 f i win32_main.obj
 0001:00017660       ?copy@?$_Char_traits@DH@std@@SAPADQADQBDI@Z 00418660 f i win32_main.obj
 0001:00017690       ?data@?$basic_string@DU?$char_traits@D@std@@V?$allocator@D@2@@std@@QAEPADXZ 00418690 f i win32_main.obj
 0001:000176b0       ?deallocate@?$_Default_allocator_traits@V?$allocator@U_Container_proxy@std@@@std@@@std@@SAXAAV?$allocator@U_Container_proxy@std@@@2@QAU_Container_proxy@2@I@Z 004186b0 f i win32_main.obj
 0001:000176d0       ?deallocate@?$allocator@D@std@@QAEXQADI@Z 004186d0 f i win32_main.obj
 0001:00017700       ?default_error_condition@error_category@std@@UBE?AVerror_condition@2@H@Z 00418700 f i win32_main.obj
 0001:00017730       ?do_always_noconv@?$codecvt@DDU_Mbstatet@@@std@@MBE_NXZ 00418730 f i win32_main.obj
 0001:00017740       ?do_always_noconv@codecvt_base@std@@MBE_NXZ 00418740 f i win32_main.obj
 0001:00017750       ?do_encoding@codecvt_base@std@@MBEHXZ 00418750 f i win32_main.obj
 0001:00017770       ?do_in@?$codecvt@DDU_Mbstatet@@@std@@MBEHAAU_Mbstatet@@PBD1AAPBDPAD3AAPAD@Z 00418770 f i win32_main.obj
 0001:000177a0       ?do_length@?$codecvt@DDU_Mbstatet@@@std@@MBEHAAU_Mbstatet@@PBD1I@Z 004187a0 f i win32_main.obj
 0001:00017800       ?do_max_length@codecvt_base@std@@MBEHXZ 00418800 f i win32_main.obj
 0001:00017820       ?do_narrow@?$ctype@D@std@@MBEDDD@Z 00418820 f i win32_main.obj
 0001:00017840       ?do_narrow@?$ctype@D@std@@MBEPBDPBD0DPAD@Z 00418840 f i win32_main.obj
 0001:00017890       ?do_out@?$codecvt@DDU_Mbstatet@@@std@@MBEHAAU_Mbstatet@@PBD1AAPBDPAD3AAPAD@Z 00418890 f i win32_main.obj
 0001:000178c0       ?do_tolower@?$ctype@D@std@@MBEDD@Z 004188c0 f i win32_main.obj
 0001:000178f0       ?do_tolower@?$ctype@D@std@@MBEPBDPADPBD@Z 004188f0 f i win32_main.obj
 0001:00017960       ?do_toupper@?$ctype@D@std@@MBEDD@Z 00418960 f i win32_main.obj
 0001:00017990       ?do_toupper@?$ctype@D@std@@MBEPBDPADPBD@Z 00418990 f i win32_main.obj
 0001:00017a00       ?do_unshift@?$codecvt@DDU_Mbstatet@@@std@@MBEHAAU_Mbstatet@@PAD1AAPAD@Z 00418a00 f i win32_main.obj
 0001:00017a20       ?do_widen@?$ctype@D@std@@MBEDD@Z 00418a20 f i win32_main.obj
 0001:00017a40       ?do_widen@?$ctype@D@std@@MBEPBDPBD0PAD@Z 00418a40 f i win32_main.obj
 0001:00017a90       ?eback@?$basic_streambuf@DU?$char_traits@D@std@@@std@@IBEPADXZ 00418a90 f i win32_main.obj
 0001:00017ab0       ?egptr@?$basic_streambuf@DU?$char_traits@D@std@@@std@@IBEPADXZ 00418ab0 f i win32_main.obj
 0001:00017ae0       ?empty@?$basic_string@DU?$char_traits@D@std@@V?$allocator@D@2@@std@@QBE_NXZ 00418ae0 f i win32_main.obj
 0001:00017b20       ?eof@?$_Narrow_char_traits@DH@std@@SAHXZ 00418b20 f i win32_main.obj
 0001:00017b30       ?epptr@?$basic_streambuf@DU?$char_traits@D@std@@@std@@IBEPADXZ 00418b30 f i win32_main.obj
 0001:00017b60       ?eq@?$_Narrow_char_traits@DH@std@@SA_NABD0@Z 00418b60 f i win32_main.obj
 0001:00017ba0       ?eq_int_type@?$_Narrow_char_traits@DH@std@@SA_NABH0@Z 00418ba0 f i win32_main.obj
 0001:00017bd0       ?equivalent@error_category@std@@UBE_NABVerror_code@2@H@Z 00418bd0 f i win32_main.obj
 0001:00017c30       ?equivalent@error_category@std@@UBE_NHABVerror_condition@2@@Z 00418c30 f i win32_main.obj
 0001:00017c80       ?erase@?$basic_string@DU?$char_traits@D@std@@V?$allocator@D@2@@std@@QAEAAV12@II@Z 00418c80 f i win32_main.obj
 0001:00017cc0       ?fill@?$basic_ios@DU?$char_traits@D@std@@@std@@QBEDXZ 00418cc0 f i win32_main.obj
 0001:00017ce0       ?flags@ios_base@std@@QBEHXZ 00418ce0 f i win32_main.obj
 0001:00017d00       ?flush@?$basic_ostream@DU?$char_traits@D@std@@@std@@QAEAAV12@XZ 00418d00 f i win32_main.obj
 0001:00017de0       ?front@?$basic_string@DU?$char_traits@D@std@@V?$allocator@D@2@@std@@QAEAADXZ 00418de0 f i win32_main.obj
 0001:00017e80       ?gbump@?$basic_streambuf@DU?$char_traits@D@std@@@std@@IAEXH@Z 00418e80 f i win32_main.obj
 0001:00017ec0       ?get@shader@@QAEPAPBDXZ    00418ec0 f i win32_main.obj
 0001:00017f00       ?getFrequencyClock@@YA?AT_LARGE_INTEGER@@XZ 00418f00 f i win32_main.obj
 0001:00017f20       ?getSecondsElapsed@@YAMT_LARGE_INTEGER@@0@Z 00418f20 f i win32_main.obj
 0001:00017f80       ?getloc@?$basic_streambuf@DU?$char_traits@D@std@@@std@@QBE?AVlocale@2@XZ 00418f80 f i win32_main.obj
 0001:00017fc0       ?getloc@ios_base@std@@QBE?AVlocale@2@XZ 00418fc0 f i win32_main.obj
 0001:00018000       ?good@ios_base@std@@QBE_NXZ 00419000 f i win32_main.obj
 0001:00018040       ?gptr@?$basic_streambuf@DU?$char_traits@D@std@@@std@@IBEPADXZ 00419040 f i win32_main.obj
 0001:00018060       ?imbue@?$basic_filebuf@DU?$char_traits@D@std@@@std@@MAEXABVlocale@2@@Z 00419060 f i win32_main.obj
 0001:00018090       ?imbue@?$basic_streambuf@DU?$char_traits@D@std@@@std@@MAEXABVlocale@2@@Z 00419090 f i win32_main.obj
 0001:000180a0       ?in@?$codecvt@DDU_Mbstatet@@@std@@QBEHAAU_Mbstatet@@PBD1AAPBDPAD3AAPAD@Z 004190a0 f i win32_main.obj
 0001:000180f0       ?init@?$basic_ios@DU?$char_traits@D@std@@@std@@IAEXPAV?$basic_streambuf@DU?$char_traits@D@std@@@2@_N@Z 004190f0 f i win32_main.obj
 0001:00018170       ?iostream_category@std@@YAABVerror_category@1@XZ 00419170 f i win32_main.obj
 0001:00018180       ?is_open@?$basic_filebuf@DU?$char_traits@D@std@@@std@@QBE_NXZ 00419180 f i win32_main.obj
 0001:000181b0       ?is_open@?$basic_ifstream@DU?$char_traits@D@std@@@std@@QBE_NXZ 004191b0 f i win32_main.obj
 0001:000181d0       ?length@?$_Narrow_char_traits@DH@std@@SAIQBD@Z 004191d0 f i win32_main.obj
 0001:00018220       ?make_error_code@std@@YA?AVerror_code@1@W4io_errc@1@@Z 00419220 f i win32_main.obj
 0001:00018240       ?max@?$numeric_limits@H@std@@SAHXZ 00419240 f i win32_main.obj
 0001:00018250       ?max_size@?$_Default_allocator_traits@V?$allocator@D@std@@@std@@SAIABV?$allocator@D@2@@Z 00419250 f i win32_main.obj
 0001:00018260       ?max_size@?$basic_string@DU?$char_traits@D@std@@V?$allocator@D@2@@std@@QBEIXZ 00419260 f i win32_main.obj
 0001:000182e0       ?message@_Iostream_error_category2@std@@UBE?AV?$basic_string@DU?$char_traits@D@std@@V?$allocator@D@2@@2@H@Z 004192e0 f i win32_main.obj
 0001:00018360       ?message@error_code@std@@QBE?AV?$basic_string@DU?$char_traits@D@std@@V?$allocator@D@2@@2@XZ 00419360 f i win32_main.obj
 0001:000183d0       ?move@?$_Char_traits@DH@std@@SAPADQADQBDI@Z 004193d0 f i win32_main.obj
 0001:00018400       ?name@_Iostream_error_category2@std@@UBEPBDXZ 00419400 f i win32_main.obj
 0001:00018420       ?not_eof@?$_Narrow_char_traits@DH@std@@SAHABH@Z 00419420 f i win32_main.obj
 0001:00018480       ?open@?$basic_filebuf@DU?$char_traits@D@std@@@std@@QAEPAV12@PBDHH@Z 00419480 f i win32_main.obj
 0001:00018570       ?open@?$basic_ifstream@DU?$char_traits@D@std@@@std@@QAEXABV?$basic_string@DU?$char_traits@D@std@@V?$allocator@D@2@@2@HH@Z 00419570 f i win32_main.obj
 0001:000185a0       ?open@?$basic_ifstream@DU?$char_traits@D@std@@@std@@QAEXPBDHH@Z 004195a0 f i win32_main.obj
 0001:00018630       ?out@?$codecvt@DDU_Mbstatet@@@std@@QBEHAAU_Mbstatet@@PBD1AAPBDPAD3AAPAD@Z 00419630 f i win32_main.obj
 0001:00018680       ?overflow@?$basic_filebuf@DU?$char_traits@D@std@@@std@@MAEHH@Z 00419680 f i win32_main.obj
 0001:000188e0       ?overflow@?$basic_streambuf@DU?$char_traits@D@std@@@std@@MAEHH@Z 004198e0 f i win32_main.obj
 0001:00018900       ?overflow@?$basic_stringbuf@DU?$char_traits@D@std@@V?$allocator@D@2@@std@@MAEHH@Z 00419900 f i win32_main.obj
 0001:00018ba0       ?pbackfail@?$basic_filebuf@DU?$char_traits@D@std@@@std@@MAEHH@Z 00419ba0 f i win32_main.obj
 0001:00018d50       ?pbackfail@?$basic_streambuf@DU?$char_traits@D@std@@@std@@MAEHH@Z 00419d50 f i win32_main.obj
 0001:00018d70       ?pbackfail@?$basic_stringbuf@DU?$char_traits@D@std@@V?$allocator@D@2@@std@@MAEHH@Z 00419d70 f i win32_main.obj
 0001:00018e90       ?pbase@?$basic_streambuf@DU?$char_traits@D@std@@@std@@IBEPADXZ 00419e90 f i win32_main.obj
 0001:00018eb0       ?pbump@?$basic_streambuf@DU?$char_traits@D@std@@@std@@IAEXH@Z 00419eb0 f i win32_main.obj
 0001:00018ef0       ?pointer_to@?$pointer_traits@PAD@std@@SAPADAAD@Z 00419ef0 f i win32_main.obj
 0001:00018f10       ?pptr@?$basic_streambuf@DU?$char_traits@D@std@@@std@@IBEPADXZ 00419f10 f i win32_main.obj
 0001:00018f30       ?pubsync@?$basic_streambuf@DU?$char_traits@D@std@@@std@@QAEHXZ 00419f30 f i win32_main.obj
 0001:00018f50       ?push_back@?$basic_string@DU?$char_traits@D@std@@V?$allocator@D@2@@std@@QAEXD@Z 00419f50 f i win32_main.obj
 0001:00019000       ?put@?$basic_ostream@DU?$char_traits@D@std@@@std@@QAEAAV12@D@Z 0041a000 f i win32_main.obj
 0001:00019190       ?rdbuf@?$basic_ifstream@DU?$char_traits@D@std@@@std@@QBEPAV?$basic_filebuf@DU?$char_traits@D@std@@@2@XZ 0041a190 f i win32_main.obj
 0001:000191b0       ?rdbuf@?$basic_ios@DU?$char_traits@D@std@@@std@@QBEPAV?$basic_streambuf@DU?$char_traits@D@std@@@2@XZ 0041a1b0 f i win32_main.obj
 0001:000191d0       ?rdstate@ios_base@std@@QBEHXZ 0041a1d0 f i win32_main.obj
 0001:000191f0       ?read@shader@@QAEXXZ       0041a1f0 f i win32_main.obj
 0001:00019340       ?release@?$unique_ptr@V_Facet_base@std@@U?$default_delete@V_Facet_base@std@@@2@@std@@QAEPAV_Facet_base@2@XZ 0041a340 f i win32_main.obj
 0001:00019370       ?sbumpc@?$basic_streambuf@DU?$char_traits@D@std@@@std@@QAEHXZ 0041a370 f i win32_main.obj
 0001:000193e0       ?seekoff@?$basic_filebuf@DU?$char_traits@D@std@@@std@@MAE?AV?$fpos@U_Mbstatet@@@2@_JHH@Z 0041a3e0 f i win32_main.obj
 0001:000194f0       ?seekoff@?$basic_streambuf@DU?$char_traits@D@std@@@std@@MAE?AV?$fpos@U_Mbstatet@@@2@_JHH@Z 0041a4f0 f i win32_main.obj
 0001:00019520       ?seekoff@?$basic_stringbuf@DU?$char_traits@D@std@@V?$allocator@D@2@@std@@MAE?AV?$fpos@U_Mbstatet@@@2@_JHH@Z 0041a520 f i win32_main.obj
 0001:000197b0       ?seekpos@?$basic_filebuf@DU?$char_traits@D@std@@@std@@MAE?AV?$fpos@U_Mbstatet@@@2@V32@H@Z 0041a7b0 f i win32_main.obj
 0001:00019880       ?seekpos@?$basic_streambuf@DU?$char_traits@D@std@@@std@@MAE?AV?$fpos@U_Mbstatet@@@2@V32@H@Z 0041a880 f i win32_main.obj
 0001:000198b0       ?seekpos@?$basic_stringbuf@DU?$char_traits@D@std@@V?$allocator@D@2@@std@@MAE?AV?$fpos@U_Mbstatet@@@2@V32@H@Z 0041a8b0 f i win32_main.obj
 0001:00019a50       ?select_on_container_copy_construction@?$_Default_allocator_traits@V?$allocator@D@std@@@std@@SA?AV?$allocator@D@2@ABV32@@Z 0041aa50 f i win32_main.obj
 0001:00019a60       ?setbuf@?$basic_filebuf@DU?$char_traits@D@std@@@std@@MAEPAV?$basic_streambuf@DU?$char_traits@D@std@@@2@PAD_J@Z 0041aa60 f i win32_main.obj
 0001:00019af0       ?setbuf@?$basic_streambuf@DU?$char_traits@D@std@@@std@@MAEPAV12@PAD_J@Z 0041aaf0 f i win32_main.obj
 0001:00019b10       ?setg@?$basic_streambuf@DU?$char_traits@D@std@@@std@@IAEXPAD00@Z 0041ab10 f i win32_main.obj
 0001:00019b50       ?setp@?$basic_streambuf@DU?$char_traits@D@std@@@std@@IAEXPAD00@Z 0041ab50 f i win32_main.obj
 0001:00019b90       ?setp@?$basic_streambuf@DU?$char_traits@D@std@@@std@@IAEXPAD0@Z 0041ab90 f i win32_main.obj
 0001:00019bd0       ?setstate@?$basic_ios@DU?$char_traits@D@std@@@std@@QAEXH_N@Z 0041abd0 f i win32_main.obj
 0001:00019c00       ?sgetc@?$basic_streambuf@DU?$char_traits@D@std@@@std@@QAEHXZ 0041ac00 f i win32_main.obj
 0001:00019c70       ?showmanyc@?$basic_streambuf@DU?$char_traits@D@std@@@std@@MAE_JXZ 0041ac70 f i win32_main.obj
 0001:00019c90       ?size@?$basic_string@DU?$char_traits@D@std@@V?$allocator@D@2@@std@@QBEIXZ 0041ac90 f i win32_main.obj
 0001:00019cb0       ?snextc@?$basic_streambuf@DU?$char_traits@D@std@@@std@@QAEHXZ 0041acb0 f i win32_main.obj
 0001:00019d60       ?sputc@?$basic_streambuf@DU?$char_traits@D@std@@@std@@QAEHD@Z 0041ad60 f i win32_main.obj
 0001:00019e00       ?sputn@?$basic_streambuf@DU?$char_traits@D@std@@@std@@QAE_JPBD_J@Z 0041ae00 f i win32_main.obj
 0001:00019e40       ?state@?$fpos@U_Mbstatet@@@std@@QBE?AU_Mbstatet@@XZ 0041ae40 f i win32_main.obj
 0001:00019e70       ?str@?$basic_stringbuf@DU?$char_traits@D@std@@V?$allocator@D@2@@std@@QBE?AV?$basic_string@DU?$char_traits@D@std@@V?$allocator@D@2@@2@XZ 0041ae70 f i win32_main.obj
 0001:00019f50       ?str@?$basic_stringstream@DU?$char_traits@D@std@@V?$allocator@D@2@@std@@QBE?AV?$basic_string@DU?$char_traits@D@std@@V?$allocator@D@2@@2@XZ 0041af50 f i win32_main.obj
 0001:00019fa0       ?sync@?$basic_filebuf@DU?$char_traits@D@std@@@std@@MAEHXZ 0041afa0 f i win32_main.obj
 0001:0001a030       ?sync@?$basic_streambuf@DU?$char_traits@D@std@@@std@@MAEHXZ 0041b030 f i win32_main.obj
 0001:0001a040       ?tie@?$basic_ios@DU?$char_traits@D@std@@@std@@QBEPAV?$basic_ostream@DU?$char_traits@D@std@@@2@XZ 0041b040 f i win32_main.obj
 0001:0001a060       ?to_char_type@?$_Narrow_char_traits@DH@std@@SADABH@Z 0041b060 f i win32_main.obj
 0001:0001a070       ?to_int_type@?$_Narrow_char_traits@DH@std@@SAHABD@Z 0041b070 f i win32_main.obj
 0001:0001a080       ?to_string@std@@YA?AV?$basic_string@DU?$char_traits@D@std@@V?$allocator@D@2@@1@M@Z 0041b080 f i win32_main.obj
 0001:0001a0d0       ?to_string@std@@YA?AV?$basic_string@DU?$char_traits@D@std@@V?$allocator@D@2@@1@N@Z 0041b0d0 f i win32_main.obj
 0001:0001a1a0       ?uflow@?$basic_filebuf@DU?$char_traits@D@std@@@std@@MAEHXZ 0041b1a0 f i win32_main.obj
 0001:0001a4c0       ?uflow@?$basic_streambuf@DU?$char_traits@D@std@@@std@@MAEHXZ 0041b4c0 f i win32_main.obj
 0001:0001a540       ?underflow@?$basic_filebuf@DU?$char_traits@D@std@@@std@@MAEHXZ 0041b540 f i win32_main.obj
 0001:0001a600       ?underflow@?$basic_streambuf@DU?$char_traits@D@std@@@std@@MAEHXZ 0041b600 f i win32_main.obj
 0001:0001a620       ?underflow@?$basic_stringbuf@DU?$char_traits@D@std@@V?$allocator@D@2@@std@@MAEHXZ 0041b620 f i win32_main.obj
 0001:0001a730       ?unshift@?$codecvt@DDU_Mbstatet@@@std@@QBEHAAU_Mbstatet@@PAD1AAPAD@Z 0041b730 f i win32_main.obj
 0001:0001a770       ?value@error_code@std@@QBEHXZ 0041b770 f i win32_main.obj
 0001:0001a790       ?value@error_condition@std@@QBEHXZ 0041b790 f i win32_main.obj
 0001:0001a7b0       ?what@exception@std@@UBEPBDXZ 0041b7b0 f i win32_main.obj
 0001:0001a7f0       ?widen@?$basic_ios@DU?$char_traits@D@std@@@std@@QBEDD@Z 0041b7f0 f i win32_main.obj
 0001:0001a8a0       ?widen@?$ctype@D@std@@QBEDD@Z 0041b8a0 f i win32_main.obj
 0001:0001a8d0       ?width@ios_base@std@@QAE_J_J@Z 0041b8d0 f i win32_main.obj
 0001:0001a910       ?width@ios_base@std@@QBE_JXZ 0041b910 f i win32_main.obj
 0001:0001a930       ?xsgetn@?$basic_filebuf@DU?$char_traits@D@std@@@std@@MAE_JPAD_J@Z 0041b930 f i win32_main.obj
 0001:0001aaf0       ?xsgetn@?$basic_streambuf@DU?$char_traits@D@std@@@std@@MAE_JPAD_J@Z 0041baf0 f i win32_main.obj
 0001:0001ac60       ?xsputn@?$basic_filebuf@DU?$char_traits@D@std@@@std@@MAE_JPBD_J@Z 0041bc60 f i win32_main.obj
 0001:0001adc0       ?xsputn@?$basic_streambuf@DU?$char_traits@D@std@@@std@@MAE_JPBD_J@Z 0041bdc0 f i win32_main.obj
 0001:0001af30       ___local_stdio_printf_options 0041bf30 f i win32_main.obj
 0001:0001af40       __scprintf                 0041bf40 f i win32_main.obj
 0001:0001af80       __vscprintf_l              0041bf80 f i win32_main.obj
 0001:0001afe0       __vsprintf_s_l             0041bfe0 f i win32_main.obj
 0001:0001b040       _sprintf_s                 0041c040 f i win32_main.obj
 0001:0001b084       _TranslateMessage@4        0041c084 f   user32:USER32.dll
 0001:0001b08a       _DispatchMessageA@4        0041c08a f   user32:USER32.dll
 0001:0001b090       _PeekMessageA@20           0041c090 f   user32:USER32.dll
 0001:0001b096       _DefWindowProcA@16         0041c096 f   user32:USER32.dll
 0001:0001b09c       _RegisterClassA@4          0041c09c f   user32:USER32.dll
 0001:0001b0a2       _CreateWindowExA@48        0041c0a2 f   user32:USER32.dll
 0001:0001b0a8       _GetDC@4                   0041c0a8 f   user32:USER32.dll
 0001:0001b0ae       _SetWindowTextA@8          0041c0ae f   user32:USER32.dll
 0001:0001b0b4       _SetCursor@4               0041c0b4 f   user32:USER32.dll
 0001:0001b0ba       _LoadCursorA@8             0041c0ba f   user32:USER32.dll
 0001:0001b0c0       _ChoosePixelFormat@8       0041c0c0 f   gdi32:GDI32.dll
 0001:0001b0c6       _SetPixelFormat@12         0041c0c6 f   gdi32:GDI32.dll
 0001:0001b0cc       _SwapBuffers@4             0041c0cc f   gdi32:GDI32.dll
 0001:0001b0d2       _timeBeginPeriod@4         0041c0d2 f   winmm:WINMM.dll
 0001:0001b0d8       _timeEndPeriod@4           0041c0d8 f   winmm:WINMM.dll
 0001:0001b0de       _glewInit@0                0041c0de f   glew32:glew32.dll
 0001:0001b0e4       _wglCreateContext@4        0041c0e4 f   Opengl32:OPENGL32.dll
 0001:0001b0ea       _wglMakeCurrent@8          0041c0ea f   Opengl32:OPENGL32.dll
 0001:0001b0f0       _glClear@4                 0041c0f0 f   Opengl32:OPENGL32.dll
 0001:0001b0f6       _glClearColor@16           0041c0f6 f   Opengl32:OPENGL32.dll
 0001:0001b0fc       _glDrawArrays@12           0041c0fc f   Opengl32:OPENGL32.dll
 0001:0001b110       ??0_Init_locks@std@@QAE@XZ 0041c110 f   libcpmtd:xlock.obj
 0001:0001b190       ??0_Lockit@std@@QAE@H@Z    0041c190 f   libcpmtd:xlock.obj
 0001:0001b1f0       ??0_Lockit@std@@QAE@XZ     0041c1f0 f   libcpmtd:xlock.obj
 0001:0001b240       ??1_Init_locks@std@@QAE@XZ 0041c240 f   libcpmtd:xlock.obj
 0001:0001b2c0       ??1_Lockit@std@@QAE@XZ     0041c2c0 f   libcpmtd:xlock.obj
 0001:0001b310       ?_Init_locks_ctor@_Init_locks@std@@CAXPAV12@@Z 0041c310 f   libcpmtd:xlock.obj
 0001:0001b380       ?_Init_locks_dtor@_Init_locks@std@@CAXPAV12@@Z 0041c380 f   libcpmtd:xlock.obj
 0001:0001b3f0       ?_Lockit_ctor@_Lockit@std@@CAXPAV12@@Z 0041c3f0 f   libcpmtd:xlock.obj
 0001:0001b420       ?_Lockit_ctor@_Lockit@std@@CAXPAV12@H@Z 0041c420 f   libcpmtd:xlock.obj
 0001:0001b460       ?_Lockit_ctor@_Lockit@std@@SAXH@Z 0041c460 f   libcpmtd:xlock.obj
 0001:0001b4a0       ?_Lockit_dtor@_Lockit@std@@CAXPAV12@@Z 0041c4a0 f   libcpmtd:xlock.obj
 0001:0001b4c0       ?_Lockit_dtor@_Lockit@std@@SAXH@Z 0041c4c0 f   libcpmtd:xlock.obj
 0001:0001b500       __Lock_at_thread_exit_mutex 0041c500 f   libcpmtd:xlock.obj
 0001:0001b530       __Unlock_at_thread_exit_mutex 0041c530 f   libcpmtd:xlock.obj
 0001:0001b560       ??0bad_alloc@std@@QAE@XZ   0041c560 f i libcpmtd:xthrow.obj
 0001:0001b590       ??0bad_function_call@std@@QAE@ABV01@@Z 0041c590 f i libcpmtd:xthrow.obj
 0001:0001b5c0       ??0bad_function_call@std@@QAE@XZ 0041c5c0 f i libcpmtd:xthrow.obj
 0001:0001b5f0       ??0exception@std@@QAE@XZ   0041c5f0 f i libcpmtd:xthrow.obj
 0001:0001b620       ??0invalid_argument@std@@QAE@ABV01@@Z 0041c620 f i libcpmtd:xthrow.obj
 0001:0001b650       ??0invalid_argument@std@@QAE@PBD@Z 0041c650 f i libcpmtd:xthrow.obj
 0001:0001b680       ??0length_error@std@@QAE@ABV01@@Z 0041c680 f i libcpmtd:xthrow.obj
 0001:0001b6b0       ??0length_error@std@@QAE@PBD@Z 0041c6b0 f i libcpmtd:xthrow.obj
 0001:0001b6e0       ??0logic_error@std@@QAE@ABV01@@Z 0041c6e0 f i libcpmtd:xthrow.obj
 0001:0001b710       ??0logic_error@std@@QAE@PBD@Z 0041c710 f i libcpmtd:xthrow.obj
 0001:0001b740       ??0out_of_range@std@@QAE@ABV01@@Z 0041c740 f i libcpmtd:xthrow.obj
 0001:0001b770       ??0out_of_range@std@@QAE@PBD@Z 0041c770 f i libcpmtd:xthrow.obj
 0001:0001b7a0       ??0overflow_error@std@@QAE@ABV01@@Z 0041c7a0 f i libcpmtd:xthrow.obj
 0001:0001b7d0       ??0overflow_error@std@@QAE@PBD@Z 0041c7d0 f i libcpmtd:xthrow.obj
 0001:0001b800       ??0regex_error@std@@QAE@ABV01@@Z 0041c800 f i libcpmtd:xthrow.obj
 0001:0001b840       ??0regex_error@std@@QAE@W4error_type@regex_constants@1@@Z 0041c840 f i libcpmtd:xthrow.obj
 0001:0001b890       ??1bad_function_call@std@@UAE@XZ 0041c890 f i libcpmtd:xthrow.obj
 0001:0001b8b0       ??1invalid_argument@std@@UAE@XZ 0041c8b0 f i libcpmtd:xthrow.obj
 0001:0001b8d0       ??1length_error@std@@UAE@XZ 0041c8d0 f i libcpmtd:xthrow.obj
 0001:0001b8f0       ??1logic_error@std@@UAE@XZ 0041c8f0 f i libcpmtd:xthrow.obj
 0001:0001b910       ??1out_of_range@std@@UAE@XZ 0041c910 f i libcpmtd:xthrow.obj
 0001:0001b930       ??1overflow_error@std@@UAE@XZ 0041c930 f i libcpmtd:xthrow.obj
 0001:0001b950       ??1regex_error@std@@UAE@XZ 0041c950 f i libcpmtd:xthrow.obj
 0001:0001b970       ??_Ebad_function_call@std@@UAEPAXI@Z 0041c970 f i libcpmtd:xthrow.obj
 0001:0001b970       ??_Gbad_function_call@std@@UAEPAXI@Z 0041c970 f i libcpmtd:xthrow.obj
 0001:0001b9b0       ??_Einvalid_argument@std@@UAEPAXI@Z 0041c9b0 f i libcpmtd:xthrow.obj
 0001:0001b9b0       ??_Ginvalid_argument@std@@UAEPAXI@Z 0041c9b0 f i libcpmtd:xthrow.obj
 0001:0001b9f0       ??_Glength_error@std@@UAEPAXI@Z 0041c9f0 f i libcpmtd:xthrow.obj
 0001:0001b9f0       ??_Elength_error@std@@UAEPAXI@Z 0041c9f0 f i libcpmtd:xthrow.obj
 0001:0001ba30       ??_Elogic_error@std@@UAEPAXI@Z 0041ca30 f i libcpmtd:xthrow.obj
 0001:0001ba30       ??_Glogic_error@std@@UAEPAXI@Z 0041ca30 f i libcpmtd:xthrow.obj
 0001:0001ba70       ??_Eout_of_range@std@@UAEPAXI@Z 0041ca70 f i libcpmtd:xthrow.obj
 0001:0001ba70       ??_Gout_of_range@std@@UAEPAXI@Z 0041ca70 f i libcpmtd:xthrow.obj
 0001:0001bab0       ??_Goverflow_error@std@@UAEPAXI@Z 0041cab0 f i libcpmtd:xthrow.obj
 0001:0001bab0       ??_Eoverflow_error@std@@UAEPAXI@Z 0041cab0 f i libcpmtd:xthrow.obj
 0001:0001baf0       ??_Eregex_error@std@@UAEPAXI@Z 0041caf0 f i libcpmtd:xthrow.obj
 0001:0001baf0       ??_Gregex_error@std@@UAEPAXI@Z 0041caf0 f i libcpmtd:xthrow.obj
 0001:0001bb30       ?_Stringify@regex_error@std@@CAPBDW4error_type@regex_constants@2@@Z 0041cb30 f i libcpmtd:xthrow.obj
 0001:0001bc30       ?_Xbad_alloc@std@@YAXXZ    0041cc30 f   libcpmtd:xthrow.obj
 0001:0001bc60       ?_Xbad_function_call@std@@YAXXZ 0041cc60 f   libcpmtd:xthrow.obj
 0001:0001bc90       ?_Xinvalid_argument@std@@YAXPBD@Z 0041cc90 f   libcpmtd:xthrow.obj
 0001:0001bcc0       ?_Xlength_error@std@@YAXPBD@Z 0041ccc0 f   libcpmtd:xthrow.obj
 0001:0001bcf0       ?_Xout_of_range@std@@YAXPBD@Z 0041ccf0 f   libcpmtd:xthrow.obj
 0001:0001bd20       ?_Xoverflow_error@std@@YAXPBD@Z 0041cd20 f   libcpmtd:xthrow.obj
 0001:0001bd50       ?_Xregex_error@std@@YAXW4error_type@regex_constants@1@@Z 0041cd50 f   libcpmtd:xthrow.obj
 0001:0001bd80       ?_Xruntime_error@std@@YAXPBD@Z 0041cd80 f   libcpmtd:xthrow.obj
 0001:0001bdb0       ?what@bad_function_call@std@@UBEPBDXZ 0041cdb0 f i libcpmtd:xthrow.obj
 0001:0001bdd0       ?uncaught_exception@std@@YA_NXZ 0041cdd0 f   libcpmtd:uncaught_exception.obj
 0001:0001bde0       ?_Syserror_map@std@@YAPBDH@Z 0041cde0 f   libcpmtd:syserror.obj
 0001:0001be50       ?_Winerror_map@std@@YAHH@Z 0041ce50 f   libcpmtd:syserror.obj
 0001:0001bec0       ?_Winerror_message@std@@YAKKPADK@Z 0041cec0 f   libcpmtd:syserror.obj
 0001:0001bf10       ??0?$_Yarn@D@std@@QAE@PBD@Z 0041cf10 f i libcpmtd:locale0.obj
 0001:0001bf50       ??0_Fac_node@std@@QAE@PAU01@PAV_Facet_base@1@@Z 0041cf50 f i libcpmtd:locale0.obj
 0001:0001bf80       ??0_Locimp@locale@std@@AAE@ABV012@@Z 0041cf80 f i libcpmtd:locale0.obj
 0001:0001c070       ??0_Locimp@locale@std@@AAE@_N@Z 0041d070 f i libcpmtd:locale0.obj
 0001:0001c0f0       ??0locale@std@@AAE@PAV_Locimp@01@@Z 0041d0f0 f i libcpmtd:locale0.obj
 0001:0001c110       ??0locale@std@@QAE@W4_Uninitialized@1@@Z 0041d110 f i libcpmtd:locale0.obj
 0001:0001c130       ??1_Fac_node@std@@QAE@XZ   0041d130 f i libcpmtd:locale0.obj
 0001:0001c1b0       ??1_Fac_tidy_reg_t@std@@QAE@XZ 0041d1b0 f i libcpmtd:locale0.obj
 0001:0001c210       ??1_Locimp@locale@std@@MAE@XZ 0041d210 f i libcpmtd:locale0.obj
 0001:0001c290       ??2_Fac_node@std@@SAPAXI@Z 0041d290 f i libcpmtd:locale0.obj
 0001:0001c2f0       ??3_Fac_node@std@@SAXPAX@Z 0041d2f0 f i libcpmtd:locale0.obj
 0001:0001c310       ??4?$_Yarn@D@std@@QAEAAV01@PBD@Z 0041d310 f i libcpmtd:locale0.obj
 0001:0001c3d0       ??_G_Fac_node@std@@QAEPAXI@Z 0041d3d0 f i libcpmtd:locale0.obj
 0001:0001c430       ??_E_Locimp@locale@std@@MAEPAXI@Z 0041d430 f i libcpmtd:locale0.obj
 0001:0001c430       ??_G_Locimp@locale@std@@MAEPAXI@Z 0041d430 f i libcpmtd:locale0.obj
 0001:0001c490       ?_C_str@?$_Yarn@D@std@@QBEPBDXZ 0041d490 f i libcpmtd:locale0.obj
 0001:0001c4d0       ?_Empty@?$_Yarn@D@std@@QBE_NXZ 0041d4d0 f i libcpmtd:locale0.obj
 0001:0001c510       ?_Facet_Register@std@@YAXPAV_Facet_base@1@@Z 0041d510 f   libcpmtd:locale0.obj
 0001:0001c5c0       ?_Getgloballocale@locale@std@@CAPAV_Locimp@12@XZ 0041d5c0 f   libcpmtd:locale0.obj
 0001:0001c5d0       ?_Init@locale@std@@CAPAV_Locimp@12@_N@Z 0041d5d0 f   libcpmtd:locale0.obj
 0001:0001c720       ?_Locimp_dtor@_Locimp@locale@std@@CAXPAV123@@Z 0041d720 f   libcpmtd:locale0.obj
 0001:0001c820       ?_Locinfo_ctor@_Locinfo@std@@SAXPAV12@PBD@Z 0041d820 f   libcpmtd:locale0.obj
 0001:0001c8c0       ?_Locinfo_dtor@_Locinfo@std@@SAXPAV12@@Z 0041d8c0 f   libcpmtd:locale0.obj
 0001:0001c900       ?_New_Locimp@_Locimp@locale@std@@CAPAV123@ABV123@@Z 0041d900 f   libcpmtd:locale0.obj
 0001:0001c9a0       ?_New_Locimp@_Locimp@locale@std@@CAPAV123@_N@Z 0041d9a0 f   libcpmtd:locale0.obj
 0001:0001ca40       ?_Setgloballocale@locale@std@@CAXPAX@Z 0041da40 f   libcpmtd:locale0.obj
 0001:0001ca80       ?classic@locale@std@@SAABV12@XZ 0041da80 f   libcpmtd:locale0.obj
 0001:0001caa0       ?empty@locale@std@@SA?AV12@XZ 0041daa0 f   libcpmtd:locale0.obj
 0001:0001caf0       __Deletegloballocale       0041daf0 f   libcpmtd:locale0.obj
 0001:0001cbc0       __Getctype                 0041dbc0 f   libcpmtd:_tolower.obj
 0001:0001cca0       __Tolower                  0041dca0 f   libcpmtd:_tolower.obj
 0001:0001cf10       __Toupper                  0041df10 f   libcpmtd:_toupper.obj
 0001:0001d180       ?_Addstd@ios_base@std@@SAXPAV12@@Z 0041e180 f   libcpmtd:ios.obj
 0001:0001d240       ?_Callfns@ios_base@std@@AAEXW4event@12@@Z 0041e240 f i libcpmtd:ios.obj
 0001:0001d2b0       ?_Ios_base_dtor@ios_base@std@@CAXPAV12@@Z 0041e2b0 f   libcpmtd:ios.obj
 0001:0001d340       ?_Tidy@ios_base@std@@AAEXXZ 0041e340 f i libcpmtd:ios.obj
 0001:0001d430       ??$_Xfiopen@D@std@@YAPAU_iobuf@@PBDHH@Z 0041e430 f i libcpmtd:fiopen.obj
 0001:0001d5c0       ??$_Xfiopen@_W@std@@YAPAU_iobuf@@PB_WHH@Z 0041e5c0 f i libcpmtd:fiopen.obj
 0001:0001d750       ?_Fiopen@std@@YAPAU_iobuf@@PBDHH@Z 0041e750 f   libcpmtd:fiopen.obj
 0001:0001d770       ?_Fiopen@std@@YAPAU_iobuf@@PBGHH@Z 0041e770 f   libcpmtd:fiopen.obj
 0001:0001d790       ?_Fiopen@std@@YAPAU_iobuf@@PB_WHH@Z 0041e790 f   libcpmtd:fiopen.obj
 0001:0001d7b0       ?_Xfsopen@std@@YAPAU_iobuf@@PBDHH@Z 0041e7b0 f   libcpmtd:fiopen.obj
 0001:0001d7e0       ?_Xfsopen@std@@YAPAU_iobuf@@PB_WHH@Z 0041e7e0 f   libcpmtd:fiopen.obj
 0001:0001d810       ??$_Reallocate_for@V<lambda_1>@?1??assign@?$basic_string@DU?$char_traits@D@std@@V?$allocator@D@2@@std@@QAEAAV34@QBDI@Z@PBD@?$basic_string@DU?$char_traits@D@std@@V?$allocator@D@2@@std@@AAEAAV01@IV<lambda_1>@?1??assign@01@QAEAAV01@QBDI@Z@PBD@Z 0041e810 f i libcpmtd:cout.obj
 0001:0001d950       ??$_Reallocate_grow_by@V<lambda_1>@?1??append@?$basic_string@DU?$char_traits@D@std@@V?$allocator@D@2@@std@@QAEAAV34@QBDI@Z@PBDI@?$basic_string@DU?$char_traits@D@std@@V?$allocator@D@2@@std@@AAEAAV01@IV<lambda_1>@?1??append@01@QAEAAV01@QBDI@Z@PBDI@Z 0041e950 f i libcpmtd:cout.obj
 0001:0001daf0       ??$_Reallocate_grow_by@V<lambda_1>@?1??push_back@?$basic_string@DU?$char_traits@D@std@@V?$allocator@D@2@@std@@QAEXD@Z@D@?$basic_string@DU?$char_traits@D@std@@V?$allocator@D@2@@std@@AAEAAV01@IV<lambda_1>@?1??push_back@01@QAEXD@Z@D@Z 0041eaf0 f i libcpmtd:cout.obj
 0001:0001dc90       ??$_Voidify_iter@PAD@std@@YAPAXPAD@Z 0041ec90 f i libcpmtd:cout.obj
 0001:0001dca0       ??$construct_at@DABDX@std@@YAPADQADABD@Z 0041eca0 f i libcpmtd:cout.obj
 0001:0001dcf0       ??$construct_at@PADAAPADX@std@@YAPAPADQAPADAAPAD@Z 0041ecf0 f i libcpmtd:cout.obj
 0001:0001dd40       ??$construct_at@PADABQADX@std@@YAPAPADQAPADABQAD@Z 0041ed40 f i libcpmtd:cout.obj
 0001:0001dd90       ??$construct_at@U_Container_proxy@std@@PAU_Container_base12@2@X@std@@YAPAU_Container_proxy@0@QAU10@$$QAPAU_Container_base12@0@@Z 0041ed90 f i libcpmtd:cout.obj
 0001:0001ddf0       ??$forward@ABD@std@@YAABDABD@Z 0041edf0 f i libcpmtd:cout.obj
 0001:0001de00       ??0?$basic_filebuf@DU?$char_traits@D@std@@@std@@QAE@QAU_iobuf@@@Z 0041ee00 f i libcpmtd:cout.obj
 0001:0001de80       ??0?$basic_ostream@DU?$char_traits@D@std@@@std@@QAE@PAV?$basic_streambuf@DU?$char_traits@D@std@@@1@_N@Z 0041ee80 f i libcpmtd:cout.obj
 0001:0001df70       ??0_Init_cout@std@@QAE@XZ  0041ef70 f i libcpmtd:cout.obj
 0001:0001e040       ??R<lambda_1>@?1??append@?$basic_string@DU?$char_traits@D@std@@V?$allocator@D@2@@std@@QAEAAV23@QBDI@Z@QBE@QAD0I0I@Z 0041f040 f i libcpmtd:cout.obj
 0001:0001e0b0       ??R<lambda_1>@?1??assign@?$basic_string@DU?$char_traits@D@std@@V?$allocator@D@2@@std@@QAEAAV23@QBDI@Z@QBE@QADI0@Z 0041f0b0 f i libcpmtd:cout.obj
 0001:0001e100       ??R<lambda_1>@?1??push_back@?$basic_string@DU?$char_traits@D@std@@V?$allocator@D@2@@std@@QAEXD@Z@QBE@QADQBDID@Z 0041f100 f i libcpmtd:cout.obj
 0001:0001e170       ?assign@?$_Char_traits@DH@std@@SAPADQADID@Z 0041f170 f i libcpmtd:cout.obj
 0001:0001e210       ?deallocate@?$allocator@U_Container_proxy@std@@@std@@QAEXQAU_Container_proxy@2@I@Z 0041f210 f i libcpmtd:cout.obj
 0001:0001e240       ?is_constant_evaluated@std@@YA_NXZ 0041f240 f i libcpmtd:cout.obj
 0001:0001e250       ?tie@?$basic_ios@DU?$char_traits@D@std@@@std@@QAEPAV?$basic_ostream@DU?$char_traits@D@std@@@2@PAV32@@Z 0041f250 f i libcpmtd:cout.obj
 0001:0001e280       __Mtxdst                   0041f280 f   libcpmtd:xmtx.obj
 0001:0001e2a0       __Mtxinit                  0041f2a0 f   libcpmtd:xmtx.obj
 0001:0001e2c0       __Mtxlock                  0041f2c0 f   libcpmtd:xmtx.obj
 0001:0001e2e0       __Mtxunlock                0041f2e0 f   libcpmtd:xmtx.obj
 0001:0001e320       ___std_get_string_size_without_trailing_whitespace@8 0041f320 f   libcpmtd:syserror_import_lib.obj
 0001:0001e370       ___std_system_error_allocate_message@8 0041f370 f   libcpmtd:syserror_import_lib.obj
 0001:0001e3c0       ___std_system_error_deallocate_message@4 0041f3c0 f   libcpmtd:syserror_import_lib.obj
 0001:0001e3e0       ??$?0U?$integral_constant@_N$00@std@@@_Unused_parameter@std@@QAE@$$QAU?$integral_constant@_N$00@1@@Z 0041f3e0 f i libcpmtd:locale.obj
 0001:0001e400       ??$?8DU?$char_traits@D@std@@@std@@YA_NABV?$istreambuf_iterator@DU?$char_traits@D@std@@@0@0@Z 0041f400 f i libcpmtd:locale.obj
 0001:0001e420       ??$_Adl_verify_range@V?$istreambuf_iterator@DU?$char_traits@D@std@@@std@@V12@@std@@YAXABV?$istreambuf_iterator@DU?$char_traits@D@std@@@0@0@Z 0041f420 f i libcpmtd:locale.obj
 0001:0001e430       ??$_Find_elem@D$0BL@@std@@YAIAAY0BL@$$CBDD@Z 0041f430 f i libcpmtd:locale.obj
 0001:0001e460       ??$_Find_elem@D$0BN@@std@@YAIAAY0BN@$$CBDD@Z 0041f460 f i libcpmtd:locale.obj
 0001:0001e490       ??$_Find_elem@D$0P@@std@@YAIAAY0P@$$CBDD@Z 0041f490 f i libcpmtd:locale.obj
 0001:0001e4c0       ??$_Find_unchecked1@PBDD@std@@YAPBDPBDQBDABDU?$integral_constant@_N$00@0@@Z 0041f4c0 f i libcpmtd:locale.obj
 0001:0001e590       ??$_Find_unchecked1@PBDD@std@@YAPBDPBDQBDABDU?$integral_constant@_N$0A@@0@@Z 0041f590 f i libcpmtd:locale.obj
 0001:0001e5d0       ??$_Find_unchecked@PBDD@std@@YAPBDQBD0ABD@Z 0041f5d0 f i libcpmtd:locale.obj
 0001:0001e600       ??$_Float_put_desired_precision@N@std@@YAH_JH@Z 0041f600 f i libcpmtd:locale.obj
 0001:0001e6b0       ??$_Float_put_desired_precision@O@std@@YAH_JH@Z 0041f6b0 f i libcpmtd:locale.obj
 0001:0001e760       ??$_Getloctxt@V?$istreambuf_iterator@DU?$char_traits@D@std@@@std@@D@std@@YAHAAV?$istreambuf_iterator@DU?$char_traits@D@std@@@0@0IPBDW4_Case_sensitive@0@@Z 0041f760 f i libcpmtd:locale.obj
 0001:0001eb10       ??$_Getvals@D@?$numpunct@D@std@@IAEXDPBUlconv@@U_Cvtvec@@@Z 0041fb10 f i libcpmtd:locale.obj
 0001:0001eb80       ??$_Maklocchr@D@std@@YADDPADABU_Cvtvec@@@Z 0041fb80 f i libcpmtd:locale.obj
 0001:0001eb90       ??$_Maklocstr@D@std@@YAPADPBDPADABU_Cvtvec@@@Z 0041fb90 f i libcpmtd:locale.obj
 0001:0001ec30       ??$_Reallocate_for@V<lambda_1>@?1??assign@?$basic_string@DU?$char_traits@D@std@@V?$allocator@D@2@@std@@QAEAAV34@ID@Z@D@?$basic_string@DU?$char_traits@D@std@@V?$allocator@D@2@@std@@AAEAAV01@IV<lambda_1>@?1??assign@01@QAEAAV01@ID@Z@D@Z 0041fc30 f i libcpmtd:locale.obj
 0001:0001ed70       ??$_Reallocate_grow_by@V<lambda_1>@?1??append@?$basic_string@DU?$char_traits@D@std@@V?$allocator@D@2@@std@@QAEAAV34@ID@Z@ID@?$basic_string@DU?$char_traits@D@std@@V?$allocator@D@2@@std@@AAEAAV01@IV<lambda_1>@?1??append@01@QAEAAV01@ID@Z@ID@Z 0041fd70 f i libcpmtd:locale.obj
 0001:0001ef10       ??$_Reallocate_grow_by@V<lambda_1>@?1??insert@?$basic_string@DU?$char_traits@D@std@@V?$allocator@D@2@@std@@QAEAAV34@IID@Z@IID@?$basic_string@DU?$char_traits@D@std@@V?$allocator@D@2@@std@@AAEAAV01@IV<lambda_1>@?1??insert@01@QAEAAV01@IID@Z@IID@Z 0041ff10 f i libcpmtd:locale.obj
 0001:0001f0c0       ??$_To_address@PBD@std@@YA?A_PABQBD@Z 004200c0 f i libcpmtd:locale.obj
 0001:0001f0e0       ??$_Within_limits@D@std@@YA_NABDU?$integral_constant@_N$00@0@1U_Unused_parameter@0@U?$integral_constant@_N$0A@@0@@Z 004200e0 f i libcpmtd:locale.obj
 0001:0001f120       ??$_Within_limits@PBDD@std@@YA_NABQBDABD@Z 00420120 f i libcpmtd:locale.obj
 0001:0001f190       ??$begin@$$CBD$0BL@@std@@YAPBDAAY0BL@$$CBD@Z 00420190 f i libcpmtd:locale.obj
 0001:0001f1a0       ??$begin@$$CBD$0BN@@std@@YAPBDAAY0BN@$$CBD@Z 004201a0 f i libcpmtd:locale.obj
 0001:0001f1b0       ??$begin@$$CBD$0P@@std@@YAPBDAAY0P@$$CBD@Z 004201b0 f i libcpmtd:locale.obj
 0001:0001f1c0       ??$end@$$CBD$0BL@@std@@YAPBDAAY0BL@$$CBD@Z 004201c0 f i libcpmtd:locale.obj
 0001:0001f1d0       ??$end@$$CBD$0BN@@std@@YAPBDAAY0BN@$$CBD@Z 004201d0 f i libcpmtd:locale.obj
 0001:0001f1e0       ??$end@$$CBD$0P@@std@@YAPBDAAY0P@$$CBD@Z 004201e0 f i libcpmtd:locale.obj
 0001:0001f1f0       ??$move@AAV?$basic_string@DU?$char_traits@D@std@@V?$allocator@D@2@@std@@@std@@YA$$QAV?$basic_string@DU?$char_traits@D@std@@V?$allocator@D@2@@0@AAV10@@Z 004201f0 f i libcpmtd:locale.obj
 0001:0001f200       ??$to_address@$$CBD@std@@YAPBDQBD@Z 00420200 f i libcpmtd:locale.obj
 0001:0001f210       ??$use_facet@V?$num_get@DV?$istreambuf_iterator@DU?$char_traits@D@std@@@std@@@std@@@std@@YAABV?$num_get@DV?$istreambuf_iterator@DU?$char_traits@D@std@@@std@@@0@ABVlocale@0@@Z 00420210 f i libcpmtd:locale.obj
 0001:0001f370       ??$use_facet@V?$num_put@DV?$ostreambuf_iterator@DU?$char_traits@D@std@@@std@@@std@@@std@@YAABV?$num_put@DV?$ostreambuf_iterator@DU?$char_traits@D@std@@@std@@@0@ABVlocale@0@@Z 00420370 f i libcpmtd:locale.obj
 0001:0001f4d0       ??$use_facet@V?$numpunct@D@std@@@std@@YAABV?$numpunct@D@0@ABVlocale@0@@Z 004204d0 f i libcpmtd:locale.obj
 0001:0001f630       ??0?$num_get@DV?$istreambuf_iterator@DU?$char_traits@D@std@@@std@@@std@@QAE@ABV_Locinfo@1@I@Z 00420630 f i libcpmtd:locale.obj
 0001:0001f6c0       ??0?$num_put@DV?$ostreambuf_iterator@DU?$char_traits@D@std@@@std@@@std@@QAE@ABV_Locinfo@1@I@Z 004206c0 f i libcpmtd:locale.obj
 0001:0001f750       ??0?$numpunct@D@std@@QAE@ABV_Locinfo@1@I_N@Z 00420750 f i libcpmtd:locale.obj
 0001:0001f7e0       ??1?$_Tidy_guard@V?$numpunct@D@std@@@std@@QAE@XZ 004207e0 f i libcpmtd:locale.obj
 0001:0001f810       ??1?$num_get@DV?$istreambuf_iterator@DU?$char_traits@D@std@@@std@@@std@@MAE@XZ 00420810 f i libcpmtd:locale.obj
 0001:0001f840       ??1?$num_put@DV?$ostreambuf_iterator@DU?$char_traits@D@std@@@std@@@std@@MAE@XZ 00420840 f i libcpmtd:locale.obj
 0001:0001f870       ??1?$numpunct@D@std@@MAE@XZ 00420870 f i libcpmtd:locale.obj
 0001:0001f8a0       ??4?$ostreambuf_iterator@DU?$char_traits@D@std@@@std@@QAEAAV01@D@Z 004208a0 f i libcpmtd:locale.obj
 0001:0001f910       ??A?$basic_string@DU?$char_traits@D@std@@V?$allocator@D@2@@std@@QBEABDI@Z 00420910 f i libcpmtd:locale.obj
 0001:0001f9a0       ??D?$istreambuf_iterator@DU?$char_traits@D@std@@@std@@QBEDXZ 004209a0 f i libcpmtd:locale.obj
 0001:0001fa40       ??D?$ostreambuf_iterator@DU?$char_traits@D@std@@@std@@QAEAAV01@XZ 00420a40 f i libcpmtd:locale.obj
 0001:0001fa60       ??E?$istreambuf_iterator@DU?$char_traits@D@std@@@std@@QAEAAV01@XZ 00420a60 f i libcpmtd:locale.obj
 0001:0001faf0       ??E?$ostreambuf_iterator@DU?$char_traits@D@std@@@std@@QAEAAV01@XZ 00420af0 f i libcpmtd:locale.obj
 0001:0001fb10       ??R<lambda_1>@?1??append@?$basic_string@DU?$char_traits@D@std@@V?$allocator@D@2@@std@@QAEAAV23@ID@Z@QBE@QADQBDIID@Z 00420b10 f i libcpmtd:locale.obj
 0001:0001fb80       ??R<lambda_1>@?1??assign@?$basic_string@DU?$char_traits@D@std@@V?$allocator@D@2@@std@@QAEAAV23@ID@Z@QBE@QADID@Z 00420b80 f i libcpmtd:locale.obj
 0001:0001fbd0       ??R<lambda_1>@?1??insert@?$basic_string@DU?$char_traits@D@std@@V?$allocator@D@2@@std@@QAEAAV23@IID@Z@QBE@QADQBDIIID@Z 00420bd0 f i libcpmtd:locale.obj
 0001:0001fc50       ??Y?$basic_string@DU?$char_traits@D@std@@V?$allocator@D@2@@std@@QAEAAV01@ABV01@@Z 00420c50 f i libcpmtd:locale.obj
 0001:0001fc70       ??_G?$num_get@DV?$istreambuf_iterator@DU?$char_traits@D@std@@@std@@@std@@MAEPAXI@Z 00420c70 f i libcpmtd:locale.obj
 0001:0001fc70       ??_E?$num_get@DV?$istreambuf_iterator@DU?$char_traits@D@std@@@std@@@std@@MAEPAXI@Z 00420c70 f i libcpmtd:locale.obj
 0001:0001fcd0       ??_G?$num_put@DV?$ostreambuf_iterator@DU?$char_traits@D@std@@@std@@@std@@MAEPAXI@Z 00420cd0 f i libcpmtd:locale.obj
 0001:0001fcd0       ??_E?$num_put@DV?$ostreambuf_iterator@DU?$char_traits@D@std@@@std@@@std@@MAEPAXI@Z 00420cd0 f i libcpmtd:locale.obj
 0001:0001fd30       ??_E?$numpunct@D@std@@MAEPAXI@Z 00420d30 f i libcpmtd:locale.obj
 0001:0001fd30       ??_G?$numpunct@D@std@@MAEPAXI@Z 00420d30 f i libcpmtd:locale.obj
 0001:0001fd90       ?_Addfac@_Locimp@locale@std@@AAEXPAVfacet@23@I@Z 00420d90 f i libcpmtd:locale.obj
 0001:0001fdc0       ?_Eos@?$basic_string@DU?$char_traits@D@std@@V?$allocator@D@2@@std@@AAEXI@Z 00420dc0 f i libcpmtd:locale.obj
 0001:0001fe10       ?_Ffmt@?$num_put@DV?$ostreambuf_iterator@DU?$char_traits@D@std@@@std@@@std@@ABAPADPADDH@Z 00420e10 f i libcpmtd:locale.obj
 0001:0001ff70       ?_Fput@?$num_put@DV?$ostreambuf_iterator@DU?$char_traits@D@std@@@std@@@std@@ABA?AV?$ostreambuf_iterator@DU?$char_traits@D@std@@@2@V32@AAVios_base@2@DPBDI@Z 00420f70 f i libcpmtd:locale.obj
 0001:000205a0       ?_Getcat@?$num_get@DV?$istreambuf_iterator@DU?$char_traits@D@std@@@std@@@std@@SAIPAPBVfacet@locale@2@PBV42@@Z 004215a0 f i libcpmtd:locale.obj
 0001:000206c0       ?_Getcat@?$num_put@DV?$ostreambuf_iterator@DU?$char_traits@D@std@@@std@@@std@@SAIPAPBVfacet@locale@2@PBV42@@Z 004216c0 f i libcpmtd:locale.obj
 0001:000207e0       ?_Getcat@?$numpunct@D@std@@SAIPAPBVfacet@locale@2@PBV42@@Z 004217e0 f i libcpmtd:locale.obj
 0001:00020910       ?_Getcvt@_Locinfo@std@@QBE?AU_Cvtvec@@XZ 00421910 f i libcpmtd:locale.obj
 0001:00020950       ?_Getfalse@_Locinfo@std@@QBEPBDXZ 00421950 f i libcpmtd:locale.obj
 0001:00020970       ?_Getffld@?$num_get@DV?$istreambuf_iterator@DU?$char_traits@D@std@@@std@@@std@@ABAHPADAAV?$istreambuf_iterator@DU?$char_traits@D@std@@@2@1AAVios_base@2@PAH@Z 00421970 f i libcpmtd:locale.obj
 0001:000214d0       ?_Getffldx@?$num_get@DV?$istreambuf_iterator@DU?$char_traits@D@std@@@std@@@std@@ABAHPADAAV?$istreambuf_iterator@DU?$char_traits@D@std@@@2@1AAVios_base@2@PAH@Z 004224d0 f i libcpmtd:locale.obj
 0001:00022080       ?_Getifld@?$num_get@DV?$istreambuf_iterator@DU?$char_traits@D@std@@@std@@@std@@ABAHPADAAV?$istreambuf_iterator@DU?$char_traits@D@std@@@2@1HABVlocale@2@@Z 00423080 f i libcpmtd:locale.obj
 0001:00022710       ?_Getlconv@_Locinfo@std@@QBEPBUlconv@@XZ 00423710 f i libcpmtd:locale.obj
 0001:00022730       ?_Getname@_Locinfo@std@@QBEPBDXZ 00423730 f i libcpmtd:locale.obj
 0001:00022750       ?_Gettrue@_Locinfo@std@@QBEPBDXZ 00423750 f i libcpmtd:locale.obj
 0001:00022770       ?_Ifmt@?$num_put@DV?$ostreambuf_iterator@DU?$char_traits@D@std@@@std@@@std@@ABAPADPADPBDH@Z 00423770 f i libcpmtd:locale.obj
 0001:000228e0       ?_Inc@?$istreambuf_iterator@DU?$char_traits@D@std@@@std@@AAEXXZ 004238e0 f i libcpmtd:locale.obj
 0001:00022950       ?_Init@?$num_get@DV?$istreambuf_iterator@DU?$char_traits@D@std@@@std@@@std@@IAEXABV_Locinfo@2@@Z 00423950 f i libcpmtd:locale.obj
 0001:00022960       ?_Init@?$num_put@DV?$ostreambuf_iterator@DU?$char_traits@D@std@@@std@@@std@@IAEXABV_Locinfo@2@@Z 00423960 f i libcpmtd:locale.obj
 0001:00022970       ?_Init@?$numpunct@D@std@@IAEXABV_Locinfo@2@_N@Z 00423970 f i libcpmtd:locale.obj
 0001:00022b40       ?_Iput@?$num_put@DV?$ostreambuf_iterator@DU?$char_traits@D@std@@@std@@@std@@ABA?AV?$ostreambuf_iterator@DU?$char_traits@D@std@@@2@V32@AAVios_base@2@DPADI@Z 00423b40 f i libcpmtd:locale.obj
 0001:00023070       ?_Locimp_Addfac@_Locimp@locale@std@@CAXPAV123@PAVfacet@23@I@Z 00424070 f   libcpmtd:locale.obj
 0001:00023260       ?_Locimp_ctor@_Locimp@locale@std@@CAXPAV123@ABV123@@Z 00424260 f   libcpmtd:locale.obj
 0001:000233e0       ?_Locinfo_Addcats@_Locinfo@std@@SAAAV12@PAV12@HPBD@Z 004243e0 f   libcpmtd:locale.obj
 0001:00023530       ?_Locinfo_ctor@_Locinfo@std@@SAXPAV12@HPBD@Z 00424530 f   libcpmtd:locale.obj
 0001:000235a0       ?_Makeloc@_Locimp@locale@std@@CAPAV123@ABV_Locinfo@3@HPAV123@PBV23@@Z 004245a0 f   libcpmtd:locale.obj
 0001:00023b30       ?_Peek@?$istreambuf_iterator@DU?$char_traits@D@std@@@std@@ABEDXZ 00424b30 f i libcpmtd:locale.obj
 0001:00023bc0       ?_Put@?$num_put@DV?$ostreambuf_iterator@DU?$char_traits@D@std@@@std@@@std@@ABA?AV?$ostreambuf_iterator@DU?$char_traits@D@std@@@2@V32@PBDI@Z 00424bc0 f i libcpmtd:locale.obj
 0001:00023c30       ?_Rep@?$num_put@DV?$ostreambuf_iterator@DU?$char_traits@D@std@@@std@@@std@@ABA?AV?$ostreambuf_iterator@DU?$char_traits@D@std@@@2@V32@DI@Z 00424c30 f i libcpmtd:locale.obj
 0001:00023c90       ?_Stodx_v2@std@@YANPBDPAPADHPAH@Z 00424c90 f i libcpmtd:locale.obj
 0001:00023d30       ?_Stofx_v2@std@@YAMPBDPAPADHPAH@Z 00424d30 f i libcpmtd:locale.obj
 0001:00023dd0       ?_Tidy@?$numpunct@D@std@@AAEXXZ 00424dd0 f i libcpmtd:locale.obj
 0001:00023e20       ?append@?$basic_string@DU?$char_traits@D@std@@V?$allocator@D@2@@std@@QAEAAV12@ID@Z 00424e20 f i libcpmtd:locale.obj
 0001:00023ee0       ?assign@?$basic_string@DU?$char_traits@D@std@@V?$allocator@D@2@@std@@QAEAAV12@$$QAV12@@Z 00424ee0 f i libcpmtd:locale.obj
 0001:00023f10       ?decimal_point@?$numpunct@D@std@@QBEDXZ 00424f10 f i libcpmtd:locale.obj
 0001:00023f40       ?do_decimal_point@?$numpunct@D@std@@MBEDXZ 00424f40 f i libcpmtd:locale.obj
 0001:00023f60       ?do_falsename@?$numpunct@D@std@@MBE?AV?$basic_string@DU?$char_traits@D@std@@V?$allocator@D@2@@2@XZ 00424f60 f i libcpmtd:locale.obj
 0001:00023fa0       ?do_get@?$num_get@DV?$istreambuf_iterator@DU?$char_traits@D@std@@@std@@@std@@MBE?AV?$istreambuf_iterator@DU?$char_traits@D@std@@@2@V32@0AAVios_base@2@AAHAAG@Z 00424fa0 f i libcpmtd:locale.obj
 0001:000241d0       ?do_get@?$num_get@DV?$istreambuf_iterator@DU?$char_traits@D@std@@@std@@@std@@MBE?AV?$istreambuf_iterator@DU?$char_traits@D@std@@@2@V32@0AAVios_base@2@AAHAAI@Z 004251d0 f i libcpmtd:locale.obj
 0001:00024250       ?do_get@?$num_get@DV?$istreambuf_iterator@DU?$char_traits@D@std@@@std@@@std@@MBE?AV?$istreambuf_iterator@DU?$char_traits@D@std@@@2@V32@0AAVios_base@2@AAHAAJ@Z 00425250 f i libcpmtd:locale.obj
 0001:000243f0       ?do_get@?$num_get@DV?$istreambuf_iterator@DU?$char_traits@D@std@@@std@@@std@@MBE?AV?$istreambuf_iterator@DU?$char_traits@D@std@@@2@V32@0AAVios_base@2@AAHAAK@Z 004253f0 f i libcpmtd:locale.obj
 0001:00024590       ?do_get@?$num_get@DV?$istreambuf_iterator@DU?$char_traits@D@std@@@std@@@std@@MBE?AV?$istreambuf_iterator@DU?$char_traits@D@std@@@2@V32@0AAVios_base@2@AAHAAM@Z 00425590 f i libcpmtd:locale.obj
 0001:00024740       ?do_get@?$num_get@DV?$istreambuf_iterator@DU?$char_traits@D@std@@@std@@@std@@MBE?AV?$istreambuf_iterator@DU?$char_traits@D@std@@@2@V32@0AAVios_base@2@AAHAAN@Z 00425740 f i libcpmtd:locale.obj
 0001:000248f0       ?do_get@?$num_get@DV?$istreambuf_iterator@DU?$char_traits@D@std@@@std@@@std@@MBE?AV?$istreambuf_iterator@DU?$char_traits@D@std@@@2@V32@0AAVios_base@2@AAHAAO@Z 004258f0 f i libcpmtd:locale.obj
 0001:00024970       ?do_get@?$num_get@DV?$istreambuf_iterator@DU?$char_traits@D@std@@@std@@@std@@MBE?AV?$istreambuf_iterator@DU?$char_traits@D@std@@@2@V32@0AAVios_base@2@AAHAAPAX@Z 00425970 f i libcpmtd:locale.obj
 0001:00024b00       ?do_get@?$num_get@DV?$istreambuf_iterator@DU?$char_traits@D@std@@@std@@@std@@MBE?AV?$istreambuf_iterator@DU?$char_traits@D@std@@@2@V32@0AAVios_base@2@AAHAA_J@Z 00425b00 f i libcpmtd:locale.obj
 0001:00024ca0       ?do_get@?$num_get@DV?$istreambuf_iterator@DU?$char_traits@D@std@@@std@@@std@@MBE?AV?$istreambuf_iterator@DU?$char_traits@D@std@@@2@V32@0AAVios_base@2@AAHAA_K@Z 00425ca0 f i libcpmtd:locale.obj
 0001:00024e40       ?do_get@?$num_get@DV?$istreambuf_iterator@DU?$char_traits@D@std@@@std@@@std@@MBE?AV?$istreambuf_iterator@DU?$char_traits@D@std@@@2@V32@0AAVios_base@2@AAHAA_N@Z 00425e40 f i libcpmtd:locale.obj
 0001:00025250       ?do_grouping@?$numpunct@D@std@@MBE?AV?$basic_string@DU?$char_traits@D@std@@V?$allocator@D@2@@2@XZ 00426250 f i libcpmtd:locale.obj
 0001:00025290       ?do_put@?$num_put@DV?$ostreambuf_iterator@DU?$char_traits@D@std@@@std@@@std@@MBE?AV?$ostreambuf_iterator@DU?$char_traits@D@std@@@2@V32@AAVios_base@2@DJ@Z 00426290 f i libcpmtd:locale.obj
 0001:00025330       ?do_put@?$num_put@DV?$ostreambuf_iterator@DU?$char_traits@D@std@@@std@@@std@@MBE?AV?$ostreambuf_iterator@DU?$char_traits@D@std@@@2@V32@AAVios_base@2@DK@Z 00426330 f i libcpmtd:locale.obj
 0001:000253d0       ?do_put@?$num_put@DV?$ostreambuf_iterator@DU?$char_traits@D@std@@@std@@@std@@MBE?AV?$ostreambuf_iterator@DU?$char_traits@D@std@@@2@V32@AAVios_base@2@DN@Z 004263d0 f i libcpmtd:locale.obj
 0001:00025640       ?do_put@?$num_put@DV?$ostreambuf_iterator@DU?$char_traits@D@std@@@std@@@std@@MBE?AV?$ostreambuf_iterator@DU?$char_traits@D@std@@@2@V32@AAVios_base@2@DO@Z 00426640 f i libcpmtd:locale.obj
 0001:000258b0       ?do_put@?$num_put@DV?$ostreambuf_iterator@DU?$char_traits@D@std@@@std@@@std@@MBE?AV?$ostreambuf_iterator@DU?$char_traits@D@std@@@2@V32@AAVios_base@2@DPBX@Z 004268b0 f i libcpmtd:locale.obj
 0001:00025930       ?do_put@?$num_put@DV?$ostreambuf_iterator@DU?$char_traits@D@std@@@std@@@std@@MBE?AV?$ostreambuf_iterator@DU?$char_traits@D@std@@@2@V32@AAVios_base@2@D_J@Z 00426930 f i libcpmtd:locale.obj
 0001:000259e0       ?do_put@?$num_put@DV?$ostreambuf_iterator@DU?$char_traits@D@std@@@std@@@std@@MBE?AV?$ostreambuf_iterator@DU?$char_traits@D@std@@@2@V32@AAVios_base@2@D_K@Z 004269e0 f i libcpmtd:locale.obj
 0001:00025a90       ?do_put@?$num_put@DV?$ostreambuf_iterator@DU?$char_traits@D@std@@@std@@@std@@MBE?AV?$ostreambuf_iterator@DU?$char_traits@D@std@@@2@V32@AAVios_base@2@D_N@Z 00426a90 f i libcpmtd:locale.obj
 0001:00025dc0       ?do_thousands_sep@?$numpunct@D@std@@MBEDXZ 00426dc0 f i libcpmtd:locale.obj
 0001:00025de0       ?do_truename@?$numpunct@D@std@@MBE?AV?$basic_string@DU?$char_traits@D@std@@V?$allocator@D@2@@2@XZ 00426de0 f i libcpmtd:locale.obj
 0001:00025e20       ?equal@?$istreambuf_iterator@DU?$char_traits@D@std@@@std@@QBE_NABV12@@Z 00426e20 f i libcpmtd:locale.obj
 0001:00025eb0       ?falsename@?$numpunct@D@std@@QBE?AV?$basic_string@DU?$char_traits@D@std@@V?$allocator@D@2@@2@XZ 00426eb0 f i libcpmtd:locale.obj
 0001:00025f10       ?global@locale@std@@SA?AV12@ABV12@@Z 00426f10 f   libcpmtd:locale.obj
 0001:00026120       ?grouping@?$numpunct@D@std@@QBE?AV?$basic_string@DU?$char_traits@D@std@@V?$allocator@D@2@@2@XZ 00427120 f i libcpmtd:locale.obj
 0001:00026180       ?insert@?$basic_string@DU?$char_traits@D@std@@V?$allocator@D@2@@std@@QAEAAV12@IID@Z 00427180 f i libcpmtd:locale.obj
 0001:00026260       ?precision@ios_base@std@@QBE_JXZ 00427260 f i libcpmtd:locale.obj
 0001:00026280       ?resize@?$basic_string@DU?$char_traits@D@std@@V?$allocator@D@2@@std@@QAEXID@Z 00427280 f i libcpmtd:locale.obj
 0001:000262e0       ?thousands_sep@?$numpunct@D@std@@QBEDXZ 004272e0 f i libcpmtd:locale.obj
 0001:00026310       ?tolower@?$ctype@D@std@@QBEDD@Z 00427310 f i libcpmtd:locale.obj
 0001:00026360       ?truename@?$numpunct@D@std@@QBE?AV?$basic_string@DU?$char_traits@D@std@@V?$allocator@D@2@@2@XZ 00427360 f i libcpmtd:locale.obj
 0001:000263c0       ?widen@?$ctype@D@std@@QBEPBDPBD0PAD@Z 004273c0 f i libcpmtd:locale.obj
 0001:00026410       _fabsl                     00427410 f i libcpmtd:locale.obj
 0001:00026430       _frexpl                    00427430 f i libcpmtd:locale.obj
 0001:00026450       _ldexpf                    00427450 f i libcpmtd:locale.obj
 0001:00026480       _powf                      00427480 f i libcpmtd:locale.obj
 0001:000264c0       ??1_Init_atexit@@QAE@XZ    004274c0 f i libcpmtd:iosptrs.obj
 0001:00026570       ?_Atexit@@YAXP6AXXZ@Z      00427570 f   libcpmtd:iosptrs.obj
 0001:000265d0       ??0?$__crt_scoped_stack_ptr@_W@@QAE@U?$__crt_scoped_stack_ptr_tag@_W@@@Z 004275d0 f i libcpmtd:StlLCMapStringA.obj
 0001:000265f0       ??0?$__crt_scoped_stack_ptr_tag@_W@@QAE@QA_W@Z 004275f0 f i libcpmtd:StlLCMapStringA.obj
 0001:00026610       ??1?$__crt_scoped_stack_ptr@_W@@QAE@XZ 00427610 f i libcpmtd:StlLCMapStringA.obj
 0001:00026630       ??B?$__crt_scoped_stack_ptr@_W@@QBE_NXZ 00427630 f i libcpmtd:StlLCMapStringA.obj
 0001:00026670       ?get@?$__crt_scoped_stack_ptr@_W@@QBEPA_WXZ 00427670 f i libcpmtd:StlLCMapStringA.obj
 0001:00026690       __MallocaComputeSize       00427690 f i libcpmtd:StlLCMapStringA.obj
 0001:000266d0       __MarkAllocaS              004276d0 f i libcpmtd:StlLCMapStringA.obj
 0001:00026700       ___crtLCMapStringA         00427700 f   libcpmtd:StlLCMapStringA.obj
 0001:00026b40       __freea_crt                00427b40 f i libcpmtd:StlLCMapStringA.obj
 0001:00026bd0       __Getcvt                   00427bd0 f   libcpmtd:xwctomb.obj
 0001:00026ce0       __Wcrtomb                  00427ce0 f   libcpmtd:xwctomb.obj
 0001:00026e00       ___Wcrtomb_lk              00427e00 f   libcpmtd:xwctomb.obj
 0001:00026e30       ??$?0$$V@?$_Compressed_pair@V?$allocator@G@std@@V?$_String_val@U?$_Simple_types@G@std@@@2@$00@std@@QAE@U_Zero_then_variadic_args_t@1@@Z 00427e30 f i libcpmtd:wlocale.obj
 0001:00026e60       ??$?0$$V@?$_Compressed_pair@V?$allocator@_W@std@@V?$_String_val@U?$_Simple_types@_W@std@@@2@$00@std@@QAE@U_Zero_then_variadic_args_t@1@@Z 00427e60 f i libcpmtd:wlocale.obj
 0001:00026e90       ??$?0G@?$allocator@U_Container_proxy@std@@@std@@QAE@ABV?$allocator@G@1@@Z 00427e90 f i libcpmtd:wlocale.obj
 0001:00026eb0       ??$?0V?$allocator@G@std@@$$V@?$_Compressed_pair@V?$allocator@G@std@@V?$_String_val@U?$_Simple_types@G@std@@@2@$00@std@@QAE@U_One_then_variadic_args_t@1@$$QAV?$allocator@G@1@@Z 00427eb0 f i libcpmtd:wlocale.obj
 0001:00026ee0       ??$?0V?$allocator@_W@std@@$$V@?$_Compressed_pair@V?$allocator@_W@std@@V?$_String_val@U?$_Simple_types@_W@std@@@2@$00@std@@QAE@U_One_then_variadic_args_t@1@$$QAV?$allocator@_W@1@@Z 00427ee0 f i libcpmtd:wlocale.obj
 0001:00026f10       ??$?0_W@?$allocator@U_Container_proxy@std@@@std@@QAE@ABV?$allocator@_W@1@@Z 00427f10 f i libcpmtd:wlocale.obj
 0001:00026f30       ??$?8GU?$char_traits@G@std@@@std@@YA_NABV?$istreambuf_iterator@GU?$char_traits@G@std@@@0@0@Z 00427f30 f i libcpmtd:wlocale.obj
 0001:00026f50       ??$?8_WU?$char_traits@_W@std@@@std@@YA_NABV?$istreambuf_iterator@_WU?$char_traits@_W@std@@@0@0@Z 00427f50 f i libcpmtd:wlocale.obj
 0001:00026f70       ??$_Adl_verify_range@PADPAD@std@@YAXABQAD0@Z 00427f70 f i libcpmtd:wlocale.obj
 0001:00026f90       ??$_Adl_verify_range@PAGPAG@std@@YAXABQAG0@Z 00427f90 f i libcpmtd:wlocale.obj
 0001:00026fb0       ??$_Adl_verify_range@PAGPBG@std@@YAXABQAGABQBG@Z 00427fb0 f i libcpmtd:wlocale.obj
 0001:00026fd0       ??$_Adl_verify_range@PA_WPA_W@std@@YAXABQA_W0@Z 00427fd0 f i libcpmtd:wlocale.obj
 0001:00026ff0       ??$_Adl_verify_range@PA_WPB_W@std@@YAXABQA_WABQB_W@Z 00427ff0 f i libcpmtd:wlocale.obj
 0001:00027010       ??$_Adl_verify_range@PBGPBG@std@@YAXABQBG0@Z 00428010 f i libcpmtd:wlocale.obj
 0001:00027030       ??$_Adl_verify_range@PB_WPB_W@std@@YAXABQB_W0@Z 00428030 f i libcpmtd:wlocale.obj
 0001:00027050       ??$_Adl_verify_range@V?$istreambuf_iterator@GU?$char_traits@G@std@@@std@@V12@@std@@YAXABV?$istreambuf_iterator@GU?$char_traits@G@std@@@0@0@Z 00428050 f i libcpmtd:wlocale.obj
 0001:00027060       ??$_Adl_verify_range@V?$istreambuf_iterator@_WU?$char_traits@_W@std@@@std@@V12@@std@@YAXABV?$istreambuf_iterator@_WU?$char_traits@_W@std@@@0@0@Z 00428060 f i libcpmtd:wlocale.obj
 0001:00027070       ??$_Construct_in_place@PAGAAPAG@std@@YAXAAPAG0@Z 00428070 f i libcpmtd:wlocale.obj
 0001:00027110       ??$_Construct_in_place@PAGABQAG@std@@YAXAAPAGABQAG@Z 00428110 f i libcpmtd:wlocale.obj
 0001:000271b0       ??$_Construct_in_place@PA_WAAPA_W@std@@YAXAAPA_W0@Z 004281b0 f i libcpmtd:wlocale.obj
 0001:00027250       ??$_Construct_in_place@PA_WABQA_W@std@@YAXAAPA_WABQA_W@Z 00428250 f i libcpmtd:wlocale.obj
 0001:000272f0       ??$_Copy_unchecked@PA_WV?$ostreambuf_iterator@GU?$char_traits@G@std@@@std@@@std@@YA?AV?$ostreambuf_iterator@GU?$char_traits@G@std@@@0@PA_W0V10@@Z 004282f0 f i libcpmtd:wlocale.obj
 0001:00027360       ??$_Copy_unchecked@PA_WV?$ostreambuf_iterator@_WU?$char_traits@_W@std@@@std@@@std@@YA?AV?$ostreambuf_iterator@_WU?$char_traits@_W@std@@@0@PA_W0V10@@Z 00428360 f i libcpmtd:wlocale.obj
 0001:000273d0       ??$_Destroy_in_place@PAG@std@@YAXAAPAG@Z 004283d0 f i libcpmtd:wlocale.obj
 0001:000273e0       ??$_Destroy_in_place@PA_W@std@@YAXAAPA_W@Z 004283e0 f i libcpmtd:wlocale.obj
 0001:000273f0       ??$_Find_elem@G$0BL@@std@@YAIAAY0BL@$$CBGG@Z 004283f0 f i libcpmtd:wlocale.obj
 0001:00027420       ??$_Find_elem@G$0BN@@std@@YAIAAY0BN@$$CBGG@Z 00428420 f i libcpmtd:wlocale.obj
 0001:00027450       ??$_Find_elem@G$0M@@std@@YAIAAY0M@$$CBGG@Z 00428450 f i libcpmtd:wlocale.obj
 0001:00027480       ??$_Find_elem@G$0P@@std@@YAIAAY0P@$$CBGG@Z 00428480 f i libcpmtd:wlocale.obj
 0001:000274b0       ??$_Find_elem@_W$0BL@@std@@YAIAAY0BL@$$CB_W_W@Z 004284b0 f i libcpmtd:wlocale.obj
 0001:000274e0       ??$_Find_elem@_W$0BN@@std@@YAIAAY0BN@$$CB_W_W@Z 004284e0 f i libcpmtd:wlocale.obj
 0001:00027510       ??$_Find_elem@_W$0M@@std@@YAIAAY0M@$$CB_W_W@Z 00428510 f i libcpmtd:wlocale.obj
 0001:00027540       ??$_Find_elem@_W$0P@@std@@YAIAAY0P@$$CB_W_W@Z 00428540 f i libcpmtd:wlocale.obj
 0001:00027570       ??$_Find_unchecked1@PBGG@std@@YAPBGPBGQBGABGU?$integral_constant@_N$0A@@0@@Z 00428570 f i libcpmtd:wlocale.obj
 0001:000275b0       ??$_Find_unchecked1@PB_W_W@std@@YAPB_WPB_WQB_WAB_WU?$integral_constant@_N$0A@@0@@Z 004285b0 f i libcpmtd:wlocale.obj
 0001:000275f0       ??$_Find_unchecked@PBGG@std@@YAPBGQBG0ABG@Z 004285f0 f i libcpmtd:wlocale.obj
 0001:00027620       ??$_Find_unchecked@PB_W_W@std@@YAPB_WQB_W0AB_W@Z 00428620 f i libcpmtd:wlocale.obj
 0001:00027650       ??$_Get_size_of_n@$01@std@@YAII@Z 00428650 f i libcpmtd:wlocale.obj
 0001:00027690       ??$_Get_unwrapped@AAPA_W@std@@YA?A_TAAPA_W@Z 00428690 f i libcpmtd:wlocale.obj
 0001:000276a0       ??$_Get_unwrapped_n@AAV?$ostreambuf_iterator@GU?$char_traits@G@std@@@std@@H@std@@YA?A_TAAV?$ostreambuf_iterator@GU?$char_traits@G@std@@@0@H@Z 004286a0 f i libcpmtd:wlocale.obj
 0001:000276b0       ??$_Get_unwrapped_n@AAV?$ostreambuf_iterator@_WU?$char_traits@_W@std@@@std@@H@std@@YA?A_TAAV?$ostreambuf_iterator@_WU?$char_traits@_W@std@@@0@H@Z 004286b0 f i libcpmtd:wlocale.obj
 0001:000276c0       ??$_Getloctxt@V?$istreambuf_iterator@GU?$char_traits@G@std@@@std@@D@std@@YAHAAV?$istreambuf_iterator@GU?$char_traits@G@std@@@0@0IPBDW4_Case_sensitive@0@@Z 004286c0 f i libcpmtd:wlocale.obj
 0001:00027a70       ??$_Getloctxt@V?$istreambuf_iterator@GU?$char_traits@G@std@@@std@@G@std@@YAHAAV?$istreambuf_iterator@GU?$char_traits@G@std@@@0@0IPBGW4_Case_sensitive@0@@Z 00428a70 f i libcpmtd:wlocale.obj
 0001:00027e30       ??$_Getloctxt@V?$istreambuf_iterator@_WU?$char_traits@_W@std@@@std@@D@std@@YAHAAV?$istreambuf_iterator@_WU?$char_traits@_W@std@@@0@0IPBDW4_Case_sensitive@0@@Z 00428e30 f i libcpmtd:wlocale.obj
 0001:000281e0       ??$_Getloctxt@V?$istreambuf_iterator@_WU?$char_traits@_W@std@@@std@@_W@std@@YAHAAV?$istreambuf_iterator@_WU?$char_traits@_W@std@@@0@0IPB_WW4_Case_sensitive@0@@Z 004291e0 f i libcpmtd:wlocale.obj
 0001:000285a0       ??$_Getvals@G@?$_Mpunct@G@std@@IAEXGPBUlconv@@@Z 004295a0 f i libcpmtd:wlocale.obj
 0001:00028710       ??$_Getvals@G@?$numpunct@G@std@@IAEXGPBUlconv@@U_Cvtvec@@@Z 00429710 f i libcpmtd:wlocale.obj
 0001:00028790       ??$_Getvals@G@?$time_get@GV?$istreambuf_iterator@GU?$char_traits@G@std@@@std@@@std@@IAEXGABV_Locinfo@1@@Z 00429790 f i libcpmtd:wlocale.obj
 0001:000288b0       ??$_Getvals@_W@?$time_get@_WV?$istreambuf_iterator@_WU?$char_traits@_W@std@@@std@@@std@@IAEX_WABV_Locinfo@1@@Z 004298b0 f i libcpmtd:wlocale.obj
 0001:000289e0       ??$_Hash_array_representation@G@std@@YAIQBGI@Z 004299e0 f i libcpmtd:wlocale.obj
 0001:00028a10       ??$_Hash_array_representation@_W@std@@YAIQB_WI@Z 00429a10 f i libcpmtd:wlocale.obj
 0001:00028a40       ??$_Idl_distance@PA_WPA_W@std@@YA?A_PABQA_W0@Z 00429a40 f i libcpmtd:wlocale.obj
 0001:00028a60       ??$_LStrcoll@G@std@@YAHPBG000PBU_Collvec@@@Z 00429a60 f i libcpmtd:wlocale.obj
 0001:00028b20       ??$_LStrcoll@_W@std@@YAHPB_W000PBU_Collvec@@@Z 00429b20 f i libcpmtd:wlocale.obj
 0001:00028b50       ??$_LStrxfrm@G@std@@YAIPAG0PBG1PBU_Collvec@@@Z 00429b50 f i libcpmtd:wlocale.obj
 0001:00028ba0       ??$_LStrxfrm@_W@std@@YAIPA_W0PB_W1PBU_Collvec@@@Z 00429ba0 f i libcpmtd:wlocale.obj
 0001:00028bd0       ??$_Maklocchr@G@std@@YAGDPAGABU_Cvtvec@@@Z 00429bd0 f i libcpmtd:wlocale.obj
 0001:00028c20       ??$_Maklocchr@_W@std@@YA_WDPA_WABU_Cvtvec@@@Z 00429c20 f i libcpmtd:wlocale.obj
 0001:00028c70       ??$_Maklocstr@G@std@@YAPAGPBDPAGABU_Cvtvec@@@Z 00429c70 f i libcpmtd:wlocale.obj
 0001:00028de0       ??$_Maklocstr@_W@std@@YAPA_WPBDPA_WABU_Cvtvec@@@Z 00429de0 f i libcpmtd:wlocale.obj
 0001:00028f50       ??$_Pocma@V?$allocator@G@std@@@std@@YAXAAV?$allocator@G@0@0@Z 00429f50 f i libcpmtd:wlocale.obj
 0001:00028f70       ??$_Pocma@V?$allocator@_W@std@@@std@@YAXAAV?$allocator@_W@0@0@Z 00429f70 f i libcpmtd:wlocale.obj
 0001:00028f90       ??$_Reallocate_for@V<lambda_1>@?1??assign@?$basic_string@GU?$char_traits@G@std@@V?$allocator@G@2@@std@@QAEAAV34@IG@Z@G@?$basic_string@GU?$char_traits@G@std@@V?$allocator@G@2@@std@@AAEAAV01@IV<lambda_1>@?1??assign@01@QAEAAV01@IG@Z@G@Z 00429f90 f i libcpmtd:wlocale.obj
 0001:000290d0       ??$_Reallocate_for@V<lambda_1>@?1??assign@?$basic_string@GU?$char_traits@G@std@@V?$allocator@G@2@@std@@QAEAAV34@QBGI@Z@PBG@?$basic_string@GU?$char_traits@G@std@@V?$allocator@G@2@@std@@AAEAAV01@IV<lambda_1>@?1??assign@01@QAEAAV01@QBGI@Z@PBG@Z 0042a0d0 f i libcpmtd:wlocale.obj
 0001:00029210       ??$_Reallocate_for@V<lambda_1>@?1??assign@?$basic_string@_WU?$char_traits@_W@std@@V?$allocator@_W@2@@std@@QAEAAV34@I_W@Z@_W@?$basic_string@_WU?$char_traits@_W@std@@V?$allocator@_W@2@@std@@AAEAAV01@IV<lambda_1>@?1??assign@01@QAEAAV01@I_W@Z@_W@Z 0042a210 f i libcpmtd:wlocale.obj
 0001:00029350       ??$_Reallocate_for@V<lambda_1>@?1??assign@?$basic_string@_WU?$char_traits@_W@std@@V?$allocator@_W@2@@std@@QAEAAV34@QB_WI@Z@PB_W@?$basic_string@_WU?$char_traits@_W@std@@V?$allocator@_W@2@@std@@AAEAAV01@IV<lambda_1>@?1??assign@01@QAEAAV01@QB_WI@Z@PB_W@Z 0042a350 f i libcpmtd:wlocale.obj
 0001:00029490       ??$_Reallocate_grow_by@V<lambda_1>@?1??append@?$basic_string@GU?$char_traits@G@std@@V?$allocator@G@2@@std@@QAEAAV34@IG@Z@IG@?$basic_string@GU?$char_traits@G@std@@V?$allocator@G@2@@std@@AAEAAV01@IV<lambda_1>@?1??append@01@QAEAAV01@IG@Z@IG@Z 0042a490 f i libcpmtd:wlocale.obj
 0001:00029630       ??$_Reallocate_grow_by@V<lambda_1>@?1??append@?$basic_string@GU?$char_traits@G@std@@V?$allocator@G@2@@std@@QAEAAV34@QBGI@Z@PBGI@?$basic_string@GU?$char_traits@G@std@@V?$allocator@G@2@@std@@AAEAAV01@IV<lambda_1>@?1??append@01@QAEAAV01@QBGI@Z@PBGI@Z 0042a630 f i libcpmtd:wlocale.obj
 0001:000297d0       ??$_Reallocate_grow_by@V<lambda_1>@?1??append@?$basic_string@_WU?$char_traits@_W@std@@V?$allocator@_W@2@@std@@QAEAAV34@I_W@Z@I_W@?$basic_string@_WU?$char_traits@_W@std@@V?$allocator@_W@2@@std@@AAEAAV01@IV<lambda_1>@?1??append@01@QAEAAV01@I_W@Z@I_W@Z 0042a7d0 f i libcpmtd:wlocale.obj
 0001:00029970       ??$_Reallocate_grow_by@V<lambda_1>@?1??append@?$basic_string@_WU?$char_traits@_W@std@@V?$allocator@_W@2@@std@@QAEAAV34@QB_WI@Z@PB_WI@?$basic_string@_WU?$char_traits@_W@std@@V?$allocator@_W@2@@std@@AAEAAV01@IV<lambda_1>@?1??append@01@QAEAAV01@QB_WI@Z@PB_WI@Z 0042a970 f i libcpmtd:wlocale.obj
 0001:00029b10       ??$_Reallocate_grow_by@V<lambda_1>@?1??insert@?$basic_string@GU?$char_traits@G@std@@V?$allocator@G@2@@std@@QAEAAV34@IIG@Z@IIG@?$basic_string@GU?$char_traits@G@std@@V?$allocator@G@2@@std@@AAEAAV01@IV<lambda_1>@?1??insert@01@QAEAAV01@IIG@Z@IIG@Z 0042ab10 f i libcpmtd:wlocale.obj
 0001:00029cc0       ??$_Reallocate_grow_by@V<lambda_1>@?1??insert@?$basic_string@_WU?$char_traits@_W@std@@V?$allocator@_W@2@@std@@QAEAAV34@II_W@Z@II_W@?$basic_string@_WU?$char_traits@_W@std@@V?$allocator@_W@2@@std@@AAEAAV01@IV<lambda_1>@?1??insert@01@QAEAAV01@II_W@Z@II_W@Z 0042acc0 f i libcpmtd:wlocale.obj
 0001:00029e70       ??$_Reallocate_grow_by@V<lambda_1>@?1??push_back@?$basic_string@GU?$char_traits@G@std@@V?$allocator@G@2@@std@@QAEXG@Z@G@?$basic_string@GU?$char_traits@G@std@@V?$allocator@G@2@@std@@AAEAAV01@IV<lambda_1>@?1??push_back@01@QAEXG@Z@G@Z 0042ae70 f i libcpmtd:wlocale.obj
 0001:0002a010       ??$_Reallocate_grow_by@V<lambda_1>@?1??push_back@?$basic_string@_WU?$char_traits@_W@std@@V?$allocator@_W@2@@std@@QAEX_W@Z@_W@?$basic_string@_WU?$char_traits@_W@std@@V?$allocator@_W@2@@std@@AAEAAV01@IV<lambda_1>@?1??push_back@01@QAEX_W@Z@_W@Z 0042b010 f i libcpmtd:wlocale.obj
 0001:0002a1b0       ??$_Refancy@PAG$0A@@std@@YAPAGPAG@Z 0042b1b0 f i libcpmtd:wlocale.obj
 0001:0002a1c0       ??$_Refancy@PA_W$0A@@std@@YAPA_WPA_W@Z 0042b1c0 f i libcpmtd:wlocale.obj
 0001:0002a1d0       ??$_Seek_wrapped@V?$ostreambuf_iterator@GU?$char_traits@G@std@@@std@@V12@@std@@YAXAAV?$ostreambuf_iterator@GU?$char_traits@G@std@@@0@$$QAV10@@Z 0042b1d0 f i libcpmtd:wlocale.obj
 0001:0002a200       ??$_Seek_wrapped@V?$ostreambuf_iterator@_WU?$char_traits@_W@std@@@std@@V12@@std@@YAXAAV?$ostreambuf_iterator@_WU?$char_traits@_W@std@@@0@$$QAV10@@Z 0042b200 f i libcpmtd:wlocale.obj
 0001:0002a230       ??$_Unfancy@$$CBG@std@@YAPBGPBG@Z 0042b230 f i libcpmtd:wlocale.obj
 0001:0002a240       ??$_Unfancy@$$CB_W@std@@YAPB_WPB_W@Z 0042b240 f i libcpmtd:wlocale.obj
 0001:0002a250       ??$_Unfancy@G@std@@YAPAGPAG@Z 0042b250 f i libcpmtd:wlocale.obj
 0001:0002a260       ??$_Unfancy@_W@std@@YAPA_WPA_W@Z 0042b260 f i libcpmtd:wlocale.obj
 0001:0002a270       ??$_Verify_range@G@std@@YAXQBG0@Z 0042b270 f i libcpmtd:wlocale.obj
 0001:0002a2f0       ??$_Verify_range@_W@std@@YAXQB_W0@Z 0042b2f0 f i libcpmtd:wlocale.obj
 0001:0002a370       ??$_Voidify_iter@PAG@std@@YAPAXPAG@Z 0042b370 f i libcpmtd:wlocale.obj
 0001:0002a380       ??$_Voidify_iter@PAPAG@std@@YAPAXPAPAG@Z 0042b380 f i libcpmtd:wlocale.obj
 0001:0002a390       ??$_Voidify_iter@PAPA_W@std@@YAPAXPAPA_W@Z 0042b390 f i libcpmtd:wlocale.obj
 0001:0002a3a0       ??$_Voidify_iter@PA_W@std@@YAPAXPA_W@Z 0042b3a0 f i libcpmtd:wlocale.obj
 0001:0002a3b0       ??$addressof@$$CBV?$_String_val@U?$_Simple_types@G@std@@@std@@@std@@YAPBV?$_String_val@U?$_Simple_types@G@std@@@0@ABV10@@Z 0042b3b0 f i libcpmtd:wlocale.obj
 0001:0002a3c0       ??$addressof@$$CBV?$_String_val@U?$_Simple_types@_W@std@@@std@@@std@@YAPBV?$_String_val@U?$_Simple_types@_W@std@@@0@ABV10@@Z 0042b3c0 f i libcpmtd:wlocale.obj
 0001:0002a3d0       ??$addressof@$$CBV?$moneypunct@G$00@std@@@std@@YAPBV?$moneypunct@G$00@0@ABV10@@Z 0042b3d0 f i libcpmtd:wlocale.obj
 0001:0002a3e0       ??$addressof@$$CBV?$moneypunct@G$0A@@std@@@std@@YAPBV?$moneypunct@G$0A@@0@ABV10@@Z 0042b3e0 f i libcpmtd:wlocale.obj
 0001:0002a3f0       ??$addressof@$$CBV?$moneypunct@_W$00@std@@@std@@YAPBV?$moneypunct@_W$00@0@ABV10@@Z 0042b3f0 f i libcpmtd:wlocale.obj
 0001:0002a400       ??$addressof@$$CBV?$moneypunct@_W$0A@@std@@@std@@YAPBV?$moneypunct@_W$0A@@0@ABV10@@Z 0042b400 f i libcpmtd:wlocale.obj
 0001:0002a410       ??$addressof@PAG@std@@YAPAPAGAAPAG@Z 0042b410 f i libcpmtd:wlocale.obj
 0001:0002a420       ??$addressof@PA_W@std@@YAPAPA_WAAPA_W@Z 0042b420 f i libcpmtd:wlocale.obj
 0001:0002a430       ??$addressof@V?$_String_val@U?$_Simple_types@G@std@@@std@@@std@@YAPAV?$_String_val@U?$_Simple_types@G@std@@@0@AAV10@@Z 0042b430 f i libcpmtd:wlocale.obj
 0001:0002a440       ??$addressof@V?$_String_val@U?$_Simple_types@_W@std@@@std@@@std@@YAPAV?$_String_val@U?$_Simple_types@_W@std@@@0@AAV10@@Z 0042b440 f i libcpmtd:wlocale.obj
 0001:0002a450       ??$addressof@V?$basic_string@GU?$char_traits@G@std@@V?$allocator@G@2@@std@@@std@@YAPAV?$basic_string@GU?$char_traits@G@std@@V?$allocator@G@2@@0@AAV10@@Z 0042b450 f i libcpmtd:wlocale.obj
 0001:0002a460       ??$addressof@V?$basic_string@_WU?$char_traits@_W@std@@V?$allocator@_W@2@@std@@@std@@YAPAV?$basic_string@_WU?$char_traits@_W@std@@V?$allocator@_W@2@@0@AAV10@@Z 0042b460 f i libcpmtd:wlocale.obj
 0001:0002a470       ??$begin@$$CBD$0M@@std@@YAPBDAAY0M@$$CBD@Z 0042b470 f i libcpmtd:wlocale.obj
 0001:0002a480       ??$construct_at@GABGX@std@@YAPAGQAGABG@Z 0042b480 f i libcpmtd:wlocale.obj
 0001:0002a4d0       ??$construct_at@PAGAAPAGX@std@@YAPAPAGQAPAGAAPAG@Z 0042b4d0 f i libcpmtd:wlocale.obj
 0001:0002a520       ??$construct_at@PAGABQAGX@std@@YAPAPAGQAPAGABQAG@Z 0042b520 f i libcpmtd:wlocale.obj
 0001:0002a570       ??$construct_at@PA_WAAPA_WX@std@@YAPAPA_WQAPA_WAAPA_W@Z 0042b570 f i libcpmtd:wlocale.obj
 0001:0002a5c0       ??$construct_at@PA_WABQA_WX@std@@YAPAPA_WQAPA_WABQA_W@Z 0042b5c0 f i libcpmtd:wlocale.obj
 0001:0002a610       ??$construct_at@_WAB_WX@std@@YAPA_WQA_WAB_W@Z 0042b610 f i libcpmtd:wlocale.obj
 0001:0002a660       ??$copy@PA_WV?$ostreambuf_iterator@GU?$char_traits@G@std@@@std@@@std@@YA?AV?$ostreambuf_iterator@GU?$char_traits@G@std@@@0@PA_W0V10@@Z 0042b660 f i libcpmtd:wlocale.obj
 0001:0002a720       ??$copy@PA_WV?$ostreambuf_iterator@_WU?$char_traits@_W@std@@@std@@@std@@YA?AV?$ostreambuf_iterator@_WU?$char_traits@_W@std@@@0@PA_W0V10@@Z 0042b720 f i libcpmtd:wlocale.obj
 0001:0002a7e0       ??$end@$$CBD$0M@@std@@YAPBDAAY0M@$$CBD@Z 0042b7e0 f i libcpmtd:wlocale.obj
 0001:0002a7f0       ??$forward@AAPAG@std@@YAAAPAGAAPAG@Z 0042b7f0 f i libcpmtd:wlocale.obj
 0001:0002a800       ??$forward@AAPA_W@std@@YAAAPA_WAAPA_W@Z 0042b800 f i libcpmtd:wlocale.obj
 0001:0002a810       ??$forward@ABG@std@@YAABGABG@Z 0042b810 f i libcpmtd:wlocale.obj
 0001:0002a820       ??$forward@ABQAG@std@@YAABQAGABQAG@Z 0042b820 f i libcpmtd:wlocale.obj
 0001:0002a830       ??$forward@ABQA_W@std@@YAABQA_WABQA_W@Z 0042b830 f i libcpmtd:wlocale.obj
 0001:0002a840       ??$forward@AB_W@std@@YAAB_WAB_W@Z 0042b840 f i libcpmtd:wlocale.obj
 0001:0002a850       ??$forward@V?$allocator@G@std@@@std@@YA$$QAV?$allocator@G@0@AAV10@@Z 0042b850 f i libcpmtd:wlocale.obj
 0001:0002a860       ??$forward@V?$allocator@_W@std@@@std@@YA$$QAV?$allocator@_W@0@AAV10@@Z 0042b860 f i libcpmtd:wlocale.obj
 0001:0002a870       ??$forward@V?$ostreambuf_iterator@GU?$char_traits@G@std@@@std@@@std@@YA$$QAV?$ostreambuf_iterator@GU?$char_traits@G@std@@@0@AAV10@@Z 0042b870 f i libcpmtd:wlocale.obj
 0001:0002a880       ??$forward@V?$ostreambuf_iterator@_WU?$char_traits@_W@std@@@std@@@std@@YA$$QAV?$ostreambuf_iterator@_WU?$char_traits@_W@std@@@0@AAV10@@Z 0042b880 f i libcpmtd:wlocale.obj
 0001:0002a890       ??$move@AAV?$allocator@G@std@@@std@@YA$$QAV?$allocator@G@0@AAV10@@Z 0042b890 f i libcpmtd:wlocale.obj
 0001:0002a8a0       ??$move@AAV?$allocator@_W@std@@@std@@YA$$QAV?$allocator@_W@0@AAV10@@Z 0042b8a0 f i libcpmtd:wlocale.obj
 0001:0002a8b0       ??$move@AAV?$basic_string@GU?$char_traits@G@std@@V?$allocator@G@2@@std@@@std@@YA$$QAV?$basic_string@GU?$char_traits@G@std@@V?$allocator@G@2@@0@AAV10@@Z 0042b8b0 f i libcpmtd:wlocale.obj
 0001:0002a8c0       ??$move@AAV?$basic_string@_WU?$char_traits@_W@std@@V?$allocator@_W@2@@std@@@std@@YA$$QAV?$basic_string@_WU?$char_traits@_W@std@@V?$allocator@_W@2@@0@AAV10@@Z 0042b8c0 f i libcpmtd:wlocale.obj
 0001:0002a8d0       ??$use_facet@V?$codecvt@GDU_Mbstatet@@@std@@@std@@YAABV?$codecvt@GDU_Mbstatet@@@0@ABVlocale@0@@Z 0042b8d0 f i libcpmtd:wlocale.obj
 0001:0002aa30       ??$use_facet@V?$codecvt@_WDU_Mbstatet@@@std@@@std@@YAABV?$codecvt@_WDU_Mbstatet@@@0@ABVlocale@0@@Z 0042ba30 f i libcpmtd:wlocale.obj
 0001:0002ab90       ??$use_facet@V?$collate@G@std@@@std@@YAABV?$collate@G@0@ABVlocale@0@@Z 0042bb90 f i libcpmtd:wlocale.obj
 0001:0002acf0       ??$use_facet@V?$collate@_W@std@@@std@@YAABV?$collate@_W@0@ABVlocale@0@@Z 0042bcf0 f i libcpmtd:wlocale.obj
 0001:0002ae50       ??$use_facet@V?$ctype@G@std@@@std@@YAABV?$ctype@G@0@ABVlocale@0@@Z 0042be50 f i libcpmtd:wlocale.obj
 0001:0002afb0       ??$use_facet@V?$ctype@_W@std@@@std@@YAABV?$ctype@_W@0@ABVlocale@0@@Z 0042bfb0 f i libcpmtd:wlocale.obj
 0001:0002b110       ??$use_facet@V?$messages@G@std@@@std@@YAABV?$messages@G@0@ABVlocale@0@@Z 0042c110 f i libcpmtd:wlocale.obj
 0001:0002b270       ??$use_facet@V?$messages@_W@std@@@std@@YAABV?$messages@_W@0@ABVlocale@0@@Z 0042c270 f i libcpmtd:wlocale.obj
 0001:0002b3d0       ??$use_facet@V?$money_get@GV?$istreambuf_iterator@GU?$char_traits@G@std@@@std@@@std@@@std@@YAABV?$money_get@GV?$istreambuf_iterator@GU?$char_traits@G@std@@@std@@@0@ABVlocale@0@@Z 0042c3d0 f i libcpmtd:wlocale.obj
 0001:0002b530       ??$use_facet@V?$money_get@_WV?$istreambuf_iterator@_WU?$char_traits@_W@std@@@std@@@std@@@std@@YAABV?$money_get@_WV?$istreambuf_iterator@_WU?$char_traits@_W@std@@@std@@@0@ABVlocale@0@@Z 0042c530 f i libcpmtd:wlocale.obj
 0001:0002b690       ??$use_facet@V?$money_put@GV?$ostreambuf_iterator@GU?$char_traits@G@std@@@std@@@std@@@std@@YAABV?$money_put@GV?$ostreambuf_iterator@GU?$char_traits@G@std@@@std@@@0@ABVlocale@0@@Z 0042c690 f i libcpmtd:wlocale.obj
 0001:0002b7f0       ??$use_facet@V?$money_put@_WV?$ostreambuf_iterator@_WU?$char_traits@_W@std@@@std@@@std@@@std@@YAABV?$money_put@_WV?$ostreambuf_iterator@_WU?$char_traits@_W@std@@@std@@@0@ABVlocale@0@@Z 0042c7f0 f i libcpmtd:wlocale.obj
 0001:0002b950       ??$use_facet@V?$moneypunct@G$00@std@@@std@@YAABV?$moneypunct@G$00@0@ABVlocale@0@@Z 0042c950 f i libcpmtd:wlocale.obj
 0001:0002bab0       ??$use_facet@V?$moneypunct@G$0A@@std@@@std@@YAABV?$moneypunct@G$0A@@0@ABVlocale@0@@Z 0042cab0 f i libcpmtd:wlocale.obj
 0001:0002bc10       ??$use_facet@V?$moneypunct@_W$00@std@@@std@@YAABV?$moneypunct@_W$00@0@ABVlocale@0@@Z 0042cc10 f i libcpmtd:wlocale.obj
 0001:0002bd70       ??$use_facet@V?$moneypunct@_W$0A@@std@@@std@@YAABV?$moneypunct@_W$0A@@0@ABVlocale@0@@Z 0042cd70 f i libcpmtd:wlocale.obj
 0001:0002bed0       ??$use_facet@V?$num_get@GV?$istreambuf_iterator@GU?$char_traits@G@std@@@std@@@std@@@std@@YAABV?$num_get@GV?$istreambuf_iterator@GU?$char_traits@G@std@@@std@@@0@ABVlocale@0@@Z 0042ced0 f i libcpmtd:wlocale.obj
 0001:0002c030       ??$use_facet@V?$num_get@_WV?$istreambuf_iterator@_WU?$char_traits@_W@std@@@std@@@std@@@std@@YAABV?$num_get@_WV?$istreambuf_iterator@_WU?$char_traits@_W@std@@@std@@@0@ABVlocale@0@@Z 0042d030 f i libcpmtd:wlocale.obj
 0001:0002c190       ??$use_facet@V?$num_put@GV?$ostreambuf_iterator@GU?$char_traits@G@std@@@std@@@std@@@std@@YAABV?$num_put@GV?$ostreambuf_iterator@GU?$char_traits@G@std@@@std@@@0@ABVlocale@0@@Z 0042d190 f i libcpmtd:wlocale.obj
 0001:0002c2f0       ??$use_facet@V?$num_put@_WV?$ostreambuf_iterator@_WU?$char_traits@_W@std@@@std@@@std@@@std@@YAABV?$num_put@_WV?$ostreambuf_iterator@_WU?$char_traits@_W@std@@@std@@@0@ABVlocale@0@@Z 0042d2f0 f i libcpmtd:wlocale.obj
 0001:0002c450       ??$use_facet@V?$numpunct@G@std@@@std@@YAABV?$numpunct@G@0@ABVlocale@0@@Z 0042d450 f i libcpmtd:wlocale.obj
 0001:0002c5b0       ??$use_facet@V?$numpunct@_W@std@@@std@@YAABV?$numpunct@_W@0@ABVlocale@0@@Z 0042d5b0 f i libcpmtd:wlocale.obj
 0001:0002c710       ??$use_facet@V?$time_get@GV?$istreambuf_iterator@GU?$char_traits@G@std@@@std@@@std@@@std@@YAABV?$time_get@GV?$istreambuf_iterator@GU?$char_traits@G@std@@@std@@@0@ABVlocale@0@@Z 0042d710 f i libcpmtd:wlocale.obj
 0001:0002c870       ??$use_facet@V?$time_get@_WV?$istreambuf_iterator@_WU?$char_traits@_W@std@@@std@@@std@@@std@@YAABV?$time_get@_WV?$istreambuf_iterator@_WU?$char_traits@_W@std@@@std@@@0@ABVlocale@0@@Z 0042d870 f i libcpmtd:wlocale.obj
 0001:0002c9d0       ??$use_facet@V?$time_put@GV?$ostreambuf_iterator@GU?$char_traits@G@std@@@std@@@std@@@std@@YAABV?$time_put@GV?$ostreambuf_iterator@GU?$char_traits@G@std@@@std@@@0@ABVlocale@0@@Z 0042d9d0 f i libcpmtd:wlocale.obj
 0001:0002cb30       ??$use_facet@V?$time_put@_WV?$ostreambuf_iterator@_WU?$char_traits@_W@std@@@std@@@std@@@std@@YAABV?$time_put@_WV?$ostreambuf_iterator@_WU?$char_traits@_W@std@@@std@@@0@ABVlocale@0@@Z 0042db30 f i libcpmtd:wlocale.obj
 0001:0002cc90       ??0?$_Mpunct@G@std@@QAE@ABV_Locinfo@1@I_N1@Z 0042dc90 f i libcpmtd:wlocale.obj
 0001:0002cd30       ??0?$_Mpunct@_W@std@@QAE@ABV_Locinfo@1@I_N1@Z 0042dd30 f i libcpmtd:wlocale.obj
 0001:0002cdd0       ??0?$_String_const_iterator@V?$_String_val@U?$_Simple_types@G@std@@@std@@@std@@QAE@ABV01@@Z 0042ddd0 f i libcpmtd:wlocale.obj
 0001:0002ce10       ??0?$_String_const_iterator@V?$_String_val@U?$_Simple_types@G@std@@@std@@@std@@QAE@PBGPBU_Container_base12@1@@Z 0042de10 f i libcpmtd:wlocale.obj
 0001:0002ce50       ??0?$_String_const_iterator@V?$_String_val@U?$_Simple_types@G@std@@@std@@@std@@QAE@XZ 0042de50 f i libcpmtd:wlocale.obj
 0001:0002ce80       ??0?$_String_const_iterator@V?$_String_val@U?$_Simple_types@_W@std@@@std@@@std@@QAE@ABV01@@Z 0042de80 f i libcpmtd:wlocale.obj
 0001:0002cec0       ??0?$_String_const_iterator@V?$_String_val@U?$_Simple_types@_W@std@@@std@@@std@@QAE@PB_WPBU_Container_base12@1@@Z 0042dec0 f i libcpmtd:wlocale.obj
 0001:0002cf00       ??0?$_String_const_iterator@V?$_String_val@U?$_Simple_types@_W@std@@@std@@@std@@QAE@XZ 0042df00 f i libcpmtd:wlocale.obj
 0001:0002cf30       ??0?$_String_iterator@V?$_String_val@U?$_Simple_types@G@std@@@std@@@std@@QAE@ABV01@@Z 0042df30 f i libcpmtd:wlocale.obj
 0001:0002cf60       ??0?$_String_iterator@V?$_String_val@U?$_Simple_types@G@std@@@std@@@std@@QAE@PBGPBU_Container_base12@1@@Z 0042df60 f i libcpmtd:wlocale.obj
 0001:0002cf90       ??0?$_String_iterator@V?$_String_val@U?$_Simple_types@_W@std@@@std@@@std@@QAE@ABV01@@Z 0042df90 f i libcpmtd:wlocale.obj
 0001:0002cfc0       ??0?$_String_iterator@V?$_String_val@U?$_Simple_types@_W@std@@@std@@@std@@QAE@PB_WPBU_Container_base12@1@@Z 0042dfc0 f i libcpmtd:wlocale.obj
 0001:0002cff0       ??0?$_String_val@U?$_Simple_types@G@std@@@std@@QAE@XZ 0042dff0 f i libcpmtd:wlocale.obj
 0001:0002d040       ??0?$_String_val@U?$_Simple_types@_W@std@@@std@@QAE@XZ 0042e040 f i libcpmtd:wlocale.obj
 0001:0002d090       ??0?$allocator@G@std@@QAE@XZ 0042e090 f i libcpmtd:wlocale.obj
 0001:0002d0b0       ??0?$allocator@_W@std@@QAE@XZ 0042e0b0 f i libcpmtd:wlocale.obj
 0001:0002d0d0       ??0?$basic_string@GU?$char_traits@G@std@@V?$allocator@G@2@@std@@QAE@$$QAV01@@Z 0042e0d0 f i libcpmtd:wlocale.obj
 0001:0002d1a0       ??0?$basic_string@GU?$char_traits@G@std@@V?$allocator@G@2@@std@@QAE@ABV01@@Z 0042e1a0 f i libcpmtd:wlocale.obj
 0001:0002d2a0       ??0?$basic_string@GU?$char_traits@G@std@@V?$allocator@G@2@@std@@QAE@IG@Z 0042e2a0 f i libcpmtd:wlocale.obj
 0001:0002d390       ??0?$basic_string@GU?$char_traits@G@std@@V?$allocator@G@2@@std@@QAE@QBG@Z 0042e390 f i libcpmtd:wlocale.obj
 0001:0002d470       ??0?$basic_string@GU?$char_traits@G@std@@V?$allocator@G@2@@std@@QAE@QBGI@Z 0042e470 f i libcpmtd:wlocale.obj
 0001:0002d560       ??0?$basic_string@GU?$char_traits@G@std@@V?$allocator@G@2@@std@@QAE@XZ 0042e560 f i libcpmtd:wlocale.obj
 0001:0002d600       ??0?$basic_string@_WU?$char_traits@_W@std@@V?$allocator@_W@2@@std@@QAE@$$QAV01@@Z 0042e600 f i libcpmtd:wlocale.obj
 0001:0002d6d0       ??0?$basic_string@_WU?$char_traits@_W@std@@V?$allocator@_W@2@@std@@QAE@ABV01@@Z 0042e6d0 f i libcpmtd:wlocale.obj
 0001:0002d7d0       ??0?$basic_string@_WU?$char_traits@_W@std@@V?$allocator@_W@2@@std@@QAE@I_W@Z 0042e7d0 f i libcpmtd:wlocale.obj
 0001:0002d8c0       ??0?$basic_string@_WU?$char_traits@_W@std@@V?$allocator@_W@2@@std@@QAE@QB_W@Z 0042e8c0 f i libcpmtd:wlocale.obj
 0001:0002d9a0       ??0?$basic_string@_WU?$char_traits@_W@std@@V?$allocator@_W@2@@std@@QAE@QB_WI@Z 0042e9a0 f i libcpmtd:wlocale.obj
 0001:0002da90       ??0?$basic_string@_WU?$char_traits@_W@std@@V?$allocator@_W@2@@std@@QAE@XZ 0042ea90 f i libcpmtd:wlocale.obj
 0001:0002db30       ??0?$codecvt@GDU_Mbstatet@@@std@@QAE@ABV_Locinfo@1@I@Z 0042eb30 f i libcpmtd:wlocale.obj
 0001:0002dbc0       ??0?$codecvt@_WDU_Mbstatet@@@std@@QAE@ABV_Locinfo@1@I@Z 0042ebc0 f i libcpmtd:wlocale.obj
 0001:0002dc50       ??0?$collate@G@std@@QAE@ABV_Locinfo@1@I@Z 0042ec50 f i libcpmtd:wlocale.obj
 0001:0002dce0       ??0?$collate@_W@std@@QAE@ABV_Locinfo@1@I@Z 0042ece0 f i libcpmtd:wlocale.obj
 0001:0002dd70       ??0?$ctype@G@std@@QAE@ABV_Locinfo@1@I@Z 0042ed70 f i libcpmtd:wlocale.obj
 0001:0002de00       ??0?$ctype@_W@std@@QAE@ABV_Locinfo@1@I@Z 0042ee00 f i libcpmtd:wlocale.obj
 0001:0002de90       ??0?$messages@G@std@@QAE@ABV_Locinfo@1@I@Z 0042ee90 f i libcpmtd:wlocale.obj
 0001:0002df20       ??0?$messages@_W@std@@QAE@ABV_Locinfo@1@I@Z 0042ef20 f i libcpmtd:wlocale.obj
 0001:0002dfb0       ??0?$money_get@GV?$istreambuf_iterator@GU?$char_traits@G@std@@@std@@@std@@QAE@ABV_Locinfo@1@I@Z 0042efb0 f i libcpmtd:wlocale.obj
 0001:0002e040       ??0?$money_get@_WV?$istreambuf_iterator@_WU?$char_traits@_W@std@@@std@@@std@@QAE@ABV_Locinfo@1@I@Z 0042f040 f i libcpmtd:wlocale.obj
 0001:0002e0d0       ??0?$money_put@GV?$ostreambuf_iterator@GU?$char_traits@G@std@@@std@@@std@@QAE@ABV_Locinfo@1@I@Z 0042f0d0 f i libcpmtd:wlocale.obj
 0001:0002e160       ??0?$money_put@_WV?$ostreambuf_iterator@_WU?$char_traits@_W@std@@@std@@@std@@QAE@ABV_Locinfo@1@I@Z 0042f160 f i libcpmtd:wlocale.obj
 0001:0002e1f0       ??0?$moneypunct@G$00@std@@QAE@ABV_Locinfo@1@I_N@Z 0042f1f0 f i libcpmtd:wlocale.obj
 0001:0002e230       ??0?$moneypunct@G$0A@@std@@QAE@ABV_Locinfo@1@I_N@Z 0042f230 f i libcpmtd:wlocale.obj
 0001:0002e270       ??0?$moneypunct@_W$00@std@@QAE@ABV_Locinfo@1@I_N@Z 0042f270 f i libcpmtd:wlocale.obj
 0001:0002e2b0       ??0?$moneypunct@_W$0A@@std@@QAE@ABV_Locinfo@1@I_N@Z 0042f2b0 f i libcpmtd:wlocale.obj
 0001:0002e2f0       ??0?$num_get@GV?$istreambuf_iterator@GU?$char_traits@G@std@@@std@@@std@@QAE@ABV_Locinfo@1@I@Z 0042f2f0 f i libcpmtd:wlocale.obj
 0001:0002e380       ??0?$num_get@_WV?$istreambuf_iterator@_WU?$char_traits@_W@std@@@std@@@std@@QAE@ABV_Locinfo@1@I@Z 0042f380 f i libcpmtd:wlocale.obj
 0001:0002e410       ??0?$num_put@GV?$ostreambuf_iterator@GU?$char_traits@G@std@@@std@@@std@@QAE@ABV_Locinfo@1@I@Z 0042f410 f i libcpmtd:wlocale.obj
 0001:0002e4a0       ??0?$num_put@_WV?$ostreambuf_iterator@_WU?$char_traits@_W@std@@@std@@@std@@QAE@ABV_Locinfo@1@I@Z 0042f4a0 f i libcpmtd:wlocale.obj
 0001:0002e530       ??0?$numpunct@G@std@@QAE@ABV_Locinfo@1@I_N@Z 0042f530 f i libcpmtd:wlocale.obj
 0001:0002e5c0       ??0?$numpunct@_W@std@@QAE@ABV_Locinfo@1@I_N@Z 0042f5c0 f i libcpmtd:wlocale.obj
 0001:0002e650       ??0?$time_get@GV?$istreambuf_iterator@GU?$char_traits@G@std@@@std@@@std@@QAE@ABV_Locinfo@1@I@Z 0042f650 f i libcpmtd:wlocale.obj
 0001:0002e6e0       ??0?$time_get@_WV?$istreambuf_iterator@_WU?$char_traits@_W@std@@@std@@@std@@QAE@ABV_Locinfo@1@I@Z 0042f6e0 f i libcpmtd:wlocale.obj
 0001:0002e770       ??0?$time_put@GV?$ostreambuf_iterator@GU?$char_traits@G@std@@@std@@@std@@QAE@ABV_Locinfo@1@I@Z 0042f770 f i libcpmtd:wlocale.obj
 0001:0002e820       ??0?$time_put@_WV?$ostreambuf_iterator@_WU?$char_traits@_W@std@@@std@@@std@@QAE@ABV_Locinfo@1@I@Z 0042f820 f i libcpmtd:wlocale.obj
 0001:0002e8d0       ??0_Bxty@?$_String_val@U?$_Simple_types@G@std@@@std@@QAE@XZ 0042f8d0 f i libcpmtd:wlocale.obj
 0001:0002e8f0       ??0_Bxty@?$_String_val@U?$_Simple_types@_W@std@@@std@@QAE@XZ 0042f8f0 f i libcpmtd:wlocale.obj
 0001:0002e910       ??0_Iterator_base12@std@@QAE@ABU01@@Z 0042f910 f i libcpmtd:wlocale.obj
 0001:0002e950       ??0_Iterator_base12@std@@QAE@XZ 0042f950 f i libcpmtd:wlocale.obj
 0001:0002e980       ??0_Timevec@std@@QAE@PAX@Z 0042f980 f i libcpmtd:wlocale.obj
 0001:0002e9a0       ??0messages_base@std@@QAE@I@Z 0042f9a0 f i libcpmtd:wlocale.obj
 0001:0002e9d0       ??0money_base@std@@QAE@I@Z 0042f9d0 f i libcpmtd:wlocale.obj
 0001:0002ea00       ??0time_base@std@@QAE@I@Z  0042fa00 f i libcpmtd:wlocale.obj
 0001:0002ea30       ??1?$_Compressed_pair@V?$allocator@G@std@@V?$_String_val@U?$_Simple_types@G@std@@@2@$00@std@@QAE@XZ 0042fa30 f i libcpmtd:wlocale.obj
 0001:0002ea50       ??1?$_Compressed_pair@V?$allocator@_W@std@@V?$_String_val@U?$_Simple_types@_W@std@@@2@$00@std@@QAE@XZ 0042fa50 f i libcpmtd:wlocale.obj
 0001:0002ea70       ??1?$_Mpunct@G@std@@MAE@XZ 0042fa70 f i libcpmtd:wlocale.obj
 0001:0002eaa0       ??1?$_Mpunct@_W@std@@MAE@XZ 0042faa0 f i libcpmtd:wlocale.obj
 0001:0002ead0       ??1?$_String_const_iterator@V?$_String_val@U?$_Simple_types@G@std@@@std@@@std@@QAE@XZ 0042fad0 f i libcpmtd:wlocale.obj
 0001:0002eaf0       ??1?$_String_const_iterator@V?$_String_val@U?$_Simple_types@_W@std@@@std@@@std@@QAE@XZ 0042faf0 f i libcpmtd:wlocale.obj
 0001:0002eb10       ??1?$_String_iterator@V?$_String_val@U?$_Simple_types@G@std@@@std@@@std@@QAE@XZ 0042fb10 f i libcpmtd:wlocale.obj
 0001:0002eb30       ??1?$_String_iterator@V?$_String_val@U?$_Simple_types@_W@std@@@std@@@std@@QAE@XZ 0042fb30 f i libcpmtd:wlocale.obj
 0001:0002eb50       ??1?$_String_val@U?$_Simple_types@G@std@@@std@@QAE@XZ 0042fb50 f i libcpmtd:wlocale.obj
 0001:0002eb70       ??1?$_String_val@U?$_Simple_types@_W@std@@@std@@QAE@XZ 0042fb70 f i libcpmtd:wlocale.obj
 0001:0002eb90       ??1?$_Tidy_guard@V?$_Mpunct@G@std@@@std@@QAE@XZ 0042fb90 f i libcpmtd:wlocale.obj
 0001:0002ebc0       ??1?$_Tidy_guard@V?$_Mpunct@_W@std@@@std@@QAE@XZ 0042fbc0 f i libcpmtd:wlocale.obj
 0001:0002ebf0       ??1?$_Tidy_guard@V?$numpunct@G@std@@@std@@QAE@XZ 0042fbf0 f i libcpmtd:wlocale.obj
 0001:0002ec20       ??1?$_Tidy_guard@V?$numpunct@_W@std@@@std@@QAE@XZ 0042fc20 f i libcpmtd:wlocale.obj
 0001:0002ec50       ??1?$_Tidy_guard@V?$time_get@GV?$istreambuf_iterator@GU?$char_traits@G@std@@@std@@@std@@@std@@QAE@XZ 0042fc50 f i libcpmtd:wlocale.obj
 0001:0002ec80       ??1?$_Tidy_guard@V?$time_get@_WV?$istreambuf_iterator@_WU?$char_traits@_W@std@@@std@@@std@@@std@@QAE@XZ 0042fc80 f i libcpmtd:wlocale.obj
 0001:0002ecb0       ??1?$basic_string@GU?$char_traits@G@std@@V?$allocator@G@2@@std@@QAE@XZ 0042fcb0 f i libcpmtd:wlocale.obj
 0001:0002ed20       ??1?$basic_string@_WU?$char_traits@_W@std@@V?$allocator@_W@2@@std@@QAE@XZ 0042fd20 f i libcpmtd:wlocale.obj
 0001:0002ed90       ??1?$codecvt@GDU_Mbstatet@@@std@@MAE@XZ 0042fd90 f i libcpmtd:wlocale.obj
 0001:0002edc0       ??1?$codecvt@_WDU_Mbstatet@@@std@@MAE@XZ 0042fdc0 f i libcpmtd:wlocale.obj
 0001:0002edf0       ??1?$collate@G@std@@MAE@XZ 0042fdf0 f i libcpmtd:wlocale.obj
 0001:0002ee30       ??1?$collate@_W@std@@MAE@XZ 0042fe30 f i libcpmtd:wlocale.obj
 0001:0002ee70       ??1?$ctype@G@std@@MAE@XZ   0042fe70 f i libcpmtd:wlocale.obj
 0001:0002eed0       ??1?$ctype@_W@std@@MAE@XZ  0042fed0 f i libcpmtd:wlocale.obj
 0001:0002ef30       ??1?$messages@G@std@@MAE@XZ 0042ff30 f i libcpmtd:wlocale.obj
 0001:0002ef60       ??1?$messages@_W@std@@MAE@XZ 0042ff60 f i libcpmtd:wlocale.obj
 0001:0002ef90       ??1?$money_get@GV?$istreambuf_iterator@GU?$char_traits@G@std@@@std@@@std@@MAE@XZ 0042ff90 f i libcpmtd:wlocale.obj
 0001:0002efc0       ??1?$money_get@_WV?$istreambuf_iterator@_WU?$char_traits@_W@std@@@std@@@std@@MAE@XZ 0042ffc0 f i libcpmtd:wlocale.obj
 0001:0002eff0       ??1?$money_put@GV?$ostreambuf_iterator@GU?$char_traits@G@std@@@std@@@std@@MAE@XZ 0042fff0 f i libcpmtd:wlocale.obj
 0001:0002f020       ??1?$money_put@_WV?$ostreambuf_iterator@_WU?$char_traits@_W@std@@@std@@@std@@MAE@XZ 00430020 f i libcpmtd:wlocale.obj
 0001:0002f050       ??1?$moneypunct@G$00@std@@MAE@XZ 00430050 f i libcpmtd:wlocale.obj
 0001:0002f080       ??1?$moneypunct@G$0A@@std@@MAE@XZ 00430080 f i libcpmtd:wlocale.obj
 0001:0002f0b0       ??1?$moneypunct@_W$00@std@@MAE@XZ 004300b0 f i libcpmtd:wlocale.obj
 0001:0002f0e0       ??1?$moneypunct@_W$0A@@std@@MAE@XZ 004300e0 f i libcpmtd:wlocale.obj
 0001:0002f110       ??1?$num_get@GV?$istreambuf_iterator@GU?$char_traits@G@std@@@std@@@std@@MAE@XZ 00430110 f i libcpmtd:wlocale.obj
 0001:0002f140       ??1?$num_get@_WV?$istreambuf_iterator@_WU?$char_traits@_W@std@@@std@@@std@@MAE@XZ 00430140 f i libcpmtd:wlocale.obj
 0001:0002f170       ??1?$num_put@GV?$ostreambuf_iterator@GU?$char_traits@G@std@@@std@@@std@@MAE@XZ 00430170 f i libcpmtd:wlocale.obj
 0001:0002f1a0       ??1?$num_put@_WV?$ostreambuf_iterator@_WU?$char_traits@_W@std@@@std@@@std@@MAE@XZ 004301a0 f i libcpmtd:wlocale.obj
 0001:0002f1d0       ??1?$numpunct@G@std@@MAE@XZ 004301d0 f i libcpmtd:wlocale.obj
 0001:0002f200       ??1?$numpunct@_W@std@@MAE@XZ 00430200 f i libcpmtd:wlocale.obj
 0001:0002f230       ??1?$time_get@GV?$istreambuf_iterator@GU?$char_traits@G@std@@@std@@@std@@MAE@XZ 00430230 f i libcpmtd:wlocale.obj
 0001:0002f260       ??1?$time_get@_WV?$istreambuf_iterator@_WU?$char_traits@_W@std@@@std@@@std@@MAE@XZ 00430260 f i libcpmtd:wlocale.obj
 0001:0002f290       ??1?$time_put@GV?$ostreambuf_iterator@GU?$char_traits@G@std@@@std@@@std@@MAE@XZ 00430290 f i libcpmtd:wlocale.obj
 0001:0002f2c0       ??1?$time_put@_WV?$ostreambuf_iterator@_WU?$char_traits@_W@std@@@std@@@std@@MAE@XZ 004302c0 f i libcpmtd:wlocale.obj
 0001:0002f2f0       ??1_Bxty@?$_String_val@U?$_Simple_types@G@std@@@std@@QAE@XZ 004302f0 f i libcpmtd:wlocale.obj
 0001:0002f300       ??1_Bxty@?$_String_val@U?$_Simple_types@_W@std@@@std@@QAE@XZ 00430300 f i libcpmtd:wlocale.obj
 0001:0002f310       ??1_Iterator_base12@std@@QAE@XZ 00430310 f i libcpmtd:wlocale.obj
 0001:0002f330       ??1_Timevec@std@@QAE@XZ    00430330 f i libcpmtd:wlocale.obj
 0001:0002f350       ??1messages_base@std@@UAE@XZ 00430350 f i libcpmtd:wlocale.obj
 0001:0002f370       ??1money_base@std@@UAE@XZ  00430370 f i libcpmtd:wlocale.obj
 0001:0002f390       ??1time_base@std@@UAE@XZ   00430390 f i libcpmtd:wlocale.obj
 0001:0002f3c0       ??4?$_String_const_iterator@V?$_String_val@U?$_Simple_types@G@std@@@std@@@std@@QAEAAV01@ABV01@@Z 004303c0 f i libcpmtd:wlocale.obj
 0001:0002f400       ??4?$_String_const_iterator@V?$_String_val@U?$_Simple_types@_W@std@@@std@@@std@@QAEAAV01@ABV01@@Z 00430400 f i libcpmtd:wlocale.obj
 0001:0002f440       ??4?$_Yarn@_W@std@@QAEAAV01@PB_W@Z 00430440 f i libcpmtd:wlocale.obj
 0001:0002f500       ??4?$basic_string@GU?$char_traits@G@std@@V?$allocator@G@2@@std@@QAEAAV01@$$QAV01@@Z 00430500 f i libcpmtd:wlocale.obj
 0001:0002f550       ??4?$basic_string@_WU?$char_traits@_W@std@@V?$allocator@_W@2@@std@@QAEAAV01@$$QAV01@@Z 00430550 f i libcpmtd:wlocale.obj
 0001:0002f5a0       ??4?$ostreambuf_iterator@GU?$char_traits@G@std@@@std@@QAEAAV01@G@Z 004305a0 f i libcpmtd:wlocale.obj
 0001:0002f620       ??4?$ostreambuf_iterator@_WU?$char_traits@_W@std@@@std@@QAEAAV01@_W@Z 00430620 f i libcpmtd:wlocale.obj
 0001:0002f6a0       ??4_Iterator_base12@std@@QAEAAU01@ABU01@@Z 004306a0 f i libcpmtd:wlocale.obj
 0001:0002f6f0       ??4_Timevec@std@@QAEAAV01@ABV01@@Z 004306f0 f i libcpmtd:wlocale.obj
 0001:0002f740       ??8?$_String_const_iterator@V?$_String_val@U?$_Simple_types@G@std@@@std@@@std@@QBE_NABV01@@Z 00430740 f i libcpmtd:wlocale.obj
 0001:0002f790       ??8?$_String_const_iterator@V?$_String_val@U?$_Simple_types@_W@std@@@std@@@std@@QBE_NABV01@@Z 00430790 f i libcpmtd:wlocale.obj
 0001:0002f7e0       ??A?$basic_string@GU?$char_traits@G@std@@V?$allocator@G@2@@std@@QAEAAGI@Z 004307e0 f i libcpmtd:wlocale.obj
 0001:0002f880       ??A?$basic_string@GU?$char_traits@G@std@@V?$allocator@G@2@@std@@QBEABGI@Z 00430880 f i libcpmtd:wlocale.obj
 0001:0002f920       ??A?$basic_string@_WU?$char_traits@_W@std@@V?$allocator@_W@2@@std@@QAEAA_WI@Z 00430920 f i libcpmtd:wlocale.obj
 0001:0002f9c0       ??A?$basic_string@_WU?$char_traits@_W@std@@V?$allocator@_W@2@@std@@QBEAB_WI@Z 004309c0 f i libcpmtd:wlocale.obj
 0001:0002fa60       ??D?$_String_const_iterator@V?$_String_val@U?$_Simple_types@G@std@@@std@@@std@@QBEABGXZ 00430a60 f i libcpmtd:wlocale.obj
 0001:0002fc00       ??D?$_String_const_iterator@V?$_String_val@U?$_Simple_types@_W@std@@@std@@@std@@QBEAB_WXZ 00430c00 f i libcpmtd:wlocale.obj
 0001:0002fda0       ??D?$_String_iterator@V?$_String_val@U?$_Simple_types@G@std@@@std@@@std@@QBEAAGXZ 00430da0 f i libcpmtd:wlocale.obj
 0001:0002fdc0       ??D?$_String_iterator@V?$_String_val@U?$_Simple_types@_W@std@@@std@@@std@@QBEAA_WXZ 00430dc0 f i libcpmtd:wlocale.obj
 0001:0002fde0       ??D?$istreambuf_iterator@GU?$char_traits@G@std@@@std@@QBEGXZ 00430de0 f i libcpmtd:wlocale.obj
 0001:0002fe80       ??D?$istreambuf_iterator@_WU?$char_traits@_W@std@@@std@@QBE_WXZ 00430e80 f i libcpmtd:wlocale.obj
 0001:0002ff20       ??D?$ostreambuf_iterator@GU?$char_traits@G@std@@@std@@QAEAAV01@XZ 00430f20 f i libcpmtd:wlocale.obj
 0001:0002ff40       ??D?$ostreambuf_iterator@_WU?$char_traits@_W@std@@@std@@QAEAAV01@XZ 00430f40 f i libcpmtd:wlocale.obj
 0001:0002ff60       ??E?$_String_const_iterator@V?$_String_val@U?$_Simple_types@G@std@@@std@@@std@@QAEAAV01@XZ 00430f60 f i libcpmtd:wlocale.obj
 0001:00030100       ??E?$_String_const_iterator@V?$_String_val@U?$_Simple_types@_W@std@@@std@@@std@@QAEAAV01@XZ 00431100 f i libcpmtd:wlocale.obj
 0001:000302a0       ??E?$_String_iterator@V?$_String_val@U?$_Simple_types@G@std@@@std@@@std@@QAEAAV01@XZ 004312a0 f i libcpmtd:wlocale.obj
 0001:000302c0       ??E?$_String_iterator@V?$_String_val@U?$_Simple_types@_W@std@@@std@@@std@@QAEAAV01@XZ 004312c0 f i libcpmtd:wlocale.obj
 0001:000302e0       ??E?$istreambuf_iterator@GU?$char_traits@G@std@@@std@@QAEAAV01@XZ 004312e0 f i libcpmtd:wlocale.obj
 0001:00030370       ??E?$istreambuf_iterator@_WU?$char_traits@_W@std@@@std@@QAEAAV01@XZ 00431370 f i libcpmtd:wlocale.obj
 0001:00030400       ??E?$ostreambuf_iterator@GU?$char_traits@G@std@@@std@@QAEAAV01@H@Z 00431400 f i libcpmtd:wlocale.obj
 0001:00030420       ??E?$ostreambuf_iterator@GU?$char_traits@G@std@@@std@@QAEAAV01@XZ 00431420 f i libcpmtd:wlocale.obj
 0001:00030440       ??E?$ostreambuf_iterator@_WU?$char_traits@_W@std@@@std@@QAEAAV01@H@Z 00431440 f i libcpmtd:wlocale.obj
 0001:00030460       ??E?$ostreambuf_iterator@_WU?$char_traits@_W@std@@@std@@QAEAAV01@XZ 00431460 f i libcpmtd:wlocale.obj
 0001:00030480       ??G?$_String_iterator@V?$_String_val@U?$_Simple_types@G@std@@@std@@@std@@QBE?AV01@H@Z 00431480 f i libcpmtd:wlocale.obj
 0001:000304d0       ??G?$_String_iterator@V?$_String_val@U?$_Simple_types@_W@std@@@std@@@std@@QBE?AV01@H@Z 004314d0 f i libcpmtd:wlocale.obj
 0001:00030520       ??H?$_String_iterator@V?$_String_val@U?$_Simple_types@G@std@@@std@@@std@@QBE?AV01@H@Z 00431520 f i libcpmtd:wlocale.obj
 0001:00030570       ??H?$_String_iterator@V?$_String_val@U?$_Simple_types@_W@std@@@std@@@std@@QBE?AV01@H@Z 00431570 f i libcpmtd:wlocale.obj
 0001:000305c0       ??R<lambda_1>@?1??append@?$basic_string@GU?$char_traits@G@std@@V?$allocator@G@2@@std@@QAEAAV23@IG@Z@QBE@QAGQBGIIG@Z 004315c0 f i libcpmtd:wlocale.obj
 0001:00030640       ??R<lambda_1>@?1??append@?$basic_string@GU?$char_traits@G@std@@V?$allocator@G@2@@std@@QAEAAV23@QBGI@Z@QBE@QAG0I0I@Z 00431640 f i libcpmtd:wlocale.obj
 0001:000306c0       ??R<lambda_1>@?1??append@?$basic_string@_WU?$char_traits@_W@std@@V?$allocator@_W@2@@std@@QAEAAV23@I_W@Z@QBE@QA_WQB_WII0@Z 004316c0 f i libcpmtd:wlocale.obj
 0001:00030740       ??R<lambda_1>@?1??append@?$basic_string@_WU?$char_traits@_W@std@@V?$allocator@_W@2@@std@@QAEAAV23@QB_WI@Z@QBE@QA_W0I0I@Z 00431740 f i libcpmtd:wlocale.obj
 0001:000307c0       ??R<lambda_1>@?1??assign@?$basic_string@GU?$char_traits@G@std@@V?$allocator@G@2@@std@@QAEAAV23@IG@Z@QBE@QAGIG@Z 004317c0 f i libcpmtd:wlocale.obj
 0001:00030810       ??R<lambda_1>@?1??assign@?$basic_string@GU?$char_traits@G@std@@V?$allocator@G@2@@std@@QAEAAV23@QBGI@Z@QBE@QAGI0@Z 00431810 f i libcpmtd:wlocale.obj
 0001:00030860       ??R<lambda_1>@?1??assign@?$basic_string@_WU?$char_traits@_W@std@@V?$allocator@_W@2@@std@@QAEAAV23@I_W@Z@QBE@QA_WI0@Z 00431860 f i libcpmtd:wlocale.obj
 0001:000308b0       ??R<lambda_1>@?1??assign@?$basic_string@_WU?$char_traits@_W@std@@V?$allocator@_W@2@@std@@QAEAAV23@QB_WI@Z@QBE@QA_WI0@Z 004318b0 f i libcpmtd:wlocale.obj
 0001:00030900       ??R<lambda_1>@?1??insert@?$basic_string@GU?$char_traits@G@std@@V?$allocator@G@2@@std@@QAEAAV23@IIG@Z@QBE@QAGQBGIIIG@Z 00431900 f i libcpmtd:wlocale.obj
 0001:00030990       ??R<lambda_1>@?1??insert@?$basic_string@_WU?$char_traits@_W@std@@V?$allocator@_W@2@@std@@QAEAAV23@II_W@Z@QBE@QA_WQB_WIII0@Z 00431990 f i libcpmtd:wlocale.obj
 0001:00030a20       ??R<lambda_1>@?1??push_back@?$basic_string@GU?$char_traits@G@std@@V?$allocator@G@2@@std@@QAEXG@Z@QBE@QAGQBGIG@Z 00431a20 f i libcpmtd:wlocale.obj
 0001:00030a90       ??R<lambda_1>@?1??push_back@?$basic_string@_WU?$char_traits@_W@std@@V?$allocator@_W@2@@std@@QAEX_W@Z@QBE@QA_WQB_WI0@Z 00431a90 f i libcpmtd:wlocale.obj
 0001:00030b00       ??Y?$_String_const_iterator@V?$_String_val@U?$_Simple_types@G@std@@@std@@@std@@QAEAAV01@H@Z 00431b00 f i libcpmtd:wlocale.obj
 0001:00030b40       ??Y?$_String_const_iterator@V?$_String_val@U?$_Simple_types@_W@std@@@std@@@std@@QAEAAV01@H@Z 00431b40 f i libcpmtd:wlocale.obj
 0001:00030b80       ??Y?$_String_iterator@V?$_String_val@U?$_Simple_types@G@std@@@std@@@std@@QAEAAV01@H@Z 00431b80 f i libcpmtd:wlocale.obj
 0001:00030bb0       ??Y?$_String_iterator@V?$_String_val@U?$_Simple_types@_W@std@@@std@@@std@@QAEAAV01@H@Z 00431bb0 f i libcpmtd:wlocale.obj
 0001:00030be0       ??Y?$basic_string@DU?$char_traits@D@std@@V?$allocator@D@2@@std@@QAEAAV01@D@Z 00431be0 f i libcpmtd:wlocale.obj
 0001:00030c10       ??Y?$basic_string@GU?$char_traits@G@std@@V?$allocator@G@2@@std@@QAEAAV01@ABV01@@Z 00431c10 f i libcpmtd:wlocale.obj
 0001:00030c30       ??Y?$basic_string@_WU?$char_traits@_W@std@@V?$allocator@_W@2@@std@@QAEAAV01@ABV01@@Z 00431c30 f i libcpmtd:wlocale.obj
 0001:00030c50       ??Z?$_String_const_iterator@V?$_String_val@U?$_Simple_types@G@std@@@std@@@std@@QAEAAV01@H@Z 00431c50 f i libcpmtd:wlocale.obj
 0001:00030c80       ??Z?$_String_const_iterator@V?$_String_val@U?$_Simple_types@_W@std@@@std@@@std@@QAEAAV01@H@Z 00431c80 f i libcpmtd:wlocale.obj
 0001:00030cb0       ??Z?$_String_iterator@V?$_String_val@U?$_Simple_types@G@std@@@std@@@std@@QAEAAV01@H@Z 00431cb0 f i libcpmtd:wlocale.obj
 0001:00030ce0       ??Z?$_String_iterator@V?$_String_val@U?$_Simple_types@_W@std@@@std@@@std@@QAEAAV01@H@Z 00431ce0 f i libcpmtd:wlocale.obj
 0001:00030d10       ??_G?$_Mpunct@G@std@@MAEPAXI@Z 00431d10 f i libcpmtd:wlocale.obj
 0001:00030d10       ??_E?$_Mpunct@G@std@@MAEPAXI@Z 00431d10 f i libcpmtd:wlocale.obj
 0001:00030d70       ??_G?$_Mpunct@_W@std@@MAEPAXI@Z 00431d70 f i libcpmtd:wlocale.obj
 0001:00030d70       ??_E?$_Mpunct@_W@std@@MAEPAXI@Z 00431d70 f i libcpmtd:wlocale.obj
 0001:00030dd0       ??_E?$codecvt@GDU_Mbstatet@@@std@@MAEPAXI@Z 00431dd0 f i libcpmtd:wlocale.obj
 0001:00030dd0       ??_G?$codecvt@GDU_Mbstatet@@@std@@MAEPAXI@Z 00431dd0 f i libcpmtd:wlocale.obj
 0001:00030e30       ??_E?$codecvt@_WDU_Mbstatet@@@std@@MAEPAXI@Z 00431e30 f i libcpmtd:wlocale.obj
 0001:00030e30       ??_G?$codecvt@_WDU_Mbstatet@@@std@@MAEPAXI@Z 00431e30 f i libcpmtd:wlocale.obj
 0001:00030e90       ??_G?$collate@G@std@@MAEPAXI@Z 00431e90 f i libcpmtd:wlocale.obj
 0001:00030e90       ??_E?$collate@G@std@@MAEPAXI@Z 00431e90 f i libcpmtd:wlocale.obj
 0001:00030ef0       ??_E?$collate@_W@std@@MAEPAXI@Z 00431ef0 f i libcpmtd:wlocale.obj
 0001:00030ef0       ??_G?$collate@_W@std@@MAEPAXI@Z 00431ef0 f i libcpmtd:wlocale.obj
 0001:00030f50       ??_E?$ctype@G@std@@MAEPAXI@Z 00431f50 f i libcpmtd:wlocale.obj
 0001:00030f50       ??_G?$ctype@G@std@@MAEPAXI@Z 00431f50 f i libcpmtd:wlocale.obj
 0001:00030fb0       ??_G?$ctype@_W@std@@MAEPAXI@Z 00431fb0 f i libcpmtd:wlocale.obj
 0001:00030fb0       ??_E?$ctype@_W@std@@MAEPAXI@Z 00431fb0 f i libcpmtd:wlocale.obj
 0001:00031010       ??_E?$messages@G@std@@MAEPAXI@Z 00432010 f i libcpmtd:wlocale.obj
 0001:00031010       ??_G?$messages@G@std@@MAEPAXI@Z 00432010 f i libcpmtd:wlocale.obj
 0001:00031070       ??_E?$messages@_W@std@@MAEPAXI@Z 00432070 f i libcpmtd:wlocale.obj
 0001:00031070       ??_G?$messages@_W@std@@MAEPAXI@Z 00432070 f i libcpmtd:wlocale.obj
 0001:000310d0       ??_G?$money_get@GV?$istreambuf_iterator@GU?$char_traits@G@std@@@std@@@std@@MAEPAXI@Z 004320d0 f i libcpmtd:wlocale.obj
 0001:000310d0       ??_E?$money_get@GV?$istreambuf_iterator@GU?$char_traits@G@std@@@std@@@std@@MAEPAXI@Z 004320d0 f i libcpmtd:wlocale.obj
 0001:00031130       ??_E?$money_get@_WV?$istreambuf_iterator@_WU?$char_traits@_W@std@@@std@@@std@@MAEPAXI@Z 00432130 f i libcpmtd:wlocale.obj
 0001:00031130       ??_G?$money_get@_WV?$istreambuf_iterator@_WU?$char_traits@_W@std@@@std@@@std@@MAEPAXI@Z 00432130 f i libcpmtd:wlocale.obj
 0001:00031190       ??_E?$money_put@GV?$ostreambuf_iterator@GU?$char_traits@G@std@@@std@@@std@@MAEPAXI@Z 00432190 f i libcpmtd:wlocale.obj
 0001:00031190       ??_G?$money_put@GV?$ostreambuf_iterator@GU?$char_traits@G@std@@@std@@@std@@MAEPAXI@Z 00432190 f i libcpmtd:wlocale.obj
 0001:000311f0       ??_G?$money_put@_WV?$ostreambuf_iterator@_WU?$char_traits@_W@std@@@std@@@std@@MAEPAXI@Z 004321f0 f i libcpmtd:wlocale.obj
 0001:000311f0       ??_E?$money_put@_WV?$ostreambuf_iterator@_WU?$char_traits@_W@std@@@std@@@std@@MAEPAXI@Z 004321f0 f i libcpmtd:wlocale.obj
 0001:00031250       ??_E?$moneypunct@G$00@std@@MAEPAXI@Z 00432250 f i libcpmtd:wlocale.obj
 0001:00031250       ??_G?$moneypunct@G$00@std@@MAEPAXI@Z 00432250 f i libcpmtd:wlocale.obj
 0001:000312b0       ??_E?$moneypunct@G$0A@@std@@MAEPAXI@Z 004322b0 f i libcpmtd:wlocale.obj
 0001:000312b0       ??_G?$moneypunct@G$0A@@std@@MAEPAXI@Z 004322b0 f i libcpmtd:wlocale.obj
 0001:00031310       ??_G?$moneypunct@_W$00@std@@MAEPAXI@Z 00432310 f i libcpmtd:wlocale.obj
 0001:00031310       ??_E?$moneypunct@_W$00@std@@MAEPAXI@Z 00432310 f i libcpmtd:wlocale.obj
 0001:00031370       ??_E?$moneypunct@_W$0A@@std@@MAEPAXI@Z 00432370 f i libcpmtd:wlocale.obj
 0001:00031370       ??_G?$moneypunct@_W$0A@@std@@MAEPAXI@Z 00432370 f i libcpmtd:wlocale.obj
 0001:000313d0       ??_G?$num_get@GV?$istreambuf_iterator@GU?$char_traits@G@std@@@std@@@std@@MAEPAXI@Z 004323d0 f i libcpmtd:wlocale.obj
 0001:000313d0       ??_E?$num_get@GV?$istreambuf_iterator@GU?$char_traits@G@std@@@std@@@std@@MAEPAXI@Z 004323d0 f i libcpmtd:wlocale.obj
 0001:00031430       ??_G?$num_get@_WV?$istreambuf_iterator@_WU?$char_traits@_W@std@@@std@@@std@@MAEPAXI@Z 00432430 f i libcpmtd:wlocale.obj
 0001:00031430       ??_E?$num_get@_WV?$istreambuf_iterator@_WU?$char_traits@_W@std@@@std@@@std@@MAEPAXI@Z 00432430 f i libcpmtd:wlocale.obj
 0001:00031490       ??_E?$num_put@GV?$ostreambuf_iterator@GU?$char_traits@G@std@@@std@@@std@@MAEPAXI@Z 00432490 f i libcpmtd:wlocale.obj
 0001:00031490       ??_G?$num_put@GV?$ostreambuf_iterator@GU?$char_traits@G@std@@@std@@@std@@MAEPAXI@Z 00432490 f i libcpmtd:wlocale.obj
 0001:000314f0       ??_E?$num_put@_WV?$ostreambuf_iterator@_WU?$char_traits@_W@std@@@std@@@std@@MAEPAXI@Z 004324f0 f i libcpmtd:wlocale.obj
 0001:000314f0       ??_G?$num_put@_WV?$ostreambuf_iterator@_WU?$char_traits@_W@std@@@std@@@std@@MAEPAXI@Z 004324f0 f i libcpmtd:wlocale.obj
 0001:00031550       ??_G?$numpunct@G@std@@MAEPAXI@Z 00432550 f i libcpmtd:wlocale.obj
 0001:00031550       ??_E?$numpunct@G@std@@MAEPAXI@Z 00432550 f i libcpmtd:wlocale.obj
 0001:000315b0       ??_E?$numpunct@_W@std@@MAEPAXI@Z 004325b0 f i libcpmtd:wlocale.obj
 0001:000315b0       ??_G?$numpunct@_W@std@@MAEPAXI@Z 004325b0 f i libcpmtd:wlocale.obj
 0001:00031610       ??_G?$time_get@GV?$istreambuf_iterator@GU?$char_traits@G@std@@@std@@@std@@MAEPAXI@Z 00432610 f i libcpmtd:wlocale.obj
 0001:00031610       ??_E?$time_get@GV?$istreambuf_iterator@GU?$char_traits@G@std@@@std@@@std@@MAEPAXI@Z 00432610 f i libcpmtd:wlocale.obj
 0001:00031670       ??_E?$time_get@_WV?$istreambuf_iterator@_WU?$char_traits@_W@std@@@std@@@std@@MAEPAXI@Z 00432670 f i libcpmtd:wlocale.obj
 0001:00031670       ??_G?$time_get@_WV?$istreambuf_iterator@_WU?$char_traits@_W@std@@@std@@@std@@MAEPAXI@Z 00432670 f i libcpmtd:wlocale.obj
 0001:000316d0       ??_G?$time_put@GV?$ostreambuf_iterator@GU?$char_traits@G@std@@@std@@@std@@MAEPAXI@Z 004326d0 f i libcpmtd:wlocale.obj
 0001:000316d0       ??_E?$time_put@GV?$ostreambuf_iterator@GU?$char_traits@G@std@@@std@@@std@@MAEPAXI@Z 004326d0 f i libcpmtd:wlocale.obj
 0001:00031730       ??_G?$time_put@_WV?$ostreambuf_iterator@_WU?$char_traits@_W@std@@@std@@@std@@MAEPAXI@Z 00432730 f i libcpmtd:wlocale.obj
 0001:00031730       ??_E?$time_put@_WV?$ostreambuf_iterator@_WU?$char_traits@_W@std@@@std@@@std@@MAEPAXI@Z 00432730 f i libcpmtd:wlocale.obj
 0001:00031790       ??_Gmessages_base@std@@UAEPAXI@Z 00432790 f i libcpmtd:wlocale.obj
 0001:00031790       ??_Emessages_base@std@@UAEPAXI@Z 00432790 f i libcpmtd:wlocale.obj
 0001:000317f0       ??_Emoney_base@std@@UAEPAXI@Z 004327f0 f i libcpmtd:wlocale.obj
 0001:000317f0       ??_Gmoney_base@std@@UAEPAXI@Z 004327f0 f i libcpmtd:wlocale.obj
 0001:00031850       ??_Etime_base@std@@UAEPAXI@Z 00432850 f i libcpmtd:wlocale.obj
 0001:00031850       ??_Gtime_base@std@@UAEPAXI@Z 00432850 f i libcpmtd:wlocale.obj
 0001:000318b0       ?_Adopt@_Iterator_base12@std@@QAEXPBU_Container_base12@2@@Z 004328b0 f i libcpmtd:wlocale.obj
 0001:00031920       ?_Adopt_locked@_Iterator_base12@std@@AAEXPAU_Container_proxy@2@@Z 00432920 f i libcpmtd:wlocale.obj
 0001:00031960       ?_Adopt_unlocked@_Iterator_base12@std@@AAEXPAU_Container_proxy@2@@Z 00432960 f i libcpmtd:wlocale.obj
 0001:000319b0       ?_C_str@?$_Yarn@_W@std@@QBEPB_WXZ 004329b0 f i libcpmtd:wlocale.obj
 0001:000319f0       ?_Calculate_growth@?$basic_string@GU?$char_traits@G@std@@V?$allocator@G@2@@std@@ABEII@Z 004329f0 f i libcpmtd:wlocale.obj
 0001:00031a40       ?_Calculate_growth@?$basic_string@GU?$char_traits@G@std@@V?$allocator@G@2@@std@@CAIIII@Z 00432a40 f i libcpmtd:wlocale.obj
 0001:00031ab0       ?_Calculate_growth@?$basic_string@_WU?$char_traits@_W@std@@V?$allocator@_W@2@@std@@ABEII@Z 00432ab0 f i libcpmtd:wlocale.obj
 0001:00031b00       ?_Calculate_growth@?$basic_string@_WU?$char_traits@_W@std@@V?$allocator@_W@2@@std@@CAIIII@Z 00432b00 f i libcpmtd:wlocale.obj
 0001:00031b70       ?_Check_offset@?$_String_val@U?$_Simple_types@G@std@@@std@@QBEXI@Z 00432b70 f i libcpmtd:wlocale.obj
 0001:00031ba0       ?_Check_offset@?$_String_val@U?$_Simple_types@_W@std@@@std@@QBEXI@Z 00432ba0 f i libcpmtd:wlocale.obj
 0001:00031bd0       ?_Compat@?$_String_const_iterator@V?$_String_val@U?$_Simple_types@G@std@@@std@@@std@@QBEXABV12@@Z 00432bd0 f i libcpmtd:wlocale.obj
 0001:00031c60       ?_Compat@?$_String_const_iterator@V?$_String_val@U?$_Simple_types@_W@std@@@std@@@std@@QBEXABV12@@Z 00432c60 f i libcpmtd:wlocale.obj
 0001:00031cf0       ?_Construct_lv_contents@?$basic_string@GU?$char_traits@G@std@@V?$allocator@G@2@@std@@AAEXABV12@@Z 00432cf0 f i libcpmtd:wlocale.obj
 0001:00031e80       ?_Construct_lv_contents@?$basic_string@_WU?$char_traits@_W@std@@V?$allocator@_W@2@@std@@AAEXABV12@@Z 00432e80 f i libcpmtd:wlocale.obj
 0001:00032010       ?_Donarrow@?$ctype@G@std@@IBEDGD@Z 00433010 f i libcpmtd:wlocale.obj
 0001:00032090       ?_Donarrow@?$ctype@_W@std@@IBED_WD@Z 00433090 f i libcpmtd:wlocale.obj
 0001:00032110       ?_Dowiden@?$ctype@G@std@@IBEGD@Z 00433110 f i libcpmtd:wlocale.obj
 0001:00032170       ?_Dowiden@?$ctype@_W@std@@IBE_WD@Z 00433170 f i libcpmtd:wlocale.obj
 0001:000321e0       ?_Empty@?$_Yarn@_W@std@@QBE_NXZ 004331e0 f i libcpmtd:wlocale.obj
 0001:00032220       ?_Eos@?$basic_string@GU?$char_traits@G@std@@V?$allocator@G@2@@std@@AAEXI@Z 00433220 f i libcpmtd:wlocale.obj
 0001:00032280       ?_Eos@?$basic_string@_WU?$char_traits@_W@std@@V?$allocator@_W@2@@std@@AAEXI@Z 00433280 f i libcpmtd:wlocale.obj
 0001:000322e0       ?_Ffmt@?$num_put@GV?$ostreambuf_iterator@GU?$char_traits@G@std@@@std@@@std@@ABAPADPADDH@Z 004332e0 f i libcpmtd:wlocale.obj
 0001:00032440       ?_Ffmt@?$num_put@_WV?$ostreambuf_iterator@_WU?$char_traits@_W@std@@@std@@@std@@ABAPADPADDH@Z 00433440 f i libcpmtd:wlocale.obj
 0001:000325a0       ?_Fnv1a_append_bytes@std@@YAIIQBEI@Z 004335a0 f i libcpmtd:wlocale.obj
 0001:000325f0       ?_Fput@?$num_put@GV?$ostreambuf_iterator@GU?$char_traits@G@std@@@std@@@std@@ABA?AV?$ostreambuf_iterator@GU?$char_traits@G@std@@@2@V32@AAVios_base@2@GPBDI@Z 004335f0 f i libcpmtd:wlocale.obj
 0001:00032c20       ?_Fput@?$num_put@_WV?$ostreambuf_iterator@_WU?$char_traits@_W@std@@@std@@@std@@ABA?AV?$ostreambuf_iterator@_WU?$char_traits@_W@std@@@2@V32@AAVios_base@2@_WPBDI@Z 00433c20 f i libcpmtd:wlocale.obj
 0001:00033250       ?_Get_first@?$_Compressed_pair@V?$allocator@G@std@@V?$_String_val@U?$_Simple_types@G@std@@@2@$00@std@@QAEAAV?$allocator@G@2@XZ 00434250 f i libcpmtd:wlocale.obj
 0001:00033270       ?_Get_first@?$_Compressed_pair@V?$allocator@G@std@@V?$_String_val@U?$_Simple_types@G@std@@@2@$00@std@@QBEABV?$allocator@G@2@XZ 00434270 f i libcpmtd:wlocale.obj
 0001:00033290       ?_Get_first@?$_Compressed_pair@V?$allocator@_W@std@@V?$_String_val@U?$_Simple_types@_W@std@@@2@$00@std@@QAEAAV?$allocator@_W@2@XZ 00434290 f i libcpmtd:wlocale.obj
 0001:000332b0       ?_Get_first@?$_Compressed_pair@V?$allocator@_W@std@@V?$_String_val@U?$_Simple_types@_W@std@@@2@$00@std@@QBEABV?$allocator@_W@2@XZ 004342b0 f i libcpmtd:wlocale.obj
 0001:000332d0       ?_Getal@?$basic_string@GU?$char_traits@G@std@@V?$allocator@G@2@@std@@AAEAAV?$allocator@G@2@XZ 004342d0 f i libcpmtd:wlocale.obj
 0001:000332f0       ?_Getal@?$basic_string@GU?$char_traits@G@std@@V?$allocator@G@2@@std@@ABEABV?$allocator@G@2@XZ 004342f0 f i libcpmtd:wlocale.obj
 0001:00033310       ?_Getal@?$basic_string@_WU?$char_traits@_W@std@@V?$allocator@_W@2@@std@@AAEAAV?$allocator@_W@2@XZ 00434310 f i libcpmtd:wlocale.obj
 0001:00033330       ?_Getal@?$basic_string@_WU?$char_traits@_W@std@@V?$allocator@_W@2@@std@@ABEABV?$allocator@_W@2@XZ 00434330 f i libcpmtd:wlocale.obj
 0001:00033350       ?_Getcat@?$codecvt@GDU_Mbstatet@@@std@@SAIPAPBVfacet@locale@2@PBV42@@Z 00434350 f i libcpmtd:wlocale.obj
 0001:00033470       ?_Getcat@?$codecvt@_WDU_Mbstatet@@@std@@SAIPAPBVfacet@locale@2@PBV42@@Z 00434470 f i libcpmtd:wlocale.obj
 0001:00033590       ?_Getcat@?$collate@G@std@@SAIPAPBVfacet@locale@2@PBV42@@Z 00434590 f i libcpmtd:wlocale.obj
 0001:00033720       ?_Getcat@?$collate@_W@std@@SAIPAPBVfacet@locale@2@PBV42@@Z 00434720 f i libcpmtd:wlocale.obj
 0001:000338b0       ?_Getcat@?$ctype@G@std@@SAIPAPBVfacet@locale@2@PBV42@@Z 004348b0 f i libcpmtd:wlocale.obj
 0001:000339d0       ?_Getcat@?$ctype@_W@std@@SAIPAPBVfacet@locale@2@PBV42@@Z 004349d0 f i libcpmtd:wlocale.obj
 0001:00033af0       ?_Getcat@?$messages@G@std@@SAIPAPBVfacet@locale@2@PBV42@@Z 00434af0 f i libcpmtd:wlocale.obj
 0001:00033c10       ?_Getcat@?$messages@_W@std@@SAIPAPBVfacet@locale@2@PBV42@@Z 00434c10 f i libcpmtd:wlocale.obj
 0001:00033d30       ?_Getcat@?$money_get@GV?$istreambuf_iterator@GU?$char_traits@G@std@@@std@@@std@@SAIPAPBVfacet@locale@2@PBV42@@Z 00434d30 f i libcpmtd:wlocale.obj
 0001:00033e50       ?_Getcat@?$money_get@_WV?$istreambuf_iterator@_WU?$char_traits@_W@std@@@std@@@std@@SAIPAPBVfacet@locale@2@PBV42@@Z 00434e50 f i libcpmtd:wlocale.obj
 0001:00033f70       ?_Getcat@?$money_put@GV?$ostreambuf_iterator@GU?$char_traits@G@std@@@std@@@std@@SAIPAPBVfacet@locale@2@PBV42@@Z 00434f70 f i libcpmtd:wlocale.obj
 0001:00034090       ?_Getcat@?$money_put@_WV?$ostreambuf_iterator@_WU?$char_traits@_W@std@@@std@@@std@@SAIPAPBVfacet@locale@2@PBV42@@Z 00435090 f i libcpmtd:wlocale.obj
 0001:000341b0       ?_Getcat@?$moneypunct@G$00@std@@SAIPAPBVfacet@locale@2@PBV42@@Z 004351b0 f i libcpmtd:wlocale.obj
 0001:000342e0       ?_Getcat@?$moneypunct@G$0A@@std@@SAIPAPBVfacet@locale@2@PBV42@@Z 004352e0 f i libcpmtd:wlocale.obj
 0001:00034410       ?_Getcat@?$moneypunct@_W$00@std@@SAIPAPBVfacet@locale@2@PBV42@@Z 00435410 f i libcpmtd:wlocale.obj
 0001:00034540       ?_Getcat@?$moneypunct@_W$0A@@std@@SAIPAPBVfacet@locale@2@PBV42@@Z 00435540 f i libcpmtd:wlocale.obj
 0001:00034670       ?_Getcat@?$num_get@GV?$istreambuf_iterator@GU?$char_traits@G@std@@@std@@@std@@SAIPAPBVfacet@locale@2@PBV42@@Z 00435670 f i libcpmtd:wlocale.obj
 0001:00034790       ?_Getcat@?$num_get@_WV?$istreambuf_iterator@_WU?$char_traits@_W@std@@@std@@@std@@SAIPAPBVfacet@locale@2@PBV42@@Z 00435790 f i libcpmtd:wlocale.obj
 0001:000348b0       ?_Getcat@?$num_put@GV?$ostreambuf_iterator@GU?$char_traits@G@std@@@std@@@std@@SAIPAPBVfacet@locale@2@PBV42@@Z 004358b0 f i libcpmtd:wlocale.obj
 0001:000349d0       ?_Getcat@?$num_put@_WV?$ostreambuf_iterator@_WU?$char_traits@_W@std@@@std@@@std@@SAIPAPBVfacet@locale@2@PBV42@@Z 004359d0 f i libcpmtd:wlocale.obj
 0001:00034af0       ?_Getcat@?$numpunct@G@std@@SAIPAPBVfacet@locale@2@PBV42@@Z 00435af0 f i libcpmtd:wlocale.obj
 0001:00034c20       ?_Getcat@?$numpunct@_W@std@@SAIPAPBVfacet@locale@2@PBV42@@Z 00435c20 f i libcpmtd:wlocale.obj
 0001:00034d50       ?_Getcat@?$time_get@GV?$istreambuf_iterator@GU?$char_traits@G@std@@@std@@@std@@SAIPAPBVfacet@locale@2@PBV42@@Z 00435d50 f i libcpmtd:wlocale.obj
 0001:00034e70       ?_Getcat@?$time_get@_WV?$istreambuf_iterator@_WU?$char_traits@_W@std@@@std@@@std@@SAIPAPBVfacet@locale@2@PBV42@@Z 00435e70 f i libcpmtd:wlocale.obj
 0001:00034f90       ?_Getcat@?$time_put@GV?$ostreambuf_iterator@GU?$char_traits@G@std@@@std@@@std@@SAIPAPBVfacet@locale@2@PBV42@@Z 00435f90 f i libcpmtd:wlocale.obj
 0001:000350b0       ?_Getcat@?$time_put@_WV?$ostreambuf_iterator@_WU?$char_traits@_W@std@@@std@@@std@@SAIPAPBVfacet@locale@2@PBV42@@Z 004360b0 f i libcpmtd:wlocale.obj
 0001:000351d0       ?_Getcoll@_Locinfo@std@@QBE?AU_Collvec@@XZ 004361d0 f i libcpmtd:wlocale.obj
 0001:00035200       ?_Getcont@_Iterator_base12@std@@QBEPBU_Container_base12@2@XZ 00436200 f i libcpmtd:wlocale.obj
 0001:00035240       ?_Getdateorder@_Locinfo@std@@QBEHXZ 00436240 f i libcpmtd:wlocale.obj
 0001:00035260       ?_Getdays@_Locinfo@std@@QBEPBDXZ 00436260 f i libcpmtd:wlocale.obj
 0001:000352e0       ?_Getffld@?$num_get@GV?$istreambuf_iterator@GU?$char_traits@G@std@@@std@@@std@@ABAHPADAAV?$istreambuf_iterator@GU?$char_traits@G@std@@@2@1AAVios_base@2@PAH@Z 004362e0 f i libcpmtd:wlocale.obj
 0001:00035ef0       ?_Getffld@?$num_get@_WV?$istreambuf_iterator@_WU?$char_traits@_W@std@@@std@@@std@@ABAHPADAAV?$istreambuf_iterator@_WU?$char_traits@_W@std@@@2@1AAVios_base@2@PAH@Z 00436ef0 f i libcpmtd:wlocale.obj
 0001:00036b00       ?_Getffldx@?$num_get@GV?$istreambuf_iterator@GU?$char_traits@G@std@@@std@@@std@@ABAHPADAAV?$istreambuf_iterator@GU?$char_traits@G@std@@@2@1AAVios_base@2@PAH@Z 00437b00 f i libcpmtd:wlocale.obj
 0001:00037890       ?_Getffldx@?$num_get@_WV?$istreambuf_iterator@_WU?$char_traits@_W@std@@@std@@@std@@ABAHPADAAV?$istreambuf_iterator@_WU?$char_traits@_W@std@@@2@1AAVios_base@2@PAH@Z 00438890 f i libcpmtd:wlocale.obj
 0001:00038620       ?_Getfmt@?$time_get@GV?$istreambuf_iterator@GU?$char_traits@G@std@@@std@@@std@@IBE?AV?$istreambuf_iterator@GU?$char_traits@G@std@@@2@V32@0AAVios_base@2@AAHPAUtm@@PBD@Z 00439620 f i libcpmtd:wlocale.obj
 0001:00038850       ?_Getfmt@?$time_get@_WV?$istreambuf_iterator@_WU?$char_traits@_W@std@@@std@@@std@@IBE?AV?$istreambuf_iterator@_WU?$char_traits@_W@std@@@2@V32@0AAVios_base@2@AAHPAUtm@@PBD@Z 00439850 f i libcpmtd:wlocale.obj
 0001:00038a80       ?_Getifld@?$num_get@GV?$istreambuf_iterator@GU?$char_traits@G@std@@@std@@@std@@ABAHPADAAV?$istreambuf_iterator@GU?$char_traits@G@std@@@2@1HABVlocale@2@@Z 00439a80 f i libcpmtd:wlocale.obj
 0001:00039240       ?_Getifld@?$num_get@_WV?$istreambuf_iterator@_WU?$char_traits@_W@std@@@std@@@std@@ABAHPADAAV?$istreambuf_iterator@_WU?$char_traits@_W@std@@@2@1HABVlocale@2@@Z 0043a240 f i libcpmtd:wlocale.obj
 0001:00039a00       ?_Getint@?$time_get@GV?$istreambuf_iterator@GU?$char_traits@G@std@@@std@@@std@@ABAHAAV?$istreambuf_iterator@GU?$char_traits@G@std@@@2@0HHAAHABV?$ctype@G@2@@Z 0043aa00 f i libcpmtd:wlocale.obj
 0001:00039d70       ?_Getint@?$time_get@_WV?$istreambuf_iterator@_WU?$char_traits@_W@std@@@std@@@std@@ABAHAAV?$istreambuf_iterator@_WU?$char_traits@_W@std@@@2@0HHAAHABV?$ctype@_W@2@@Z 0043ad70 f i libcpmtd:wlocale.obj
 0001:0003a0e0       ?_Getmfld@?$money_get@GV?$istreambuf_iterator@GU?$char_traits@G@std@@@std@@@std@@ABE?AV?$basic_string@DU?$char_traits@D@std@@V?$allocator@D@2@@2@AAV?$istreambuf_iterator@GU?$char_traits@G@std@@@2@0_NAAVios_base@2@AAY0M@G@Z 0043b0e0 f i libcpmtd:wlocale.obj
 0001:0003b530       ?_Getmfld@?$money_get@_WV?$istreambuf_iterator@_WU?$char_traits@_W@std@@@std@@@std@@ABE?AV?$basic_string@DU?$char_traits@D@std@@V?$allocator@D@2@@2@AAV?$istreambuf_iterator@_WU?$char_traits@_W@std@@@2@0_NAAVios_base@2@AAY0M@_W@Z 0043c530 f i libcpmtd:wlocale.obj
 0001:0003c980       ?_Getmonths@_Locinfo@std@@QBEPBDXZ 0043d980 f i libcpmtd:wlocale.obj
 0001:0003ca00       ?_Getptr@_Timevec@std@@QBEPAXXZ 0043da00 f i libcpmtd:wlocale.obj
 0001:0003ca20       ?_Getvals@?$_Mpunct@_W@std@@IAEX_WPBUlconv@@@Z 0043da20 f i libcpmtd:wlocale.obj
 0001:0003cb30       ?_Getvals@?$numpunct@_W@std@@IAEX_WPBUlconv@@U_Cvtvec@@@Z 0043db30 f i libcpmtd:wlocale.obj
 0001:0003cb80       ?_Gnavail@?$basic_streambuf@GU?$char_traits@G@std@@@std@@IBE_JXZ 0043db80 f i libcpmtd:wlocale.obj
 0001:0003cbc0       ?_Gnavail@?$basic_streambuf@_WU?$char_traits@_W@std@@@std@@IBE_JXZ 0043dbc0 f i libcpmtd:wlocale.obj
 0001:0003cc00       ?_Gninc@?$basic_streambuf@GU?$char_traits@G@std@@@std@@IAEPAGXZ 0043dc00 f i libcpmtd:wlocale.obj
 0001:0003cc60       ?_Gninc@?$basic_streambuf@_WU?$char_traits@_W@std@@@std@@IAEPA_WXZ 0043dc60 f i libcpmtd:wlocale.obj
 0001:0003ccc0       ?_Ifmt@?$num_put@GV?$ostreambuf_iterator@GU?$char_traits@G@std@@@std@@@std@@ABAPADPADPBDH@Z 0043dcc0 f i libcpmtd:wlocale.obj
 0001:0003ce30       ?_Ifmt@?$num_put@_WV?$ostreambuf_iterator@_WU?$char_traits@_W@std@@@std@@@std@@ABAPADPADPBDH@Z 0043de30 f i libcpmtd:wlocale.obj
 0001:0003cfa0       ?_Inc@?$istreambuf_iterator@GU?$char_traits@G@std@@@std@@AAEXXZ 0043dfa0 f i libcpmtd:wlocale.obj
 0001:0003d020       ?_Inc@?$istreambuf_iterator@_WU?$char_traits@_W@std@@@std@@AAEXXZ 0043e020 f i libcpmtd:wlocale.obj
 0001:0003d0a0       ?_Init@?$_Mpunct@G@std@@IAEXABV_Locinfo@2@_N@Z 0043e0a0 f i libcpmtd:wlocale.obj
 0001:0003d2c0       ?_Init@?$_Mpunct@_W@std@@IAEXABV_Locinfo@2@_N@Z 0043e2c0 f i libcpmtd:wlocale.obj
 0001:0003d4e0       ?_Init@?$codecvt@GDU_Mbstatet@@@std@@IAEXABV_Locinfo@2@@Z 0043e4e0 f i libcpmtd:wlocale.obj
 0001:0003d540       ?_Init@?$codecvt@_WDU_Mbstatet@@@std@@IAEXABV_Locinfo@2@@Z 0043e540 f i libcpmtd:wlocale.obj
 0001:0003d5a0       ?_Init@?$collate@G@std@@IAEXABV_Locinfo@2@@Z 0043e5a0 f i libcpmtd:wlocale.obj
 0001:0003d5e0       ?_Init@?$collate@_W@std@@IAEXABV_Locinfo@2@@Z 0043e5e0 f i libcpmtd:wlocale.obj
 0001:0003d620       ?_Init@?$ctype@G@std@@IAEXABV_Locinfo@2@@Z 0043e620 f i libcpmtd:wlocale.obj
 0001:0003d6b0       ?_Init@?$ctype@_W@std@@IAEXABV_Locinfo@2@@Z 0043e6b0 f i libcpmtd:wlocale.obj
 0001:0003d740       ?_Init@?$messages@G@std@@IAEXABV_Locinfo@2@@Z 0043e740 f i libcpmtd:wlocale.obj
 0001:0003d750       ?_Init@?$messages@_W@std@@IAEXABV_Locinfo@2@@Z 0043e750 f i libcpmtd:wlocale.obj
 0001:0003d760       ?_Init@?$money_get@GV?$istreambuf_iterator@GU?$char_traits@G@std@@@std@@@std@@IAEXABV_Locinfo@2@@Z 0043e760 f i libcpmtd:wlocale.obj
 0001:0003d770       ?_Init@?$money_get@_WV?$istreambuf_iterator@_WU?$char_traits@_W@std@@@std@@@std@@IAEXABV_Locinfo@2@@Z 0043e770 f i libcpmtd:wlocale.obj
 0001:0003d780       ?_Init@?$money_put@GV?$ostreambuf_iterator@GU?$char_traits@G@std@@@std@@@std@@IAEXABV_Locinfo@2@@Z 0043e780 f i libcpmtd:wlocale.obj
 0001:0003d790       ?_Init@?$money_put@_WV?$ostreambuf_iterator@_WU?$char_traits@_W@std@@@std@@@std@@IAEXABV_Locinfo@2@@Z 0043e790 f i libcpmtd:wlocale.obj
 0001:0003d7a0       ?_Init@?$num_get@GV?$istreambuf_iterator@GU?$char_traits@G@std@@@std@@@std@@IAEXABV_Locinfo@2@@Z 0043e7a0 f i libcpmtd:wlocale.obj
 0001:0003d7b0       ?_Init@?$num_get@_WV?$istreambuf_iterator@_WU?$char_traits@_W@std@@@std@@@std@@IAEXABV_Locinfo@2@@Z 0043e7b0 f i libcpmtd:wlocale.obj
 0001:0003d7c0       ?_Init@?$num_put@GV?$ostreambuf_iterator@GU?$char_traits@G@std@@@std@@@std@@IAEXABV_Locinfo@2@@Z 0043e7c0 f i libcpmtd:wlocale.obj
 0001:0003d7d0       ?_Init@?$num_put@_WV?$ostreambuf_iterator@_WU?$char_traits@_W@std@@@std@@@std@@IAEXABV_Locinfo@2@@Z 0043e7d0 f i libcpmtd:wlocale.obj
 0001:0003d7e0       ?_Init@?$numpunct@G@std@@IAEXABV_Locinfo@2@_N@Z 0043e7e0 f i libcpmtd:wlocale.obj
 0001:0003d9b0       ?_Init@?$numpunct@_W@std@@IAEXABV_Locinfo@2@_N@Z 0043e9b0 f i libcpmtd:wlocale.obj
 0001:0003db80       ?_Init@?$time_get@GV?$istreambuf_iterator@GU?$char_traits@G@std@@@std@@@std@@IAEXABV_Locinfo@2@@Z 0043eb80 f i libcpmtd:wlocale.obj
 0001:0003dc40       ?_Init@?$time_get@_WV?$istreambuf_iterator@_WU?$char_traits@_W@std@@@std@@@std@@IAEXABV_Locinfo@2@@Z 0043ec40 f i libcpmtd:wlocale.obj
 0001:0003dd00       ?_Init@?$time_put@GV?$ostreambuf_iterator@GU?$char_traits@G@std@@@std@@@std@@IAEXABV_Locinfo@2@@Z 0043ed00 f i libcpmtd:wlocale.obj
 0001:0003dd90       ?_Init@?$time_put@_WV?$ostreambuf_iterator@_WU?$char_traits@_W@std@@@std@@@std@@IAEXABV_Locinfo@2@@Z 0043ed90 f i libcpmtd:wlocale.obj
 0001:0003de20       ?_Iput@?$num_put@GV?$ostreambuf_iterator@GU?$char_traits@G@std@@@std@@@std@@ABA?AV?$ostreambuf_iterator@GU?$char_traits@G@std@@@2@V32@AAVios_base@2@GPADI@Z 0043ee20 f i libcpmtd:wlocale.obj
 0001:0003e350       ?_Iput@?$num_put@_WV?$ostreambuf_iterator@_WU?$char_traits@_W@std@@@std@@@std@@ABA?AV?$ostreambuf_iterator@_WU?$char_traits@_W@std@@@2@V32@AAVios_base@2@_WPADI@Z 0043f350 f i libcpmtd:wlocale.obj
 0001:0003e880       ?_Large_string_engaged@?$_String_val@U?$_Simple_types@G@std@@@std@@QBE_NXZ 0043f880 f i libcpmtd:wlocale.obj
 0001:0003e8d0       ?_Large_string_engaged@?$_String_val@U?$_Simple_types@_W@std@@@std@@QBE_NXZ 0043f8d0 f i libcpmtd:wlocale.obj
 0001:0003e920       ?_Makeushloc@_Locimp@locale@std@@CAXABV_Locinfo@3@HPAV123@PBV23@@Z 0043f920 f   libcpmtd:wlocale.obj
 0001:0003f700       ?_Makewloc@_Locimp@locale@std@@CAXABV_Locinfo@3@HPAV123@PBV23@@Z 00440700 f   libcpmtd:wlocale.obj
 0001:000404e0       ?_Maklocwcs@std@@YAPA_WPB_W@Z 004414e0 f i libcpmtd:wlocale.obj
 0001:00040550       ?_Makpat@?$_Mpunct@G@std@@AAEXAAUpattern@money_base@2@III@Z 00441550 f i libcpmtd:wlocale.obj
 0001:000405d0       ?_Makpat@?$_Mpunct@_W@std@@AAEXAAUpattern@money_base@2@III@Z 004415d0 f i libcpmtd:wlocale.obj
 0001:00040650       ?_Memcpy_val_from@?$basic_string@GU?$char_traits@G@std@@V?$allocator@G@2@@std@@AAEXABV12@@Z 00441650 f i libcpmtd:wlocale.obj
 0001:000406b0       ?_Memcpy_val_from@?$basic_string@_WU?$char_traits@_W@std@@V?$allocator@_W@2@@std@@AAEXABV12@@Z 004416b0 f i libcpmtd:wlocale.obj
 0001:00040710       ?_Move_assign@?$basic_string@GU?$char_traits@G@std@@V?$allocator@G@2@@std@@AAEXAAV12@U_Equal_allocators@2@@Z 00441710 f i libcpmtd:wlocale.obj
 0001:00040770       ?_Move_assign@?$basic_string@_WU?$char_traits@_W@std@@V?$allocator@_W@2@@std@@AAEXAAV12@U_Equal_allocators@2@@Z 00441770 f i libcpmtd:wlocale.obj
 0001:000407d0       ?_Myptr@?$_String_val@U?$_Simple_types@G@std@@@std@@QAEPAGXZ 004417d0 f i libcpmtd:wlocale.obj
 0001:00040820       ?_Myptr@?$_String_val@U?$_Simple_types@G@std@@@std@@QBEPBGXZ 00441820 f i libcpmtd:wlocale.obj
 0001:00040870       ?_Myptr@?$_String_val@U?$_Simple_types@_W@std@@@std@@QAEPA_WXZ 00441870 f i libcpmtd:wlocale.obj
 0001:000408c0       ?_Myptr@?$_String_val@U?$_Simple_types@_W@std@@@std@@QBEPB_WXZ 004418c0 f i libcpmtd:wlocale.obj
 0001:00040910       ?_Orphan_me_locked@_Iterator_base12@std@@AAEXXZ 00441910 f i libcpmtd:wlocale.obj
 0001:00040940       ?_Orphan_me_unlocked@_Iterator_base12@std@@AAEXXZ 00441940 f i libcpmtd:wlocale.obj
 0001:00040a10       ?_Orphan_me_v2@_Iterator_base12@std@@QAEXXZ 00441a10 f i libcpmtd:wlocale.obj
 0001:00040a50       ?_Peek@?$istreambuf_iterator@GU?$char_traits@G@std@@@std@@ABEGXZ 00441a50 f i libcpmtd:wlocale.obj
 0001:00040ae0       ?_Peek@?$istreambuf_iterator@_WU?$char_traits@_W@std@@@std@@ABE_WXZ 00441ae0 f i libcpmtd:wlocale.obj
 0001:00040b70       ?_Pnavail@?$basic_streambuf@GU?$char_traits@G@std@@@std@@IBE_JXZ 00441b70 f i libcpmtd:wlocale.obj
 0001:00040bb0       ?_Pnavail@?$basic_streambuf@_WU?$char_traits@_W@std@@@std@@IBE_JXZ 00441bb0 f i libcpmtd:wlocale.obj
 0001:00040bf0       ?_Pninc@?$basic_streambuf@GU?$char_traits@G@std@@@std@@IAEPAGXZ 00441bf0 f i libcpmtd:wlocale.obj
 0001:00040c50       ?_Pninc@?$basic_streambuf@_WU?$char_traits@_W@std@@@std@@IAEPA_WXZ 00441c50 f i libcpmtd:wlocale.obj
 0001:00040cb0       ?_Put@?$money_put@GV?$ostreambuf_iterator@GU?$char_traits@G@std@@@std@@@std@@CA?AV?$ostreambuf_iterator@GU?$char_traits@G@std@@@2@V32@V?$_String_const_iterator@V?$_String_val@U?$_Simple_types@G@std@@@std@@@2@I@Z 00441cb0 f i libcpmtd:wlocale.obj
 0001:00040d80       ?_Put@?$money_put@_WV?$ostreambuf_iterator@_WU?$char_traits@_W@std@@@std@@@std@@CA?AV?$ostreambuf_iterator@_WU?$char_traits@_W@std@@@2@V32@V?$_String_const_iterator@V?$_String_val@U?$_Simple_types@_W@std@@@std@@@2@I@Z 00441d80 f i libcpmtd:wlocale.obj
 0001:00040e50       ?_Put@?$num_put@GV?$ostreambuf_iterator@GU?$char_traits@G@std@@@std@@@std@@ABA?AV?$ostreambuf_iterator@GU?$char_traits@G@std@@@2@V32@PBGI@Z 00441e50 f i libcpmtd:wlocale.obj
 0001:00040ed0       ?_Put@?$num_put@_WV?$ostreambuf_iterator@_WU?$char_traits@_W@std@@@std@@@std@@ABA?AV?$ostreambuf_iterator@_WU?$char_traits@_W@std@@@2@V32@PB_WI@Z 00441ed0 f i libcpmtd:wlocale.obj
 0001:00040f50       ?_Putmfld@?$money_put@GV?$ostreambuf_iterator@GU?$char_traits@G@std@@@std@@@std@@ABE?AV?$ostreambuf_iterator@GU?$char_traits@G@std@@@2@V32@_NAAVios_base@2@G1V?$basic_string@GU?$char_traits@G@std@@V?$allocator@G@2@@2@G@Z 00441f50 f i libcpmtd:wlocale.obj
 0001:00042160       ?_Putmfld@?$money_put@_WV?$ostreambuf_iterator@_WU?$char_traits@_W@std@@@std@@@std@@ABE?AV?$ostreambuf_iterator@_WU?$char_traits@_W@std@@@2@V32@_NAAVios_base@2@_W1V?$basic_string@_WU?$char_traits@_W@std@@V?$allocator@_W@2@@2@3@Z 00443160 f i libcpmtd:wlocale.obj
 0001:00043370       ?_Rep@?$money_put@GV?$ostreambuf_iterator@GU?$char_traits@G@std@@@std@@@std@@CA?AV?$ostreambuf_iterator@GU?$char_traits@G@std@@@2@V32@GI@Z 00444370 f i libcpmtd:wlocale.obj
 0001:000433d0       ?_Rep@?$money_put@_WV?$ostreambuf_iterator@_WU?$char_traits@_W@std@@@std@@@std@@CA?AV?$ostreambuf_iterator@_WU?$char_traits@_W@std@@@2@V32@_WI@Z 004443d0 f i libcpmtd:wlocale.obj
 0001:00043430       ?_Rep@?$num_put@GV?$ostreambuf_iterator@GU?$char_traits@G@std@@@std@@@std@@ABA?AV?$ostreambuf_iterator@GU?$char_traits@G@std@@@2@V32@GI@Z 00444430 f i libcpmtd:wlocale.obj
 0001:00043490       ?_Rep@?$num_put@_WV?$ostreambuf_iterator@_WU?$char_traits@_W@std@@@std@@@std@@ABA?AV?$ostreambuf_iterator@_WU?$char_traits@_W@std@@@2@V32@_WI@Z 00444490 f i libcpmtd:wlocale.obj
 0001:000434f0       ?_Swap_proxy_and_iterators@?$basic_string@GU?$char_traits@G@std@@V?$allocator@G@2@@std@@AAEXAAV12@@Z 004444f0 f i libcpmtd:wlocale.obj
 0001:00043520       ?_Swap_proxy_and_iterators@?$basic_string@_WU?$char_traits@_W@std@@V?$allocator@_W@2@@std@@AAEXAAV12@@Z 00444520 f i libcpmtd:wlocale.obj
 0001:00043550       ?_Take_contents@?$basic_string@GU?$char_traits@G@std@@V?$allocator@G@2@@std@@AAEXAAV12@@Z 00444550 f i libcpmtd:wlocale.obj
 0001:000436b0       ?_Take_contents@?$basic_string@_WU?$char_traits@_W@std@@V?$allocator@_W@2@@std@@AAEXAAV12@@Z 004446b0 f i libcpmtd:wlocale.obj
 0001:00043810       ?_Tidy@?$_Mpunct@G@std@@AAEXXZ 00444810 f i libcpmtd:wlocale.obj
 0001:00043870       ?_Tidy@?$_Mpunct@_W@std@@AAEXXZ 00444870 f i libcpmtd:wlocale.obj
 0001:000438d0       ?_Tidy@?$numpunct@G@std@@AAEXXZ 004448d0 f i libcpmtd:wlocale.obj
 0001:00043920       ?_Tidy@?$numpunct@_W@std@@AAEXXZ 00444920 f i libcpmtd:wlocale.obj
 0001:00043970       ?_Tidy@?$time_get@GV?$istreambuf_iterator@GU?$char_traits@G@std@@@std@@@std@@AAEXXZ 00444970 f i libcpmtd:wlocale.obj
 0001:000439c0       ?_Tidy@?$time_get@_WV?$istreambuf_iterator@_WU?$char_traits@_W@std@@@std@@@std@@AAEXXZ 004449c0 f i libcpmtd:wlocale.obj
 0001:00043a10       ?_Tidy_deallocate@?$basic_string@GU?$char_traits@G@std@@V?$allocator@G@2@@std@@AAEXXZ 00444a10 f i libcpmtd:wlocale.obj
 0001:00043b40       ?_Tidy_deallocate@?$basic_string@_WU?$char_traits@_W@std@@V?$allocator@_W@2@@std@@AAEXXZ 00444b40 f i libcpmtd:wlocale.obj
 0001:00043c70       ?_Tidy_init@?$basic_string@GU?$char_traits@G@std@@V?$allocator@G@2@@std@@AAEXXZ 00444c70 f i libcpmtd:wlocale.obj
 0001:00043d80       ?_Tidy_init@?$basic_string@_WU?$char_traits@_W@std@@V?$allocator@_W@2@@std@@AAEXXZ 00444d80 f i libcpmtd:wlocale.obj
 0001:00043e90       ?_Verify_offset@?$_String_const_iterator@V?$_String_val@U?$_Simple_types@G@std@@@std@@@std@@QBEXH@Z 00444e90 f i libcpmtd:wlocale.obj
 0001:000440c0       ?_Verify_offset@?$_String_const_iterator@V?$_String_val@U?$_Simple_types@_W@std@@@std@@@std@@QBEXH@Z 004450c0 f i libcpmtd:wlocale.obj
 0001:000442f0       ?_W_Getdays@_Locinfo@std@@QBEPBGXZ 004452f0 f i libcpmtd:wlocale.obj
 0001:00044370       ?_W_Getmonths@_Locinfo@std@@QBEPBGXZ 00445370 f i libcpmtd:wlocale.obj
 0001:000443f0       ?_W_Gettnames@_Locinfo@std@@QBE?AV_Timevec@2@XZ 004453f0 f i libcpmtd:wlocale.obj
 0001:00044430       ?_Xran@?$_String_val@U?$_Simple_types@G@std@@@std@@SAXXZ 00445430 f i libcpmtd:wlocale.obj
 0001:00044450       ?_Xran@?$_String_val@U?$_Simple_types@_W@std@@@std@@SAXXZ 00445450 f i libcpmtd:wlocale.obj
 0001:00044470       ?allocate@?$allocator@G@std@@QAEPAGI@Z 00445470 f i libcpmtd:wlocale.obj
 0001:000444a0       ?allocate@?$allocator@_W@std@@QAEPA_WI@Z 004454a0 f i libcpmtd:wlocale.obj
 0001:000444d0       ?append@?$basic_string@GU?$char_traits@G@std@@V?$allocator@G@2@@std@@QAEAAV12@ABV12@@Z 004454d0 f i libcpmtd:wlocale.obj
 0001:00044510       ?append@?$basic_string@GU?$char_traits@G@std@@V?$allocator@G@2@@std@@QAEAAV12@IG@Z 00445510 f i libcpmtd:wlocale.obj
 0001:000445d0       ?append@?$basic_string@GU?$char_traits@G@std@@V?$allocator@G@2@@std@@QAEAAV12@QBGI@Z 004455d0 f i libcpmtd:wlocale.obj
 0001:00044690       ?append@?$basic_string@_WU?$char_traits@_W@std@@V?$allocator@_W@2@@std@@QAEAAV12@ABV12@@Z 00445690 f i libcpmtd:wlocale.obj
 0001:000446d0       ?append@?$basic_string@_WU?$char_traits@_W@std@@V?$allocator@_W@2@@std@@QAEAAV12@I_W@Z 004456d0 f i libcpmtd:wlocale.obj
 0001:00044790       ?append@?$basic_string@_WU?$char_traits@_W@std@@V?$allocator@_W@2@@std@@QAEAAV12@QB_WI@Z 00445790 f i libcpmtd:wlocale.obj
 0001:00044850       ?assign@?$_Char_traits@GG@std@@SAPAGQAGIG@Z 00445850 f i libcpmtd:wlocale.obj
 0001:000448f0       ?assign@?$_Char_traits@_WG@std@@SAPA_WQA_WI_W@Z 004458f0 f i libcpmtd:wlocale.obj
 0001:00044990       ?assign@?$_WChar_traits@G@std@@SAPAGQAGIG@Z 00445990 f i libcpmtd:wlocale.obj
 0001:000449e0       ?assign@?$_WChar_traits@G@std@@SAXAAGABG@Z 004459e0 f i libcpmtd:wlocale.obj
 0001:00044a00       ?assign@?$_WChar_traits@_W@std@@SAPA_WQA_WI_W@Z 00445a00 f i libcpmtd:wlocale.obj
 0001:00044a50       ?assign@?$_WChar_traits@_W@std@@SAXAA_WAB_W@Z 00445a50 f i libcpmtd:wlocale.obj
 0001:00044a70       ?assign@?$basic_string@GU?$char_traits@G@std@@V?$allocator@G@2@@std@@QAEAAV12@$$QAV12@@Z 00445a70 f i libcpmtd:wlocale.obj
 0001:00044aa0       ?assign@?$basic_string@GU?$char_traits@G@std@@V?$allocator@G@2@@std@@QAEAAV12@IG@Z 00445aa0 f i libcpmtd:wlocale.obj
 0001:00044b40       ?assign@?$basic_string@GU?$char_traits@G@std@@V?$allocator@G@2@@std@@QAEAAV12@QBG@Z 00445b40 f i libcpmtd:wlocale.obj
 0001:00044b80       ?assign@?$basic_string@GU?$char_traits@G@std@@V?$allocator@G@2@@std@@QAEAAV12@QBGI@Z 00445b80 f i libcpmtd:wlocale.obj
 0001:00044c20       ?assign@?$basic_string@_WU?$char_traits@_W@std@@V?$allocator@_W@2@@std@@QAEAAV12@$$QAV12@@Z 00445c20 f i libcpmtd:wlocale.obj
 0001:00044c50       ?assign@?$basic_string@_WU?$char_traits@_W@std@@V?$allocator@_W@2@@std@@QAEAAV12@I_W@Z 00445c50 f i libcpmtd:wlocale.obj
 0001:00044cf0       ?assign@?$basic_string@_WU?$char_traits@_W@std@@V?$allocator@_W@2@@std@@QAEAAV12@QB_W@Z 00445cf0 f i libcpmtd:wlocale.obj
 0001:00044d30       ?assign@?$basic_string@_WU?$char_traits@_W@std@@V?$allocator@_W@2@@std@@QAEAAV12@QB_WI@Z 00445d30 f i libcpmtd:wlocale.obj
 0001:00044dd0       ?begin@?$basic_string@GU?$char_traits@G@std@@V?$allocator@G@2@@std@@QAE?AV?$_String_iterator@V?$_String_val@U?$_Simple_types@G@std@@@std@@@2@XZ 00445dd0 f i libcpmtd:wlocale.obj
 0001:00044e30       ?begin@?$basic_string@_WU?$char_traits@_W@std@@V?$allocator@_W@2@@std@@QAE?AV?$_String_iterator@V?$_String_val@U?$_Simple_types@_W@std@@@std@@@2@XZ 00445e30 f i libcpmtd:wlocale.obj
 0001:00044e90       ?c_str@?$basic_string@GU?$char_traits@G@std@@V?$allocator@G@2@@std@@QBEPBGXZ 00445e90 f i libcpmtd:wlocale.obj
 0001:00044eb0       ?c_str@?$basic_string@_WU?$char_traits@_W@std@@V?$allocator@_W@2@@std@@QBEPB_WXZ 00445eb0 f i libcpmtd:wlocale.obj
 0001:00044ed0       ?copy@?$_Char_traits@GG@std@@SAPAGQAGQBGI@Z 00445ed0 f i libcpmtd:wlocale.obj
 0001:00044f50       ?copy@?$_Char_traits@_WG@std@@SAPA_WQA_WQB_WI@Z 00445f50 f i libcpmtd:wlocale.obj
 0001:00044fd0       ?curr_symbol@?$_Mpunct@G@std@@QBE?AV?$basic_string@GU?$char_traits@G@std@@V?$allocator@G@2@@2@XZ 00445fd0 f i libcpmtd:wlocale.obj
 0001:00045030       ?curr_symbol@?$_Mpunct@_W@std@@QBE?AV?$basic_string@_WU?$char_traits@_W@std@@V?$allocator@_W@2@@2@XZ 00446030 f i libcpmtd:wlocale.obj
 0001:00045090       ?date_order@?$time_get@GV?$istreambuf_iterator@GU?$char_traits@G@std@@@std@@@std@@QBE?AW4dateorder@time_base@2@XZ 00446090 f i libcpmtd:wlocale.obj
 0001:000450c0       ?date_order@?$time_get@_WV?$istreambuf_iterator@_WU?$char_traits@_W@std@@@std@@@std@@QBE?AW4dateorder@time_base@2@XZ 004460c0 f i libcpmtd:wlocale.obj
 0001:000450f0       ?deallocate@?$allocator@G@std@@QAEXQAGI@Z 004460f0 f i libcpmtd:wlocale.obj
 0001:00045120       ?deallocate@?$allocator@_W@std@@QAEXQA_WI@Z 00446120 f i libcpmtd:wlocale.obj
 0001:00045150       ?decimal_point@?$_Mpunct@G@std@@QBEGXZ 00446150 f i libcpmtd:wlocale.obj
 0001:00045180       ?decimal_point@?$_Mpunct@_W@std@@QBE_WXZ 00446180 f i libcpmtd:wlocale.obj
 0001:000451b0       ?decimal_point@?$numpunct@G@std@@QBEGXZ 004461b0 f i libcpmtd:wlocale.obj
 0001:000451e0       ?decimal_point@?$numpunct@_W@std@@QBE_WXZ 004461e0 f i libcpmtd:wlocale.obj
 0001:00045210       ?do_always_noconv@?$codecvt@GDU_Mbstatet@@@std@@MBE_NXZ 00446210 f i libcpmtd:wlocale.obj
 0001:00045220       ?do_always_noconv@?$codecvt@_WDU_Mbstatet@@@std@@MBE_NXZ 00446220 f i libcpmtd:wlocale.obj
 0001:00045230       ?do_close@?$messages@G@std@@MBEXH@Z 00446230 f i libcpmtd:wlocale.obj
 0001:00045240       ?do_close@?$messages@_W@std@@MBEXH@Z 00446240 f i libcpmtd:wlocale.obj
 0001:00045250       ?do_compare@?$collate@G@std@@MBEHPBG000@Z 00446250 f i libcpmtd:wlocale.obj
 0001:000452f0       ?do_compare@?$collate@_W@std@@MBEHPB_W000@Z 004462f0 f i libcpmtd:wlocale.obj
 0001:00045390       ?do_curr_symbol@?$_Mpunct@G@std@@MBE?AV?$basic_string@GU?$char_traits@G@std@@V?$allocator@G@2@@2@XZ 00446390 f i libcpmtd:wlocale.obj
 0001:000453d0       ?do_curr_symbol@?$_Mpunct@_W@std@@MBE?AV?$basic_string@_WU?$char_traits@_W@std@@V?$allocator@_W@2@@2@XZ 004463d0 f i libcpmtd:wlocale.obj
 0001:00045410       ?do_date_order@?$time_get@GV?$istreambuf_iterator@GU?$char_traits@G@std@@@std@@@std@@MBE?AW4dateorder@time_base@2@XZ 00446410 f i libcpmtd:wlocale.obj
 0001:00045430       ?do_date_order@?$time_get@_WV?$istreambuf_iterator@_WU?$char_traits@_W@std@@@std@@@std@@MBE?AW4dateorder@time_base@2@XZ 00446430 f i libcpmtd:wlocale.obj
 0001:00045450       ?do_decimal_point@?$_Mpunct@G@std@@MBEGXZ 00446450 f i libcpmtd:wlocale.obj
 0001:00045470       ?do_decimal_point@?$_Mpunct@_W@std@@MBE_WXZ 00446470 f i libcpmtd:wlocale.obj
 0001:00045490       ?do_decimal_point@?$numpunct@G@std@@MBEGXZ 00446490 f i libcpmtd:wlocale.obj
 0001:000454b0       ?do_decimal_point@?$numpunct@_W@std@@MBE_WXZ 004464b0 f i libcpmtd:wlocale.obj
 0001:000454d0       ?do_encoding@?$codecvt@GDU_Mbstatet@@@std@@MBEHXZ 004464d0 f i libcpmtd:wlocale.obj
 0001:00045510       ?do_encoding@?$codecvt@_WDU_Mbstatet@@@std@@MBEHXZ 00446510 f i libcpmtd:wlocale.obj
 0001:00045550       ?do_falsename@?$numpunct@G@std@@MBE?AV?$basic_string@GU?$char_traits@G@std@@V?$allocator@G@2@@2@XZ 00446550 f i libcpmtd:wlocale.obj
 0001:00045590       ?do_falsename@?$numpunct@_W@std@@MBE?AV?$basic_string@_WU?$char_traits@_W@std@@V?$allocator@_W@2@@2@XZ 00446590 f i libcpmtd:wlocale.obj
 0001:000455d0       ?do_frac_digits@?$_Mpunct@G@std@@MBEHXZ 004465d0 f i libcpmtd:wlocale.obj
 0001:000455f0       ?do_frac_digits@?$_Mpunct@_W@std@@MBEHXZ 004465f0 f i libcpmtd:wlocale.obj
 0001:00045610       ?do_get@?$messages@G@std@@MBE?AV?$basic_string@GU?$char_traits@G@std@@V?$allocator@G@2@@2@HHHABV32@@Z 00446610 f i libcpmtd:wlocale.obj
 0001:00045650       ?do_get@?$messages@_W@std@@MBE?AV?$basic_string@_WU?$char_traits@_W@std@@V?$allocator@_W@2@@2@HHHABV32@@Z 00446650 f i libcpmtd:wlocale.obj
 0001:00045690       ?do_get@?$money_get@GV?$istreambuf_iterator@GU?$char_traits@G@std@@@std@@@std@@MBE?AV?$istreambuf_iterator@GU?$char_traits@G@std@@@2@V32@0_NAAVios_base@2@AAHAAO@Z 00446690 f i libcpmtd:wlocale.obj
 0001:00045800       ?do_get@?$money_get@GV?$istreambuf_iterator@GU?$char_traits@G@std@@@std@@@std@@MBE?AV?$istreambuf_iterator@GU?$char_traits@G@std@@@2@V32@0_NAAVios_base@2@AAHAAV?$basic_string@GU?$char_traits@G@std@@V?$allocator@G@2@@2@@Z 00446800 f i libcpmtd:wlocale.obj
 0001:000459d0       ?do_get@?$money_get@_WV?$istreambuf_iterator@_WU?$char_traits@_W@std@@@std@@@std@@MBE?AV?$istreambuf_iterator@_WU?$char_traits@_W@std@@@2@V32@0_NAAVios_base@2@AAHAAO@Z 004469d0 f i libcpmtd:wlocale.obj
 0001:00045b40       ?do_get@?$money_get@_WV?$istreambuf_iterator@_WU?$char_traits@_W@std@@@std@@@std@@MBE?AV?$istreambuf_iterator@_WU?$char_traits@_W@std@@@2@V32@0_NAAVios_base@2@AAHAAV?$basic_string@_WU?$char_traits@_W@std@@V?$allocator@_W@2@@2@@Z 00446b40 f i libcpmtd:wlocale.obj
 0001:00045d10       ?do_get@?$num_get@GV?$istreambuf_iterator@GU?$char_traits@G@std@@@std@@@std@@MBE?AV?$istreambuf_iterator@GU?$char_traits@G@std@@@2@V32@0AAVios_base@2@AAHAAG@Z 00446d10 f i libcpmtd:wlocale.obj
 0001:00045f40       ?do_get@?$num_get@GV?$istreambuf_iterator@GU?$char_traits@G@std@@@std@@@std@@MBE?AV?$istreambuf_iterator@GU?$char_traits@G@std@@@2@V32@0AAVios_base@2@AAHAAI@Z 00446f40 f i libcpmtd:wlocale.obj
 0001:00045fc0       ?do_get@?$num_get@GV?$istreambuf_iterator@GU?$char_traits@G@std@@@std@@@std@@MBE?AV?$istreambuf_iterator@GU?$char_traits@G@std@@@2@V32@0AAVios_base@2@AAHAAJ@Z 00446fc0 f i libcpmtd:wlocale.obj
 0001:00046160       ?do_get@?$num_get@GV?$istreambuf_iterator@GU?$char_traits@G@std@@@std@@@std@@MBE?AV?$istreambuf_iterator@GU?$char_traits@G@std@@@2@V32@0AAVios_base@2@AAHAAK@Z 00447160 f i libcpmtd:wlocale.obj
 0001:00046300       ?do_get@?$num_get@GV?$istreambuf_iterator@GU?$char_traits@G@std@@@std@@@std@@MBE?AV?$istreambuf_iterator@GU?$char_traits@G@std@@@2@V32@0AAVios_base@2@AAHAAM@Z 00447300 f i libcpmtd:wlocale.obj
 0001:000464b0       ?do_get@?$num_get@GV?$istreambuf_iterator@GU?$char_traits@G@std@@@std@@@std@@MBE?AV?$istreambuf_iterator@GU?$char_traits@G@std@@@2@V32@0AAVios_base@2@AAHAAN@Z 004474b0 f i libcpmtd:wlocale.obj
 0001:00046660       ?do_get@?$num_get@GV?$istreambuf_iterator@GU?$char_traits@G@std@@@std@@@std@@MBE?AV?$istreambuf_iterator@GU?$char_traits@G@std@@@2@V32@0AAVios_base@2@AAHAAO@Z 00447660 f i libcpmtd:wlocale.obj
 0001:000466e0       ?do_get@?$num_get@GV?$istreambuf_iterator@GU?$char_traits@G@std@@@std@@@std@@MBE?AV?$istreambuf_iterator@GU?$char_traits@G@std@@@2@V32@0AAVios_base@2@AAHAAPAX@Z 004476e0 f i libcpmtd:wlocale.obj
 0001:00046870       ?do_get@?$num_get@GV?$istreambuf_iterator@GU?$char_traits@G@std@@@std@@@std@@MBE?AV?$istreambuf_iterator@GU?$char_traits@G@std@@@2@V32@0AAVios_base@2@AAHAA_J@Z 00447870 f i libcpmtd:wlocale.obj
 0001:00046a10       ?do_get@?$num_get@GV?$istreambuf_iterator@GU?$char_traits@G@std@@@std@@@std@@MBE?AV?$istreambuf_iterator@GU?$char_traits@G@std@@@2@V32@0AAVios_base@2@AAHAA_K@Z 00447a10 f i libcpmtd:wlocale.obj
 0001:00046bb0       ?do_get@?$num_get@GV?$istreambuf_iterator@GU?$char_traits@G@std@@@std@@@std@@MBE?AV?$istreambuf_iterator@GU?$char_traits@G@std@@@2@V32@0AAVios_base@2@AAHAA_N@Z 00447bb0 f i libcpmtd:wlocale.obj
 0001:00046fc0       ?do_get@?$num_get@_WV?$istreambuf_iterator@_WU?$char_traits@_W@std@@@std@@@std@@MBE?AV?$istreambuf_iterator@_WU?$char_traits@_W@std@@@2@V32@0AAVios_base@2@AAHAAG@Z 00447fc0 f i libcpmtd:wlocale.obj
 0001:000471f0       ?do_get@?$num_get@_WV?$istreambuf_iterator@_WU?$char_traits@_W@std@@@std@@@std@@MBE?AV?$istreambuf_iterator@_WU?$char_traits@_W@std@@@2@V32@0AAVios_base@2@AAHAAI@Z 004481f0 f i libcpmtd:wlocale.obj
 0001:00047270       ?do_get@?$num_get@_WV?$istreambuf_iterator@_WU?$char_traits@_W@std@@@std@@@std@@MBE?AV?$istreambuf_iterator@_WU?$char_traits@_W@std@@@2@V32@0AAVios_base@2@AAHAAJ@Z 00448270 f i libcpmtd:wlocale.obj
 0001:00047410       ?do_get@?$num_get@_WV?$istreambuf_iterator@_WU?$char_traits@_W@std@@@std@@@std@@MBE?AV?$istreambuf_iterator@_WU?$char_traits@_W@std@@@2@V32@0AAVios_base@2@AAHAAK@Z 00448410 f i libcpmtd:wlocale.obj
 0001:000475b0       ?do_get@?$num_get@_WV?$istreambuf_iterator@_WU?$char_traits@_W@std@@@std@@@std@@MBE?AV?$istreambuf_iterator@_WU?$char_traits@_W@std@@@2@V32@0AAVios_base@2@AAHAAM@Z 004485b0 f i libcpmtd:wlocale.obj
 0001:00047760       ?do_get@?$num_get@_WV?$istreambuf_iterator@_WU?$char_traits@_W@std@@@std@@@std@@MBE?AV?$istreambuf_iterator@_WU?$char_traits@_W@std@@@2@V32@0AAVios_base@2@AAHAAN@Z 00448760 f i libcpmtd:wlocale.obj
 0001:00047910       ?do_get@?$num_get@_WV?$istreambuf_iterator@_WU?$char_traits@_W@std@@@std@@@std@@MBE?AV?$istreambuf_iterator@_WU?$char_traits@_W@std@@@2@V32@0AAVios_base@2@AAHAAO@Z 00448910 f i libcpmtd:wlocale.obj
 0001:00047990       ?do_get@?$num_get@_WV?$istreambuf_iterator@_WU?$char_traits@_W@std@@@std@@@std@@MBE?AV?$istreambuf_iterator@_WU?$char_traits@_W@std@@@2@V32@0AAVios_base@2@AAHAAPAX@Z 00448990 f i libcpmtd:wlocale.obj
 0001:00047b20       ?do_get@?$num_get@_WV?$istreambuf_iterator@_WU?$char_traits@_W@std@@@std@@@std@@MBE?AV?$istreambuf_iterator@_WU?$char_traits@_W@std@@@2@V32@0AAVios_base@2@AAHAA_J@Z 00448b20 f i libcpmtd:wlocale.obj
 0001:00047cc0       ?do_get@?$num_get@_WV?$istreambuf_iterator@_WU?$char_traits@_W@std@@@std@@@std@@MBE?AV?$istreambuf_iterator@_WU?$char_traits@_W@std@@@2@V32@0AAVios_base@2@AAHAA_K@Z 00448cc0 f i libcpmtd:wlocale.obj
 0001:00047e60       ?do_get@?$num_get@_WV?$istreambuf_iterator@_WU?$char_traits@_W@std@@@std@@@std@@MBE?AV?$istreambuf_iterator@_WU?$char_traits@_W@std@@@2@V32@0AAVios_base@2@AAHAA_N@Z 00448e60 f i libcpmtd:wlocale.obj
 0001:00048270       ?do_get@?$time_get@GV?$istreambuf_iterator@GU?$char_traits@G@std@@@std@@@std@@MBE?AV?$istreambuf_iterator@GU?$char_traits@G@std@@@2@V32@0AAVios_base@2@AAHPAUtm@@DD@Z 00449270 f i libcpmtd:wlocale.obj
 0001:00048c20       ?do_get@?$time_get@_WV?$istreambuf_iterator@_WU?$char_traits@_W@std@@@std@@@std@@MBE?AV?$istreambuf_iterator@_WU?$char_traits@_W@std@@@2@V32@0AAVios_base@2@AAHPAUtm@@DD@Z 00449c20 f i libcpmtd:wlocale.obj
 0001:000495d0       ?do_get_date@?$time_get@GV?$istreambuf_iterator@GU?$char_traits@G@std@@@std@@@std@@MBE?AV?$istreambuf_iterator@GU?$char_traits@G@std@@@2@V32@0AAVios_base@2@AAHPAUtm@@@Z 0044a5d0 f i libcpmtd:wlocale.obj
 0001:00049d70       ?do_get_date@?$time_get@_WV?$istreambuf_iterator@_WU?$char_traits@_W@std@@@std@@@std@@MBE?AV?$istreambuf_iterator@_WU?$char_traits@_W@std@@@2@V32@0AAVios_base@2@AAHPAUtm@@@Z 0044ad70 f i libcpmtd:wlocale.obj
 0001:0004a510       ?do_get_monthname@?$time_get@GV?$istreambuf_iterator@GU?$char_traits@G@std@@@std@@@std@@MBE?AV?$istreambuf_iterator@GU?$char_traits@G@std@@@2@V32@0AAVios_base@2@AAHPAUtm@@@Z 0044b510 f i libcpmtd:wlocale.obj
 0001:0004a590       ?do_get_monthname@?$time_get@_WV?$istreambuf_iterator@_WU?$char_traits@_W@std@@@std@@@std@@MBE?AV?$istreambuf_iterator@_WU?$char_traits@_W@std@@@2@V32@0AAVios_base@2@AAHPAUtm@@@Z 0044b590 f i libcpmtd:wlocale.obj
 0001:0004a610       ?do_get_time@?$time_get@GV?$istreambuf_iterator@GU?$char_traits@G@std@@@std@@@std@@MBE?AV?$istreambuf_iterator@GU?$char_traits@G@std@@@2@V32@0AAVios_base@2@AAHPAUtm@@@Z 0044b610 f i libcpmtd:wlocale.obj
 0001:0004a820       ?do_get_time@?$time_get@_WV?$istreambuf_iterator@_WU?$char_traits@_W@std@@@std@@@std@@MBE?AV?$istreambuf_iterator@_WU?$char_traits@_W@std@@@2@V32@0AAVios_base@2@AAHPAUtm@@@Z 0044b820 f i libcpmtd:wlocale.obj
 0001:0004aa30       ?do_get_weekday@?$time_get@GV?$istreambuf_iterator@GU?$char_traits@G@std@@@std@@@std@@MBE?AV?$istreambuf_iterator@GU?$char_traits@G@std@@@2@V32@0AAVios_base@2@AAHPAUtm@@@Z 0044ba30 f i libcpmtd:wlocale.obj
 0001:0004aab0       ?do_get_weekday@?$time_get@_WV?$istreambuf_iterator@_WU?$char_traits@_W@std@@@std@@@std@@MBE?AV?$istreambuf_iterator@_WU?$char_traits@_W@std@@@2@V32@0AAVios_base@2@AAHPAUtm@@@Z 0044bab0 f i libcpmtd:wlocale.obj
 0001:0004ab30       ?do_get_year@?$time_get@GV?$istreambuf_iterator@GU?$char_traits@G@std@@@std@@@std@@MBE?AV?$istreambuf_iterator@GU?$char_traits@G@std@@@2@V32@0AAVios_base@2@AAHPAUtm@@@Z 0044bb30 f i libcpmtd:wlocale.obj
 0001:0004ac70       ?do_get_year@?$time_get@_WV?$istreambuf_iterator@_WU?$char_traits@_W@std@@@std@@@std@@MBE?AV?$istreambuf_iterator@_WU?$char_traits@_W@std@@@2@V32@0AAVios_base@2@AAHPAUtm@@@Z 0044bc70 f i libcpmtd:wlocale.obj
 0001:0004adb0       ?do_grouping@?$_Mpunct@G@std@@MBE?AV?$basic_string@DU?$char_traits@D@std@@V?$allocator@D@2@@2@XZ 0044bdb0 f i libcpmtd:wlocale.obj
 0001:0004adf0       ?do_grouping@?$_Mpunct@_W@std@@MBE?AV?$basic_string@DU?$char_traits@D@std@@V?$allocator@D@2@@2@XZ 0044bdf0 f i libcpmtd:wlocale.obj
 0001:0004ae30       ?do_grouping@?$numpunct@G@std@@MBE?AV?$basic_string@DU?$char_traits@D@std@@V?$allocator@D@2@@2@XZ 0044be30 f i libcpmtd:wlocale.obj
 0001:0004ae70       ?do_grouping@?$numpunct@_W@std@@MBE?AV?$basic_string@DU?$char_traits@D@std@@V?$allocator@D@2@@2@XZ 0044be70 f i libcpmtd:wlocale.obj
 0001:0004aeb0       ?do_hash@?$collate@G@std@@MBEJPBG0@Z 0044beb0 f i libcpmtd:wlocale.obj
 0001:0004aef0       ?do_hash@?$collate@_W@std@@MBEJPB_W0@Z 0044bef0 f i libcpmtd:wlocale.obj
 0001:0004af30       ?do_in@?$codecvt@GDU_Mbstatet@@@std@@MBEHAAU_Mbstatet@@PBD1AAPBDPAG3AAPAG@Z 0044bf30 f i libcpmtd:wlocale.obj
 0001:0004b050       ?do_in@?$codecvt@_WDU_Mbstatet@@@std@@MBEHAAU_Mbstatet@@PBD1AAPBDPA_W3AAPA_W@Z 0044c050 f i libcpmtd:wlocale.obj
 0001:0004b170       ?do_is@?$ctype@G@std@@MBEPBGPBG0PAF@Z 0044c170 f i libcpmtd:wlocale.obj
 0001:0004b1c0       ?do_is@?$ctype@G@std@@MBE_NFG@Z 0044c1c0 f i libcpmtd:wlocale.obj
 0001:0004b220       ?do_is@?$ctype@_W@std@@MBEPB_WPB_W0PAF@Z 0044c220 f i libcpmtd:wlocale.obj
 0001:0004b270       ?do_is@?$ctype@_W@std@@MBE_NF_W@Z 0044c270 f i libcpmtd:wlocale.obj
 0001:0004b2d0       ?do_length@?$codecvt@GDU_Mbstatet@@@std@@MBEHAAU_Mbstatet@@PBD1I@Z 0044c2d0 f i libcpmtd:wlocale.obj
 0001:0004b3a0       ?do_length@?$codecvt@_WDU_Mbstatet@@@std@@MBEHAAU_Mbstatet@@PBD1I@Z 0044c3a0 f i libcpmtd:wlocale.obj
 0001:0004b470       ?do_max_length@?$codecvt@GDU_Mbstatet@@@std@@MBEHXZ 0044c470 f i libcpmtd:wlocale.obj
 0001:0004b490       ?do_max_length@?$codecvt@_WDU_Mbstatet@@@std@@MBEHXZ 0044c490 f i libcpmtd:wlocale.obj
 0001:0004b4b0       ?do_narrow@?$ctype@G@std@@MBEDGD@Z 0044c4b0 f i libcpmtd:wlocale.obj
 0001:0004b4e0       ?do_narrow@?$ctype@G@std@@MBEPBGPBG0DPAD@Z 0044c4e0 f i libcpmtd:wlocale.obj
 0001:0004b550       ?do_narrow@?$ctype@_W@std@@MBED_WD@Z 0044c550 f i libcpmtd:wlocale.obj
 0001:0004b580       ?do_narrow@?$ctype@_W@std@@MBEPB_WPB_W0DPAD@Z 0044c580 f i libcpmtd:wlocale.obj
 0001:0004b5f0       ?do_neg_format@?$_Mpunct@G@std@@MBE?AUpattern@money_base@2@XZ 0044c5f0 f i libcpmtd:wlocale.obj
 0001:0004b620       ?do_neg_format@?$_Mpunct@_W@std@@MBE?AUpattern@money_base@2@XZ 0044c620 f i libcpmtd:wlocale.obj
 0001:0004b650       ?do_negative_sign@?$_Mpunct@G@std@@MBE?AV?$basic_string@GU?$char_traits@G@std@@V?$allocator@G@2@@2@XZ 0044c650 f i libcpmtd:wlocale.obj
 0001:0004b690       ?do_negative_sign@?$_Mpunct@_W@std@@MBE?AV?$basic_string@_WU?$char_traits@_W@std@@V?$allocator@_W@2@@2@XZ 0044c690 f i libcpmtd:wlocale.obj
 0001:0004b6d0       ?do_open@?$messages@G@std@@MBEHABV?$basic_string@DU?$char_traits@D@std@@V?$allocator@D@2@@2@ABVlocale@2@@Z 0044c6d0 f i libcpmtd:wlocale.obj
 0001:0004b6f0       ?do_open@?$messages@_W@std@@MBEHABV?$basic_string@DU?$char_traits@D@std@@V?$allocator@D@2@@2@ABVlocale@2@@Z 0044c6f0 f i libcpmtd:wlocale.obj
 0001:0004b710       ?do_out@?$codecvt@GDU_Mbstatet@@@std@@MBEHAAU_Mbstatet@@PBG1AAPBGPAD3AAPAD@Z 0044c710 f i libcpmtd:wlocale.obj
 0001:0004b900       ?do_out@?$codecvt@_WDU_Mbstatet@@@std@@MBEHAAU_Mbstatet@@PB_W1AAPB_WPAD3AAPAD@Z 0044c900 f i libcpmtd:wlocale.obj
 0001:0004baf0       ?do_pos_format@?$_Mpunct@G@std@@MBE?AUpattern@money_base@2@XZ 0044caf0 f i libcpmtd:wlocale.obj
 0001:0004bb20       ?do_pos_format@?$_Mpunct@_W@std@@MBE?AUpattern@money_base@2@XZ 0044cb20 f i libcpmtd:wlocale.obj
 0001:0004bb50       ?do_positive_sign@?$_Mpunct@G@std@@MBE?AV?$basic_string@GU?$char_traits@G@std@@V?$allocator@G@2@@2@XZ 0044cb50 f i libcpmtd:wlocale.obj
 0001:0004bb90       ?do_positive_sign@?$_Mpunct@_W@std@@MBE?AV?$basic_string@_WU?$char_traits@_W@std@@V?$allocator@_W@2@@2@XZ 0044cb90 f i libcpmtd:wlocale.obj
 0001:0004bbd0       ?do_put@?$money_put@GV?$ostreambuf_iterator@GU?$char_traits@G@std@@@std@@@std@@MBE?AV?$ostreambuf_iterator@GU?$char_traits@G@std@@@2@V32@_NAAVios_base@2@GABV?$basic_string@GU?$char_traits@G@std@@V?$allocator@G@2@@2@@Z 0044cbd0 f i libcpmtd:wlocale.obj
 0001:0004be40       ?do_put@?$money_put@GV?$ostreambuf_iterator@GU?$char_traits@G@std@@@std@@@std@@MBE?AV?$ostreambuf_iterator@GU?$char_traits@G@std@@@2@V32@_NAAVios_base@2@GO@Z 0044ce40 f i libcpmtd:wlocale.obj
 0001:0004c060       ?do_put@?$money_put@_WV?$ostreambuf_iterator@_WU?$char_traits@_W@std@@@std@@@std@@MBE?AV?$ostreambuf_iterator@_WU?$char_traits@_W@std@@@2@V32@_NAAVios_base@2@_WABV?$basic_string@_WU?$char_traits@_W@std@@V?$allocator@_W@2@@2@@Z 0044d060 f i libcpmtd:wlocale.obj
 0001:0004c2d0       ?do_put@?$money_put@_WV?$ostreambuf_iterator@_WU?$char_traits@_W@std@@@std@@@std@@MBE?AV?$ostreambuf_iterator@_WU?$char_traits@_W@std@@@2@V32@_NAAVios_base@2@_WO@Z 0044d2d0 f i libcpmtd:wlocale.obj
 0001:0004c4f0       ?do_put@?$num_put@GV?$ostreambuf_iterator@GU?$char_traits@G@std@@@std@@@std@@MBE?AV?$ostreambuf_iterator@GU?$char_traits@G@std@@@2@V32@AAVios_base@2@GJ@Z 0044d4f0 f i libcpmtd:wlocale.obj
 0001:0004c590       ?do_put@?$num_put@GV?$ostreambuf_iterator@GU?$char_traits@G@std@@@std@@@std@@MBE?AV?$ostreambuf_iterator@GU?$char_traits@G@std@@@2@V32@AAVios_base@2@GK@Z 0044d590 f i libcpmtd:wlocale.obj
 0001:0004c630       ?do_put@?$num_put@GV?$ostreambuf_iterator@GU?$char_traits@G@std@@@std@@@std@@MBE?AV?$ostreambuf_iterator@GU?$char_traits@G@std@@@2@V32@AAVios_base@2@GN@Z 0044d630 f i libcpmtd:wlocale.obj
 0001:0004c8a0       ?do_put@?$num_put@GV?$ostreambuf_iterator@GU?$char_traits@G@std@@@std@@@std@@MBE?AV?$ostreambuf_iterator@GU?$char_traits@G@std@@@2@V32@AAVios_base@2@GO@Z 0044d8a0 f i libcpmtd:wlocale.obj
 0001:0004cb10       ?do_put@?$num_put@GV?$ostreambuf_iterator@GU?$char_traits@G@std@@@std@@@std@@MBE?AV?$ostreambuf_iterator@GU?$char_traits@G@std@@@2@V32@AAVios_base@2@GPBX@Z 0044db10 f i libcpmtd:wlocale.obj
 0001:0004cb90       ?do_put@?$num_put@GV?$ostreambuf_iterator@GU?$char_traits@G@std@@@std@@@std@@MBE?AV?$ostreambuf_iterator@GU?$char_traits@G@std@@@2@V32@AAVios_base@2@G_J@Z 0044db90 f i libcpmtd:wlocale.obj
 0001:0004cc40       ?do_put@?$num_put@GV?$ostreambuf_iterator@GU?$char_traits@G@std@@@std@@@std@@MBE?AV?$ostreambuf_iterator@GU?$char_traits@G@std@@@2@V32@AAVios_base@2@G_K@Z 0044dc40 f i libcpmtd:wlocale.obj
 0001:0004ccf0       ?do_put@?$num_put@GV?$ostreambuf_iterator@GU?$char_traits@G@std@@@std@@@std@@MBE?AV?$ostreambuf_iterator@GU?$char_traits@G@std@@@2@V32@AAVios_base@2@G_N@Z 0044dcf0 f i libcpmtd:wlocale.obj
 0001:0004d020       ?do_put@?$num_put@_WV?$ostreambuf_iterator@_WU?$char_traits@_W@std@@@std@@@std@@MBE?AV?$ostreambuf_iterator@_WU?$char_traits@_W@std@@@2@V32@AAVios_base@2@_WJ@Z 0044e020 f i libcpmtd:wlocale.obj
 0001:0004d0c0       ?do_put@?$num_put@_WV?$ostreambuf_iterator@_WU?$char_traits@_W@std@@@std@@@std@@MBE?AV?$ostreambuf_iterator@_WU?$char_traits@_W@std@@@2@V32@AAVios_base@2@_WK@Z 0044e0c0 f i libcpmtd:wlocale.obj
 0001:0004d160       ?do_put@?$num_put@_WV?$ostreambuf_iterator@_WU?$char_traits@_W@std@@@std@@@std@@MBE?AV?$ostreambuf_iterator@_WU?$char_traits@_W@std@@@2@V32@AAVios_base@2@_WN@Z 0044e160 f i libcpmtd:wlocale.obj
 0001:0004d3d0       ?do_put@?$num_put@_WV?$ostreambuf_iterator@_WU?$char_traits@_W@std@@@std@@@std@@MBE?AV?$ostreambuf_iterator@_WU?$char_traits@_W@std@@@2@V32@AAVios_base@2@_WO@Z 0044e3d0 f i libcpmtd:wlocale.obj
 0001:0004d640       ?do_put@?$num_put@_WV?$ostreambuf_iterator@_WU?$char_traits@_W@std@@@std@@@std@@MBE?AV?$ostreambuf_iterator@_WU?$char_traits@_W@std@@@2@V32@AAVios_base@2@_WPBX@Z 0044e640 f i libcpmtd:wlocale.obj
 0001:0004d6c0       ?do_put@?$num_put@_WV?$ostreambuf_iterator@_WU?$char_traits@_W@std@@@std@@@std@@MBE?AV?$ostreambuf_iterator@_WU?$char_traits@_W@std@@@2@V32@AAVios_base@2@_W_J@Z 0044e6c0 f i libcpmtd:wlocale.obj
 0001:0004d770       ?do_put@?$num_put@_WV?$ostreambuf_iterator@_WU?$char_traits@_W@std@@@std@@@std@@MBE?AV?$ostreambuf_iterator@_WU?$char_traits@_W@std@@@2@V32@AAVios_base@2@_W_K@Z 0044e770 f i libcpmtd:wlocale.obj
 0001:0004d820       ?do_put@?$num_put@_WV?$ostreambuf_iterator@_WU?$char_traits@_W@std@@@std@@@std@@MBE?AV?$ostreambuf_iterator@_WU?$char_traits@_W@std@@@2@V32@AAVios_base@2@_W_N@Z 0044e820 f i libcpmtd:wlocale.obj
 0001:0004db50       ?do_put@?$time_put@GV?$ostreambuf_iterator@GU?$char_traits@G@std@@@std@@@std@@MBE?AV?$ostreambuf_iterator@GU?$char_traits@G@std@@@2@V32@AAVios_base@2@GPBUtm@@DD@Z 0044eb50 f i libcpmtd:wlocale.obj
 0001:0004dd10       ?do_put@?$time_put@_WV?$ostreambuf_iterator@_WU?$char_traits@_W@std@@@std@@@std@@MBE?AV?$ostreambuf_iterator@_WU?$char_traits@_W@std@@@2@V32@AAVios_base@2@_WPBUtm@@DD@Z 0044ed10 f i libcpmtd:wlocale.obj
 0001:0004ded0       ?do_scan_is@?$ctype@G@std@@MBEPBGFPBG0@Z 0044eed0 f i libcpmtd:wlocale.obj
 0001:0004df40       ?do_scan_is@?$ctype@_W@std@@MBEPB_WFPB_W0@Z 0044ef40 f i libcpmtd:wlocale.obj
 0001:0004dfb0       ?do_scan_not@?$ctype@G@std@@MBEPBGFPBG0@Z 0044efb0 f i libcpmtd:wlocale.obj
 0001:0004e020       ?do_scan_not@?$ctype@_W@std@@MBEPB_WFPB_W0@Z 0044f020 f i libcpmtd:wlocale.obj
 0001:0004e090       ?do_thousands_sep@?$_Mpunct@G@std@@MBEGXZ 0044f090 f i libcpmtd:wlocale.obj
 0001:0004e0b0       ?do_thousands_sep@?$_Mpunct@_W@std@@MBE_WXZ 0044f0b0 f i libcpmtd:wlocale.obj
 0001:0004e0d0       ?do_thousands_sep@?$numpunct@G@std@@MBEGXZ 0044f0d0 f i libcpmtd:wlocale.obj
 0001:0004e0f0       ?do_thousands_sep@?$numpunct@_W@std@@MBE_WXZ 0044f0f0 f i libcpmtd:wlocale.obj
 0001:0004e110       ?do_tolower@?$ctype@G@std@@MBEGG@Z 0044f110 f i libcpmtd:wlocale.obj
 0001:0004e140       ?do_tolower@?$ctype@G@std@@MBEPBGPAGPBG@Z 0044f140 f i libcpmtd:wlocale.obj
 0001:0004e1b0       ?do_tolower@?$ctype@_W@std@@MBEPB_WPA_WPB_W@Z 0044f1b0 f i libcpmtd:wlocale.obj
 0001:0004e220       ?do_tolower@?$ctype@_W@std@@MBE_W_W@Z 0044f220 f i libcpmtd:wlocale.obj
 0001:0004e250       ?do_toupper@?$ctype@G@std@@MBEGG@Z 0044f250 f i libcpmtd:wlocale.obj
 0001:0004e280       ?do_toupper@?$ctype@G@std@@MBEPBGPAGPBG@Z 0044f280 f i libcpmtd:wlocale.obj
 0001:0004e2f0       ?do_toupper@?$ctype@_W@std@@MBEPB_WPA_WPB_W@Z 0044f2f0 f i libcpmtd:wlocale.obj
 0001:0004e360       ?do_toupper@?$ctype@_W@std@@MBE_W_W@Z 0044f360 f i libcpmtd:wlocale.obj
 0001:0004e390       ?do_transform@?$collate@G@std@@MBE?AV?$basic_string@GU?$char_traits@G@std@@V?$allocator@G@2@@2@PBG0@Z 0044f390 f i libcpmtd:wlocale.obj
 0001:0004e510       ?do_transform@?$collate@_W@std@@MBE?AV?$basic_string@_WU?$char_traits@_W@std@@V?$allocator@_W@2@@2@PB_W0@Z 0044f510 f i libcpmtd:wlocale.obj
 0001:0004e690       ?do_truename@?$numpunct@G@std@@MBE?AV?$basic_string@GU?$char_traits@G@std@@V?$allocator@G@2@@2@XZ 0044f690 f i libcpmtd:wlocale.obj
 0001:0004e6d0       ?do_truename@?$numpunct@_W@std@@MBE?AV?$basic_string@_WU?$char_traits@_W@std@@V?$allocator@_W@2@@2@XZ 0044f6d0 f i libcpmtd:wlocale.obj
 0001:0004e710       ?do_unshift@?$codecvt@GDU_Mbstatet@@@std@@MBEHAAU_Mbstatet@@PAD1AAPAD@Z 0044f710 f i libcpmtd:wlocale.obj
 0001:0004e820       ?do_unshift@?$codecvt@_WDU_Mbstatet@@@std@@MBEHAAU_Mbstatet@@PAD1AAPAD@Z 0044f820 f i libcpmtd:wlocale.obj
 0001:0004e930       ?do_widen@?$ctype@G@std@@MBEGD@Z 0044f930 f i libcpmtd:wlocale.obj
 0001:0004e950       ?do_widen@?$ctype@G@std@@MBEPBDPBD0PAG@Z 0044f950 f i libcpmtd:wlocale.obj
 0001:0004e9c0       ?do_widen@?$ctype@_W@std@@MBEPBDPBD0PA_W@Z 0044f9c0 f i libcpmtd:wlocale.obj
 0001:0004ea30       ?do_widen@?$ctype@_W@std@@MBE_WD@Z 0044fa30 f i libcpmtd:wlocale.obj
 0001:0004ea50       ?empty@?$basic_string@GU?$char_traits@G@std@@V?$allocator@G@2@@std@@QBE_NXZ 0044fa50 f i libcpmtd:wlocale.obj
 0001:0004ea90       ?empty@?$basic_string@_WU?$char_traits@_W@std@@V?$allocator@_W@2@@std@@QBE_NXZ 0044fa90 f i libcpmtd:wlocale.obj
 0001:0004ead0       ?end@?$basic_string@GU?$char_traits@G@std@@V?$allocator@G@2@@std@@QAE?AV?$_String_iterator@V?$_String_val@U?$_Simple_types@G@std@@@std@@@2@XZ 0044fad0 f i libcpmtd:wlocale.obj
 0001:0004eb40       ?end@?$basic_string@_WU?$char_traits@_W@std@@V?$allocator@_W@2@@std@@QAE?AV?$_String_iterator@V?$_String_val@U?$_Simple_types@_W@std@@@std@@@2@XZ 0044fb40 f i libcpmtd:wlocale.obj
 0001:0004ebb0       ?eof@?$_WChar_traits@G@std@@SAGXZ 0044fbb0 f i libcpmtd:wlocale.obj
 0001:0004ebc0       ?eof@?$_WChar_traits@_W@std@@SAGXZ 0044fbc0 f i libcpmtd:wlocale.obj
 0001:0004ebd0       ?eq_int_type@?$_WChar_traits@G@std@@SA_NABG0@Z 0044fbd0 f i libcpmtd:wlocale.obj
 0001:0004ec10       ?eq_int_type@?$_WChar_traits@_W@std@@SA_NABG0@Z 0044fc10 f i libcpmtd:wlocale.obj
 0001:0004ec50       ?equal@?$istreambuf_iterator@GU?$char_traits@G@std@@@std@@QBE_NABV12@@Z 0044fc50 f i libcpmtd:wlocale.obj
 0001:0004ece0       ?equal@?$istreambuf_iterator@_WU?$char_traits@_W@std@@@std@@QBE_NABV12@@Z 0044fce0 f i libcpmtd:wlocale.obj
 0001:0004ed70       ?erase@?$basic_string@DU?$char_traits@D@std@@V?$allocator@D@2@@std@@QAEAAV12@I@Z 0044fd70 f i libcpmtd:wlocale.obj
 0001:0004edb0       ?erase@?$basic_string@GU?$char_traits@G@std@@V?$allocator@G@2@@std@@QAEAAV12@I@Z 0044fdb0 f i libcpmtd:wlocale.obj
 0001:0004edf0       ?erase@?$basic_string@_WU?$char_traits@_W@std@@V?$allocator@_W@2@@std@@QAEAAV12@I@Z 0044fdf0 f i libcpmtd:wlocale.obj
 0001:0004ee30       ?falsename@?$numpunct@G@std@@QBE?AV?$basic_string@GU?$char_traits@G@std@@V?$allocator@G@2@@2@XZ 0044fe30 f i libcpmtd:wlocale.obj
 0001:0004ee90       ?falsename@?$numpunct@_W@std@@QBE?AV?$basic_string@_WU?$char_traits@_W@std@@V?$allocator@_W@2@@2@XZ 0044fe90 f i libcpmtd:wlocale.obj
 0001:0004eef0       ?frac_digits@?$_Mpunct@G@std@@QBEHXZ 0044fef0 f i libcpmtd:wlocale.obj
 0001:0004ef20       ?frac_digits@?$_Mpunct@_W@std@@QBEHXZ 0044ff20 f i libcpmtd:wlocale.obj
 0001:0004ef50       ?get_monthname@?$time_get@GV?$istreambuf_iterator@GU?$char_traits@G@std@@@std@@@std@@QBE?AV?$istreambuf_iterator@GU?$char_traits@G@std@@@2@V32@0AAVios_base@2@AAHPAUtm@@@Z 0044ff50 f i libcpmtd:wlocale.obj
 0001:0004efc0       ?get_monthname@?$time_get@_WV?$istreambuf_iterator@_WU?$char_traits@_W@std@@@std@@@std@@QBE?AV?$istreambuf_iterator@_WU?$char_traits@_W@std@@@2@V32@0AAVios_base@2@AAHPAUtm@@@Z 0044ffc0 f i libcpmtd:wlocale.obj
 0001:0004f030       ?get_weekday@?$time_get@GV?$istreambuf_iterator@GU?$char_traits@G@std@@@std@@@std@@QBE?AV?$istreambuf_iterator@GU?$char_traits@G@std@@@2@V32@0AAVios_base@2@AAHPAUtm@@@Z 00450030 f i libcpmtd:wlocale.obj
 0001:0004f0a0       ?get_weekday@?$time_get@_WV?$istreambuf_iterator@_WU?$char_traits@_W@std@@@std@@@std@@QBE?AV?$istreambuf_iterator@_WU?$char_traits@_W@std@@@2@V32@0AAVios_base@2@AAHPAUtm@@@Z 004500a0 f i libcpmtd:wlocale.obj
 0001:0004f110       ?get_year@?$time_get@GV?$istreambuf_iterator@GU?$char_traits@G@std@@@std@@@std@@QBE?AV?$istreambuf_iterator@GU?$char_traits@G@std@@@2@V32@0AAVios_base@2@AAHPAUtm@@@Z 00450110 f i libcpmtd:wlocale.obj
 0001:0004f180       ?get_year@?$time_get@_WV?$istreambuf_iterator@_WU?$char_traits@_W@std@@@std@@@std@@QBE?AV?$istreambuf_iterator@_WU?$char_traits@_W@std@@@2@V32@0AAVios_base@2@AAHPAUtm@@@Z 00450180 f i libcpmtd:wlocale.obj
 0001:0004f1f0       ?gptr@?$basic_streambuf@GU?$char_traits@G@std@@@std@@IBEPAGXZ 004501f0 f i libcpmtd:wlocale.obj
 0001:0004f210       ?gptr@?$basic_streambuf@_WU?$char_traits@_W@std@@@std@@IBEPA_WXZ 00450210 f i libcpmtd:wlocale.obj
 0001:0004f230       ?grouping@?$_Mpunct@G@std@@QBE?AV?$basic_string@DU?$char_traits@D@std@@V?$allocator@D@2@@2@XZ 00450230 f i libcpmtd:wlocale.obj
 0001:0004f290       ?grouping@?$_Mpunct@_W@std@@QBE?AV?$basic_string@DU?$char_traits@D@std@@V?$allocator@D@2@@2@XZ 00450290 f i libcpmtd:wlocale.obj
 0001:0004f2f0       ?grouping@?$numpunct@G@std@@QBE?AV?$basic_string@DU?$char_traits@D@std@@V?$allocator@D@2@@2@XZ 004502f0 f i libcpmtd:wlocale.obj
 0001:0004f350       ?grouping@?$numpunct@_W@std@@QBE?AV?$basic_string@DU?$char_traits@D@std@@V?$allocator@D@2@@2@XZ 00450350 f i libcpmtd:wlocale.obj
 0001:0004f3b0       ?insert@?$basic_string@GU?$char_traits@G@std@@V?$allocator@G@2@@std@@QAEAAV12@IIG@Z 004503b0 f i libcpmtd:wlocale.obj
 0001:0004f490       ?insert@?$basic_string@_WU?$char_traits@_W@std@@V?$allocator@_W@2@@std@@QAEAAV12@II_W@Z 00450490 f i libcpmtd:wlocale.obj
 0001:0004f570       ?is@?$ctype@G@std@@QBE_NFG@Z 00450570 f i libcpmtd:wlocale.obj
 0001:0004f5c0       ?is@?$ctype@_W@std@@QBE_NF_W@Z 004505c0 f i libcpmtd:wlocale.obj
 0001:0004f610       ?length@?$_Char_traits@GG@std@@SAIPBG@Z 00450610 f i libcpmtd:wlocale.obj
 0001:0004f650       ?length@?$_WChar_traits@G@std@@SAIPBG@Z 00450650 f i libcpmtd:wlocale.obj
 0001:0004f670       ?length@?$_WChar_traits@_W@std@@SAIPB_W@Z 00450670 f i libcpmtd:wlocale.obj
 0001:0004f6c0       ?max_size@?$_Default_allocator_traits@V?$allocator@G@std@@@std@@SAIABV?$allocator@G@2@@Z 004506c0 f i libcpmtd:wlocale.obj
 0001:0004f6d0       ?max_size@?$_Default_allocator_traits@V?$allocator@_W@std@@@std@@SAIABV?$allocator@_W@2@@Z 004506d0 f i libcpmtd:wlocale.obj
 0001:0004f6e0       ?max_size@?$basic_string@GU?$char_traits@G@std@@V?$allocator@G@2@@std@@QBEIXZ 004506e0 f i libcpmtd:wlocale.obj
 0001:0004f760       ?max_size@?$basic_string@_WU?$char_traits@_W@std@@V?$allocator@_W@2@@std@@QBEIXZ 00450760 f i libcpmtd:wlocale.obj
 0001:0004f7e0       ?move@?$_Char_traits@GG@std@@SAPAGQAGQBGI@Z 004507e0 f i libcpmtd:wlocale.obj
 0001:0004f910       ?move@?$_Char_traits@_WG@std@@SAPA_WQA_WQB_WI@Z 00450910 f i libcpmtd:wlocale.obj
 0001:0004fa40       ?name@locale@std@@QBE?AV?$basic_string@DU?$char_traits@D@std@@V?$allocator@D@2@@2@XZ 00450a40 f i libcpmtd:wlocale.obj
 0001:0004fb30       ?narrow@?$ctype@G@std@@QBEDGD@Z 00450b30 f i libcpmtd:wlocale.obj
 0001:0004fb80       ?narrow@?$ctype@_W@std@@QBED_WD@Z 00450b80 f i libcpmtd:wlocale.obj
 0001:0004fbd0       ?neg_format@?$_Mpunct@G@std@@QBE?AUpattern@money_base@2@XZ 00450bd0 f i libcpmtd:wlocale.obj
 0001:0004fc20       ?neg_format@?$_Mpunct@_W@std@@QBE?AUpattern@money_base@2@XZ 00450c20 f i libcpmtd:wlocale.obj
 0001:0004fc70       ?negative_sign@?$_Mpunct@G@std@@QBE?AV?$basic_string@GU?$char_traits@G@std@@V?$allocator@G@2@@2@XZ 00450c70 f i libcpmtd:wlocale.obj
 0001:0004fcd0       ?negative_sign@?$_Mpunct@_W@std@@QBE?AV?$basic_string@_WU?$char_traits@_W@std@@V?$allocator@_W@2@@2@XZ 00450cd0 f i libcpmtd:wlocale.obj
 0001:0004fd30       ?pos_format@?$_Mpunct@G@std@@QBE?AUpattern@money_base@2@XZ 00450d30 f i libcpmtd:wlocale.obj
 0001:0004fd80       ?pos_format@?$_Mpunct@_W@std@@QBE?AUpattern@money_base@2@XZ 00450d80 f i libcpmtd:wlocale.obj
 0001:0004fdd0       ?positive_sign@?$_Mpunct@G@std@@QBE?AV?$basic_string@GU?$char_traits@G@std@@V?$allocator@G@2@@2@XZ 00450dd0 f i libcpmtd:wlocale.obj
 0001:0004fe30       ?positive_sign@?$_Mpunct@_W@std@@QBE?AV?$basic_string@_WU?$char_traits@_W@std@@V?$allocator@_W@2@@2@XZ 00450e30 f i libcpmtd:wlocale.obj
 0001:0004fe90       ?push_back@?$basic_string@GU?$char_traits@G@std@@V?$allocator@G@2@@std@@QAEXG@Z 00450e90 f i libcpmtd:wlocale.obj
 0001:0004ff40       ?push_back@?$basic_string@_WU?$char_traits@_W@std@@V?$allocator@_W@2@@std@@QAEX_W@Z 00450f40 f i libcpmtd:wlocale.obj
 0001:0004fff0       ?resize@?$basic_string@GU?$char_traits@G@std@@V?$allocator@G@2@@std@@QAEXIG@Z 00450ff0 f i libcpmtd:wlocale.obj
 0001:00050050       ?resize@?$basic_string@_WU?$char_traits@_W@std@@V?$allocator@_W@2@@std@@QAEXI_W@Z 00451050 f i libcpmtd:wlocale.obj
 0001:000500b0       ?sbumpc@?$basic_streambuf@GU?$char_traits@G@std@@@std@@QAEGXZ 004510b0 f i libcpmtd:wlocale.obj
 0001:00050130       ?sbumpc@?$basic_streambuf@_WU?$char_traits@_W@std@@@std@@QAEGXZ 00451130 f i libcpmtd:wlocale.obj
 0001:000501b0       ?select_on_container_copy_construction@?$_Default_allocator_traits@V?$allocator@G@std@@@std@@SA?AV?$allocator@G@2@ABV32@@Z 004511b0 f i libcpmtd:wlocale.obj
 0001:000501c0       ?select_on_container_copy_construction@?$_Default_allocator_traits@V?$allocator@_W@std@@@std@@SA?AV?$allocator@_W@2@ABV32@@Z 004511c0 f i libcpmtd:wlocale.obj
 0001:000501d0       ?sgetc@?$basic_streambuf@GU?$char_traits@G@std@@@std@@QAEGXZ 004511d0 f i libcpmtd:wlocale.obj
 0001:00050250       ?sgetc@?$basic_streambuf@_WU?$char_traits@_W@std@@@std@@QAEGXZ 00451250 f i libcpmtd:wlocale.obj
 0001:000502d0       ?size@?$basic_string@GU?$char_traits@G@std@@V?$allocator@G@2@@std@@QBEIXZ 004512d0 f i libcpmtd:wlocale.obj
 0001:000502f0       ?size@?$basic_string@_WU?$char_traits@_W@std@@V?$allocator@_W@2@@std@@QBEIXZ 004512f0 f i libcpmtd:wlocale.obj
 0001:00050310       ?sputc@?$basic_streambuf@GU?$char_traits@G@std@@@std@@QAEGG@Z 00451310 f i libcpmtd:wlocale.obj
 0001:000503d0       ?sputc@?$basic_streambuf@_WU?$char_traits@_W@std@@@std@@QAEG_W@Z 004513d0 f i libcpmtd:wlocale.obj
 0001:00050490       ?thousands_sep@?$_Mpunct@G@std@@QBEGXZ 00451490 f i libcpmtd:wlocale.obj
 0001:000504c0       ?thousands_sep@?$_Mpunct@_W@std@@QBE_WXZ 004514c0 f i libcpmtd:wlocale.obj
 0001:000504f0       ?thousands_sep@?$numpunct@G@std@@QBEGXZ 004514f0 f i libcpmtd:wlocale.obj
 0001:00050520       ?thousands_sep@?$numpunct@_W@std@@QBE_WXZ 00451520 f i libcpmtd:wlocale.obj
 0001:00050550       ?to_char_type@?$_WChar_traits@G@std@@SAGABG@Z 00451550 f i libcpmtd:wlocale.obj
 0001:00050560       ?to_char_type@?$_WChar_traits@_W@std@@SA_WABG@Z 00451560 f i libcpmtd:wlocale.obj
 0001:00050570       ?to_int_type@?$_WChar_traits@G@std@@SAGABG@Z 00451570 f i libcpmtd:wlocale.obj
 0001:00050580       ?to_int_type@?$_WChar_traits@_W@std@@SAGAB_W@Z 00451580 f i libcpmtd:wlocale.obj
 0001:00050590       ?tolower@?$ctype@G@std@@QBEGG@Z 00451590 f i libcpmtd:wlocale.obj
 0001:000505e0       ?tolower@?$ctype@_W@std@@QBE_W_W@Z 004515e0 f i libcpmtd:wlocale.obj
 0001:00050630       ?truename@?$numpunct@G@std@@QBE?AV?$basic_string@GU?$char_traits@G@std@@V?$allocator@G@2@@2@XZ 00451630 f i libcpmtd:wlocale.obj
 0001:00050690       ?truename@?$numpunct@_W@std@@QBE?AV?$basic_string@_WU?$char_traits@_W@std@@V?$allocator@_W@2@@2@XZ 00451690 f i libcpmtd:wlocale.obj
 0001:000506f0       ?widen@?$ctype@G@std@@QBEGD@Z 004516f0 f i libcpmtd:wlocale.obj
 0001:00050740       ?widen@?$ctype@G@std@@QBEPBDPBD0PAG@Z 00451740 f i libcpmtd:wlocale.obj
 0001:00050790       ?widen@?$ctype@_W@std@@QBEPBDPBD0PA_W@Z 00451790 f i libcpmtd:wlocale.obj
 0001:000507e0       ?widen@?$ctype@_W@std@@QBE_WD@Z 004517e0 f i libcpmtd:wlocale.obj
 0001:00050830       _wmemcpy                   00451830 f i libcpmtd:wlocale.obj
 0001:00050860       _wmemset                   00451860 f i libcpmtd:wlocale.obj
 0001:000508b0       ??$_Copy_unchecked@PADV?$ostreambuf_iterator@DU?$char_traits@D@std@@@std@@@std@@YA?AV?$ostreambuf_iterator@DU?$char_traits@D@std@@@0@PAD0V10@@Z 004518b0 f i libcpmtd:xlocale.obj
 0001:00050920       ??$_Find_elem@D$0M@@std@@YAIAAY0M@$$CBDD@Z 00451920 f i libcpmtd:xlocale.obj
 0001:00050950       ??$_Get_unwrapped@AAPAD@std@@YA?A_TAAPAD@Z 00451950 f i libcpmtd:xlocale.obj
 0001:00050960       ??$_Get_unwrapped_n@AAV?$ostreambuf_iterator@DU?$char_traits@D@std@@@std@@H@std@@YA?A_TAAV?$ostreambuf_iterator@DU?$char_traits@D@std@@@0@H@Z 00451960 f i libcpmtd:xlocale.obj
 0001:00050970       ??$_Getvals@D@?$_Mpunct@D@std@@IAEXDPBUlconv@@@Z 00451970 f i libcpmtd:xlocale.obj
 0001:00050ae0       ??$_Getvals@D@?$time_get@DV?$istreambuf_iterator@DU?$char_traits@D@std@@@std@@@std@@IAEXDABV_Locinfo@1@@Z 00451ae0 f i libcpmtd:xlocale.obj
 0001:00050c00       ??$_Hash_array_representation@D@std@@YAIQBDI@Z 00451c00 f i libcpmtd:xlocale.obj
 0001:00050c20       ??$_Idl_distance@PADPAD@std@@YA?A_PABQAD0@Z 00451c20 f i libcpmtd:xlocale.obj
 0001:00050c40       ??$_LStrcoll@D@std@@YAHPBD000PBU_Collvec@@@Z 00451c40 f i libcpmtd:xlocale.obj
 0001:00050c70       ??$_LStrxfrm@D@std@@YAIPAD0PBD1PBU_Collvec@@@Z 00451c70 f i libcpmtd:xlocale.obj
 0001:00050ca0       ??$_Refancy@PAD$0A@@std@@YAPADPAD@Z 00451ca0 f i libcpmtd:xlocale.obj
 0001:00050cb0       ??$_Seek_wrapped@V?$ostreambuf_iterator@DU?$char_traits@D@std@@@std@@V12@@std@@YAXAAV?$ostreambuf_iterator@DU?$char_traits@D@std@@@0@$$QAV10@@Z 00451cb0 f i libcpmtd:xlocale.obj
 0001:00050ce0       ??$_Unfancy@$$CBD@std@@YAPBDPBD@Z 00451ce0 f i libcpmtd:xlocale.obj
 0001:00050cf0       ??$addressof@$$CBV?$moneypunct@D$00@std@@@std@@YAPBV?$moneypunct@D$00@0@ABV10@@Z 00451cf0 f i libcpmtd:xlocale.obj
 0001:00050d00       ??$addressof@$$CBV?$moneypunct@D$0A@@std@@@std@@YAPBV?$moneypunct@D$0A@@0@ABV10@@Z 00451d00 f i libcpmtd:xlocale.obj
 0001:00050d10       ??$copy@PADV?$ostreambuf_iterator@DU?$char_traits@D@std@@@std@@@std@@YA?AV?$ostreambuf_iterator@DU?$char_traits@D@std@@@0@PAD0V10@@Z 00451d10 f i libcpmtd:xlocale.obj
 0001:00050dd0       ??$forward@V?$ostreambuf_iterator@DU?$char_traits@D@std@@@std@@@std@@YA$$QAV?$ostreambuf_iterator@DU?$char_traits@D@std@@@0@AAV10@@Z 00451dd0 f i libcpmtd:xlocale.obj
 0001:00050de0       ??$use_facet@V?$collate@D@std@@@std@@YAABV?$collate@D@0@ABVlocale@0@@Z 00451de0 f i libcpmtd:xlocale.obj
 0001:00050f40       ??$use_facet@V?$messages@D@std@@@std@@YAABV?$messages@D@0@ABVlocale@0@@Z 00451f40 f i libcpmtd:xlocale.obj
 0001:000510a0       ??$use_facet@V?$money_get@DV?$istreambuf_iterator@DU?$char_traits@D@std@@@std@@@std@@@std@@YAABV?$money_get@DV?$istreambuf_iterator@DU?$char_traits@D@std@@@std@@@0@ABVlocale@0@@Z 004520a0 f i libcpmtd:xlocale.obj
 0001:00051200       ??$use_facet@V?$money_put@DV?$ostreambuf_iterator@DU?$char_traits@D@std@@@std@@@std@@@std@@YAABV?$money_put@DV?$ostreambuf_iterator@DU?$char_traits@D@std@@@std@@@0@ABVlocale@0@@Z 00452200 f i libcpmtd:xlocale.obj
 0001:00051360       ??$use_facet@V?$moneypunct@D$00@std@@@std@@YAABV?$moneypunct@D$00@0@ABVlocale@0@@Z 00452360 f i libcpmtd:xlocale.obj
 0001:000514c0       ??$use_facet@V?$moneypunct@D$0A@@std@@@std@@YAABV?$moneypunct@D$0A@@0@ABVlocale@0@@Z 004524c0 f i libcpmtd:xlocale.obj
 0001:00051620       ??$use_facet@V?$time_get@DV?$istreambuf_iterator@DU?$char_traits@D@std@@@std@@@std@@@std@@YAABV?$time_get@DV?$istreambuf_iterator@DU?$char_traits@D@std@@@std@@@0@ABVlocale@0@@Z 00452620 f i libcpmtd:xlocale.obj
 0001:00051780       ??$use_facet@V?$time_put@DV?$ostreambuf_iterator@DU?$char_traits@D@std@@@std@@@std@@@std@@YAABV?$time_put@DV?$ostreambuf_iterator@DU?$char_traits@D@std@@@std@@@0@ABVlocale@0@@Z 00452780 f i libcpmtd:xlocale.obj
 0001:000518e0       ??0?$_Mpunct@D@std@@QAE@ABV_Locinfo@1@I_N1@Z 004528e0 f i libcpmtd:xlocale.obj
 0001:00051980       ??0?$_String_const_iterator@V?$_String_val@U?$_Simple_types@D@std@@@std@@@std@@QAE@ABV01@@Z 00452980 f i libcpmtd:xlocale.obj
 0001:000519c0       ??0?$_String_const_iterator@V?$_String_val@U?$_Simple_types@D@std@@@std@@@std@@QAE@PBDPBU_Container_base12@1@@Z 004529c0 f i libcpmtd:xlocale.obj
 0001:00051a00       ??0?$_String_const_iterator@V?$_String_val@U?$_Simple_types@D@std@@@std@@@std@@QAE@XZ 00452a00 f i libcpmtd:xlocale.obj
 0001:00051a30       ??0?$_String_iterator@V?$_String_val@U?$_Simple_types@D@std@@@std@@@std@@QAE@ABV01@@Z 00452a30 f i libcpmtd:xlocale.obj
 0001:00051a60       ??0?$_String_iterator@V?$_String_val@U?$_Simple_types@D@std@@@std@@@std@@QAE@PBDPBU_Container_base12@1@@Z 00452a60 f i libcpmtd:xlocale.obj
 0001:00051a90       ??0?$collate@D@std@@QAE@ABV_Locinfo@1@I@Z 00452a90 f i libcpmtd:xlocale.obj
 0001:00051b20       ??0?$messages@D@std@@QAE@ABV_Locinfo@1@I@Z 00452b20 f i libcpmtd:xlocale.obj
 0001:00051bb0       ??0?$money_get@DV?$istreambuf_iterator@DU?$char_traits@D@std@@@std@@@std@@QAE@ABV_Locinfo@1@I@Z 00452bb0 f i libcpmtd:xlocale.obj
 0001:00051c40       ??0?$money_put@DV?$ostreambuf_iterator@DU?$char_traits@D@std@@@std@@@std@@QAE@ABV_Locinfo@1@I@Z 00452c40 f i libcpmtd:xlocale.obj
 0001:00051cd0       ??0?$moneypunct@D$00@std@@QAE@ABV_Locinfo@1@I_N@Z 00452cd0 f i libcpmtd:xlocale.obj
 0001:00051d10       ??0?$moneypunct@D$0A@@std@@QAE@ABV_Locinfo@1@I_N@Z 00452d10 f i libcpmtd:xlocale.obj
 0001:00051d50       ??0?$time_get@DV?$istreambuf_iterator@DU?$char_traits@D@std@@@std@@@std@@QAE@ABV_Locinfo@1@I@Z 00452d50 f i libcpmtd:xlocale.obj
 0001:00051de0       ??0?$time_put@DV?$ostreambuf_iterator@DU?$char_traits@D@std@@@std@@@std@@QAE@ABV_Locinfo@1@I@Z 00452de0 f i libcpmtd:xlocale.obj
 0001:00051e90       ??1?$_Mpunct@D@std@@MAE@XZ 00452e90 f i libcpmtd:xlocale.obj
 0001:00051ec0       ??1?$_String_const_iterator@V?$_String_val@U?$_Simple_types@D@std@@@std@@@std@@QAE@XZ 00452ec0 f i libcpmtd:xlocale.obj
 0001:00051ee0       ??1?$_String_iterator@V?$_String_val@U?$_Simple_types@D@std@@@std@@@std@@QAE@XZ 00452ee0 f i libcpmtd:xlocale.obj
 0001:00051f00       ??1?$_Tidy_guard@V?$_Mpunct@D@std@@@std@@QAE@XZ 00452f00 f i libcpmtd:xlocale.obj
 0001:00051f30       ??1?$_Tidy_guard@V?$time_get@DV?$istreambuf_iterator@DU?$char_traits@D@std@@@std@@@std@@@std@@QAE@XZ 00452f30 f i libcpmtd:xlocale.obj
 0001:00051f60       ??1?$collate@D@std@@MAE@XZ 00452f60 f i libcpmtd:xlocale.obj
 0001:00051fa0       ??1?$messages@D@std@@MAE@XZ 00452fa0 f i libcpmtd:xlocale.obj
 0001:00051fd0       ??1?$money_get@DV?$istreambuf_iterator@DU?$char_traits@D@std@@@std@@@std@@MAE@XZ 00452fd0 f i libcpmtd:xlocale.obj
 0001:00052000       ??1?$money_put@DV?$ostreambuf_iterator@DU?$char_traits@D@std@@@std@@@std@@MAE@XZ 00453000 f i libcpmtd:xlocale.obj
 0001:00052030       ??1?$moneypunct@D$00@std@@MAE@XZ 00453030 f i libcpmtd:xlocale.obj
 0001:00052060       ??1?$moneypunct@D$0A@@std@@MAE@XZ 00453060 f i libcpmtd:xlocale.obj
 0001:00052090       ??1?$time_get@DV?$istreambuf_iterator@DU?$char_traits@D@std@@@std@@@std@@MAE@XZ 00453090 f i libcpmtd:xlocale.obj
 0001:000520c0       ??1?$time_put@DV?$ostreambuf_iterator@DU?$char_traits@D@std@@@std@@@std@@MAE@XZ 004530c0 f i libcpmtd:xlocale.obj
 0001:000520f0       ??4?$_String_const_iterator@V?$_String_val@U?$_Simple_types@D@std@@@std@@@std@@QAEAAV01@ABV01@@Z 004530f0 f i libcpmtd:xlocale.obj
 0001:00052130       ??8?$_String_const_iterator@V?$_String_val@U?$_Simple_types@D@std@@@std@@@std@@QBE_NABV01@@Z 00453130 f i libcpmtd:xlocale.obj
 0001:00052180       ??D?$_String_const_iterator@V?$_String_val@U?$_Simple_types@D@std@@@std@@@std@@QBEABDXZ 00453180 f i libcpmtd:xlocale.obj
 0001:00052320       ??D?$_String_iterator@V?$_String_val@U?$_Simple_types@D@std@@@std@@@std@@QBEAADXZ 00453320 f i libcpmtd:xlocale.obj
 0001:00052340       ??E?$_String_const_iterator@V?$_String_val@U?$_Simple_types@D@std@@@std@@@std@@QAEAAV01@XZ 00453340 f i libcpmtd:xlocale.obj
 0001:000524e0       ??E?$_String_iterator@V?$_String_val@U?$_Simple_types@D@std@@@std@@@std@@QAEAAV01@XZ 004534e0 f i libcpmtd:xlocale.obj
 0001:00052500       ??E?$ostreambuf_iterator@DU?$char_traits@D@std@@@std@@QAEAAV01@H@Z 00453500 f i libcpmtd:xlocale.obj
 0001:00052520       ??G?$_String_iterator@V?$_String_val@U?$_Simple_types@D@std@@@std@@@std@@QBE?AV01@H@Z 00453520 f i libcpmtd:xlocale.obj
 0001:00052570       ??H?$_String_iterator@V?$_String_val@U?$_Simple_types@D@std@@@std@@@std@@QBE?AV01@H@Z 00453570 f i libcpmtd:xlocale.obj
 0001:000525c0       ??Y?$_String_const_iterator@V?$_String_val@U?$_Simple_types@D@std@@@std@@@std@@QAEAAV01@H@Z 004535c0 f i libcpmtd:xlocale.obj
 0001:00052600       ??Y?$_String_iterator@V?$_String_val@U?$_Simple_types@D@std@@@std@@@std@@QAEAAV01@H@Z 00453600 f i libcpmtd:xlocale.obj
 0001:00052630       ??Z?$_String_const_iterator@V?$_String_val@U?$_Simple_types@D@std@@@std@@@std@@QAEAAV01@H@Z 00453630 f i libcpmtd:xlocale.obj
 0001:00052660       ??Z?$_String_iterator@V?$_String_val@U?$_Simple_types@D@std@@@std@@@std@@QAEAAV01@H@Z 00453660 f i libcpmtd:xlocale.obj
 0001:00052690       ??_E?$_Mpunct@D@std@@MAEPAXI@Z 00453690 f i libcpmtd:xlocale.obj
 0001:00052690       ??_G?$_Mpunct@D@std@@MAEPAXI@Z 00453690 f i libcpmtd:xlocale.obj
 0001:000526f0       ??_G?$collate@D@std@@MAEPAXI@Z 004536f0 f i libcpmtd:xlocale.obj
 0001:000526f0       ??_E?$collate@D@std@@MAEPAXI@Z 004536f0 f i libcpmtd:xlocale.obj
 0001:00052750       ??_G?$messages@D@std@@MAEPAXI@Z 00453750 f i libcpmtd:xlocale.obj
 0001:00052750       ??_E?$messages@D@std@@MAEPAXI@Z 00453750 f i libcpmtd:xlocale.obj
 0001:000527b0       ??_E?$money_get@DV?$istreambuf_iterator@DU?$char_traits@D@std@@@std@@@std@@MAEPAXI@Z 004537b0 f i libcpmtd:xlocale.obj
 0001:000527b0       ??_G?$money_get@DV?$istreambuf_iterator@DU?$char_traits@D@std@@@std@@@std@@MAEPAXI@Z 004537b0 f i libcpmtd:xlocale.obj
 0001:00052810       ??_G?$money_put@DV?$ostreambuf_iterator@DU?$char_traits@D@std@@@std@@@std@@MAEPAXI@Z 00453810 f i libcpmtd:xlocale.obj
 0001:00052810       ??_E?$money_put@DV?$ostreambuf_iterator@DU?$char_traits@D@std@@@std@@@std@@MAEPAXI@Z 00453810 f i libcpmtd:xlocale.obj
 0001:00052870       ??_G?$moneypunct@D$00@std@@MAEPAXI@Z 00453870 f i libcpmtd:xlocale.obj
 0001:00052870       ??_E?$moneypunct@D$00@std@@MAEPAXI@Z 00453870 f i libcpmtd:xlocale.obj
 0001:000528d0       ??_E?$moneypunct@D$0A@@std@@MAEPAXI@Z 004538d0 f i libcpmtd:xlocale.obj
 0001:000528d0       ??_G?$moneypunct@D$0A@@std@@MAEPAXI@Z 004538d0 f i libcpmtd:xlocale.obj
 0001:00052930       ??_E?$time_get@DV?$istreambuf_iterator@DU?$char_traits@D@std@@@std@@@std@@MAEPAXI@Z 00453930 f i libcpmtd:xlocale.obj
 0001:00052930       ??_G?$time_get@DV?$istreambuf_iterator@DU?$char_traits@D@std@@@std@@@std@@MAEPAXI@Z 00453930 f i libcpmtd:xlocale.obj
 0001:00052990       ??_G?$time_put@DV?$ostreambuf_iterator@DU?$char_traits@D@std@@@std@@@std@@MAEPAXI@Z 00453990 f i libcpmtd:xlocale.obj
 0001:00052990       ??_E?$time_put@DV?$ostreambuf_iterator@DU?$char_traits@D@std@@@std@@@std@@MAEPAXI@Z 00453990 f i libcpmtd:xlocale.obj
 0001:000529f0       ?_Compat@?$_String_const_iterator@V?$_String_val@U?$_Simple_types@D@std@@@std@@@std@@QBEXABV12@@Z 004539f0 f i libcpmtd:xlocale.obj
 0001:00052a80       ?_Getcat@?$collate@D@std@@SAIPAPBVfacet@locale@2@PBV42@@Z 00453a80 f i libcpmtd:xlocale.obj
 0001:00052c10       ?_Getcat@?$messages@D@std@@SAIPAPBVfacet@locale@2@PBV42@@Z 00453c10 f i libcpmtd:xlocale.obj
 0001:00052d30       ?_Getcat@?$money_get@DV?$istreambuf_iterator@DU?$char_traits@D@std@@@std@@@std@@SAIPAPBVfacet@locale@2@PBV42@@Z 00453d30 f i libcpmtd:xlocale.obj
 0001:00052e50       ?_Getcat@?$money_put@DV?$ostreambuf_iterator@DU?$char_traits@D@std@@@std@@@std@@SAIPAPBVfacet@locale@2@PBV42@@Z 00453e50 f i libcpmtd:xlocale.obj
 0001:00052f70       ?_Getcat@?$moneypunct@D$00@std@@SAIPAPBVfacet@locale@2@PBV42@@Z 00453f70 f i libcpmtd:xlocale.obj
 0001:000530a0       ?_Getcat@?$moneypunct@D$0A@@std@@SAIPAPBVfacet@locale@2@PBV42@@Z 004540a0 f i libcpmtd:xlocale.obj
 0001:000531d0       ?_Getcat@?$time_get@DV?$istreambuf_iterator@DU?$char_traits@D@std@@@std@@@std@@SAIPAPBVfacet@locale@2@PBV42@@Z 004541d0 f i libcpmtd:xlocale.obj
 0001:000532f0       ?_Getcat@?$time_put@DV?$ostreambuf_iterator@DU?$char_traits@D@std@@@std@@@std@@SAIPAPBVfacet@locale@2@PBV42@@Z 004542f0 f i libcpmtd:xlocale.obj
 0001:00053410       ?_Getfmt@?$time_get@DV?$istreambuf_iterator@DU?$char_traits@D@std@@@std@@@std@@IBE?AV?$istreambuf_iterator@DU?$char_traits@D@std@@@2@V32@0AAVios_base@2@AAHPAUtm@@PBD@Z 00454410 f i libcpmtd:xlocale.obj
 0001:00053640       ?_Getint@?$time_get@DV?$istreambuf_iterator@DU?$char_traits@D@std@@@std@@@std@@ABAHAAV?$istreambuf_iterator@DU?$char_traits@D@std@@@2@0HHAAHABV?$ctype@D@2@@Z 00454640 f i libcpmtd:xlocale.obj
 0001:000539b0       ?_Getmfld@?$money_get@DV?$istreambuf_iterator@DU?$char_traits@D@std@@@std@@@std@@ABE?AV?$basic_string@DU?$char_traits@D@std@@V?$allocator@D@2@@2@AAV?$istreambuf_iterator@DU?$char_traits@D@std@@@2@0_NAAVios_base@2@AAY0M@D@Z 004549b0 f i libcpmtd:xlocale.obj
 0001:00054e00       ?_Gettnames@_Locinfo@std@@QBE?AV_Timevec@2@XZ 00455e00 f i libcpmtd:xlocale.obj
 0001:00054e40       ?_Init@?$_Mpunct@D@std@@IAEXABV_Locinfo@2@_N@Z 00455e40 f i libcpmtd:xlocale.obj
 0001:00055060       ?_Init@?$collate@D@std@@IAEXABV_Locinfo@2@@Z 00456060 f i libcpmtd:xlocale.obj
 0001:000550a0       ?_Init@?$messages@D@std@@IAEXABV_Locinfo@2@@Z 004560a0 f i libcpmtd:xlocale.obj
 0001:000550b0       ?_Init@?$money_get@DV?$istreambuf_iterator@DU?$char_traits@D@std@@@std@@@std@@IAEXABV_Locinfo@2@@Z 004560b0 f i libcpmtd:xlocale.obj
 0001:000550c0       ?_Init@?$money_put@DV?$ostreambuf_iterator@DU?$char_traits@D@std@@@std@@@std@@IAEXABV_Locinfo@2@@Z 004560c0 f i libcpmtd:xlocale.obj
 0001:000550d0       ?_Init@?$time_get@DV?$istreambuf_iterator@DU?$char_traits@D@std@@@std@@@std@@IAEXABV_Locinfo@2@@Z 004560d0 f i libcpmtd:xlocale.obj
 0001:00055190       ?_Init@?$time_put@DV?$ostreambuf_iterator@DU?$char_traits@D@std@@@std@@@std@@IAEXABV_Locinfo@2@@Z 00456190 f i libcpmtd:xlocale.obj
 0001:00055220       ?_Makexloc@_Locimp@locale@std@@CAXABV_Locinfo@3@HPAV123@PBV23@@Z 00456220 f   libcpmtd:xlocale.obj
 0001:00055a70       ?_Makpat@?$_Mpunct@D@std@@AAEXAAUpattern@money_base@2@III@Z 00456a70 f i libcpmtd:xlocale.obj
 0001:00055af0       ?_Put@?$money_put@DV?$ostreambuf_iterator@DU?$char_traits@D@std@@@std@@@std@@CA?AV?$ostreambuf_iterator@DU?$char_traits@D@std@@@2@V32@V?$_String_const_iterator@V?$_String_val@U?$_Simple_types@D@std@@@std@@@2@I@Z 00456af0 f i libcpmtd:xlocale.obj
 0001:00055bc0       ?_Putmfld@?$money_put@DV?$ostreambuf_iterator@DU?$char_traits@D@std@@@std@@@std@@ABE?AV?$ostreambuf_iterator@DU?$char_traits@D@std@@@2@V32@_NAAVios_base@2@D1V?$basic_string@DU?$char_traits@D@std@@V?$allocator@D@2@@2@D@Z 00456bc0 f i libcpmtd:xlocale.obj
 0001:00056dd0       ?_Rep@?$money_put@DV?$ostreambuf_iterator@DU?$char_traits@D@std@@@std@@@std@@CA?AV?$ostreambuf_iterator@DU?$char_traits@D@std@@@2@V32@DI@Z 00457dd0 f i libcpmtd:xlocale.obj
 0001:00056e30       ?_Tidy@?$_Mpunct@D@std@@AAEXXZ 00457e30 f i libcpmtd:xlocale.obj
 0001:00056e90       ?_Tidy@?$time_get@DV?$istreambuf_iterator@DU?$char_traits@D@std@@@std@@@std@@AAEXXZ 00457e90 f i libcpmtd:xlocale.obj
 0001:00056ee0       ?_Verify_offset@?$_String_const_iterator@V?$_String_val@U?$_Simple_types@D@std@@@std@@@std@@QBEXH@Z 00457ee0 f i libcpmtd:xlocale.obj
 0001:00057110       ?begin@?$basic_string@DU?$char_traits@D@std@@V?$allocator@D@2@@std@@QAE?AV?$_String_iterator@V?$_String_val@U?$_Simple_types@D@std@@@std@@@2@XZ 00458110 f i libcpmtd:xlocale.obj
 0001:00057170       ?curr_symbol@?$_Mpunct@D@std@@QBE?AV?$basic_string@DU?$char_traits@D@std@@V?$allocator@D@2@@2@XZ 00458170 f i libcpmtd:xlocale.obj
 0001:000571d0       ?date_order@?$time_get@DV?$istreambuf_iterator@DU?$char_traits@D@std@@@std@@@std@@QBE?AW4dateorder@time_base@2@XZ 004581d0 f i libcpmtd:xlocale.obj
 0001:00057200       ?decimal_point@?$_Mpunct@D@std@@QBEDXZ 00458200 f i libcpmtd:xlocale.obj
 0001:00057230       ?do_close@?$messages@D@std@@MBEXH@Z 00458230 f i libcpmtd:xlocale.obj
 0001:00057240       ?do_compare@?$collate@D@std@@MBEHPBD000@Z 00458240 f i libcpmtd:xlocale.obj
 0001:000572e0       ?do_curr_symbol@?$_Mpunct@D@std@@MBE?AV?$basic_string@DU?$char_traits@D@std@@V?$allocator@D@2@@2@XZ 004582e0 f i libcpmtd:xlocale.obj
 0001:00057320       ?do_date_order@?$time_get@DV?$istreambuf_iterator@DU?$char_traits@D@std@@@std@@@std@@MBE?AW4dateorder@time_base@2@XZ 00458320 f i libcpmtd:xlocale.obj
 0001:00057340       ?do_decimal_point@?$_Mpunct@D@std@@MBEDXZ 00458340 f i libcpmtd:xlocale.obj
 0001:00057360       ?do_frac_digits@?$_Mpunct@D@std@@MBEHXZ 00458360 f i libcpmtd:xlocale.obj
 0001:00057380       ?do_get@?$messages@D@std@@MBE?AV?$basic_string@DU?$char_traits@D@std@@V?$allocator@D@2@@2@HHHABV32@@Z 00458380 f i libcpmtd:xlocale.obj
 0001:000573c0       ?do_get@?$money_get@DV?$istreambuf_iterator@DU?$char_traits@D@std@@@std@@@std@@MBE?AV?$istreambuf_iterator@DU?$char_traits@D@std@@@2@V32@0_NAAVios_base@2@AAHAAO@Z 004583c0 f i libcpmtd:xlocale.obj
 0001:00057530       ?do_get@?$money_get@DV?$istreambuf_iterator@DU?$char_traits@D@std@@@std@@@std@@MBE?AV?$istreambuf_iterator@DU?$char_traits@D@std@@@2@V32@0_NAAVios_base@2@AAHAAV?$basic_string@DU?$char_traits@D@std@@V?$allocator@D@2@@2@@Z 00458530 f i libcpmtd:xlocale.obj
 0001:000576f0       ?do_get@?$time_get@DV?$istreambuf_iterator@DU?$char_traits@D@std@@@std@@@std@@MBE?AV?$istreambuf_iterator@DU?$char_traits@D@std@@@2@V32@0AAVios_base@2@AAHPAUtm@@DD@Z 004586f0 f i libcpmtd:xlocale.obj
 0001:000580a0       ?do_get_date@?$time_get@DV?$istreambuf_iterator@DU?$char_traits@D@std@@@std@@@std@@MBE?AV?$istreambuf_iterator@DU?$char_traits@D@std@@@2@V32@0AAVios_base@2@AAHPAUtm@@@Z 004590a0 f i libcpmtd:xlocale.obj
 0001:00058840       ?do_get_monthname@?$time_get@DV?$istreambuf_iterator@DU?$char_traits@D@std@@@std@@@std@@MBE?AV?$istreambuf_iterator@DU?$char_traits@D@std@@@2@V32@0AAVios_base@2@AAHPAUtm@@@Z 00459840 f i libcpmtd:xlocale.obj
 0001:000588c0       ?do_get_time@?$time_get@DV?$istreambuf_iterator@DU?$char_traits@D@std@@@std@@@std@@MBE?AV?$istreambuf_iterator@DU?$char_traits@D@std@@@2@V32@0AAVios_base@2@AAHPAUtm@@@Z 004598c0 f i libcpmtd:xlocale.obj
 0001:00058ad0       ?do_get_weekday@?$time_get@DV?$istreambuf_iterator@DU?$char_traits@D@std@@@std@@@std@@MBE?AV?$istreambuf_iterator@DU?$char_traits@D@std@@@2@V32@0AAVios_base@2@AAHPAUtm@@@Z 00459ad0 f i libcpmtd:xlocale.obj
 0001:00058b50       ?do_get_year@?$time_get@DV?$istreambuf_iterator@DU?$char_traits@D@std@@@std@@@std@@MBE?AV?$istreambuf_iterator@DU?$char_traits@D@std@@@2@V32@0AAVios_base@2@AAHPAUtm@@@Z 00459b50 f i libcpmtd:xlocale.obj
 0001:00058c90       ?do_grouping@?$_Mpunct@D@std@@MBE?AV?$basic_string@DU?$char_traits@D@std@@V?$allocator@D@2@@2@XZ 00459c90 f i libcpmtd:xlocale.obj
 0001:00058cd0       ?do_hash@?$collate@D@std@@MBEJPBD0@Z 00459cd0 f i libcpmtd:xlocale.obj
 0001:00058d10       ?do_neg_format@?$_Mpunct@D@std@@MBE?AUpattern@money_base@2@XZ 00459d10 f i libcpmtd:xlocale.obj
 0001:00058d40       ?do_negative_sign@?$_Mpunct@D@std@@MBE?AV?$basic_string@DU?$char_traits@D@std@@V?$allocator@D@2@@2@XZ 00459d40 f i libcpmtd:xlocale.obj
 0001:00058d80       ?do_open@?$messages@D@std@@MBEHABV?$basic_string@DU?$char_traits@D@std@@V?$allocator@D@2@@2@ABVlocale@2@@Z 00459d80 f i libcpmtd:xlocale.obj
 0001:00058da0       ?do_pos_format@?$_Mpunct@D@std@@MBE?AUpattern@money_base@2@XZ 00459da0 f i libcpmtd:xlocale.obj
 0001:00058dd0       ?do_positive_sign@?$_Mpunct@D@std@@MBE?AV?$basic_string@DU?$char_traits@D@std@@V?$allocator@D@2@@2@XZ 00459dd0 f i libcpmtd:xlocale.obj
 0001:00058e10       ?do_put@?$money_put@DV?$ostreambuf_iterator@DU?$char_traits@D@std@@@std@@@std@@MBE?AV?$ostreambuf_iterator@DU?$char_traits@D@std@@@2@V32@_NAAVios_base@2@DABV?$basic_string@DU?$char_traits@D@std@@V?$allocator@D@2@@2@@Z 00459e10 f i libcpmtd:xlocale.obj
 0001:00059080       ?do_put@?$money_put@DV?$ostreambuf_iterator@DU?$char_traits@D@std@@@std@@@std@@MBE?AV?$ostreambuf_iterator@DU?$char_traits@D@std@@@2@V32@_NAAVios_base@2@DO@Z 0045a080 f i libcpmtd:xlocale.obj
 0001:000592a0       ?do_put@?$time_put@DV?$ostreambuf_iterator@DU?$char_traits@D@std@@@std@@@std@@MBE?AV?$ostreambuf_iterator@DU?$char_traits@D@std@@@2@V32@AAVios_base@2@DPBUtm@@DD@Z 0045a2a0 f i libcpmtd:xlocale.obj
 0001:00059450       ?do_thousands_sep@?$_Mpunct@D@std@@MBEDXZ 0045a450 f i libcpmtd:xlocale.obj
 0001:00059470       ?do_transform@?$collate@D@std@@MBE?AV?$basic_string@DU?$char_traits@D@std@@V?$allocator@D@2@@2@PBD0@Z 0045a470 f i libcpmtd:xlocale.obj
 0001:000595e0       ?end@?$basic_string@DU?$char_traits@D@std@@V?$allocator@D@2@@std@@QAE?AV?$_String_iterator@V?$_String_val@U?$_Simple_types@D@std@@@std@@@2@XZ 0045a5e0 f i libcpmtd:xlocale.obj
 0001:00059640       ?frac_digits@?$_Mpunct@D@std@@QBEHXZ 0045a640 f i libcpmtd:xlocale.obj
 0001:00059670       ?get_monthname@?$time_get@DV?$istreambuf_iterator@DU?$char_traits@D@std@@@std@@@std@@QBE?AV?$istreambuf_iterator@DU?$char_traits@D@std@@@2@V32@0AAVios_base@2@AAHPAUtm@@@Z 0045a670 f i libcpmtd:xlocale.obj
 0001:000596e0       ?get_weekday@?$time_get@DV?$istreambuf_iterator@DU?$char_traits@D@std@@@std@@@std@@QBE?AV?$istreambuf_iterator@DU?$char_traits@D@std@@@2@V32@0AAVios_base@2@AAHPAUtm@@@Z 0045a6e0 f i libcpmtd:xlocale.obj
 0001:00059750       ?get_year@?$time_get@DV?$istreambuf_iterator@DU?$char_traits@D@std@@@std@@@std@@QBE?AV?$istreambuf_iterator@DU?$char_traits@D@std@@@2@V32@0AAVios_base@2@AAHPAUtm@@@Z 0045a750 f i libcpmtd:xlocale.obj
 0001:000597c0       ?grouping@?$_Mpunct@D@std@@QBE?AV?$basic_string@DU?$char_traits@D@std@@V?$allocator@D@2@@2@XZ 0045a7c0 f i libcpmtd:xlocale.obj
 0001:00059820       ?is@?$ctype@D@std@@QBE_NFD@Z 0045a820 f i libcpmtd:xlocale.obj
 0001:00059870       ?narrow@?$ctype@D@std@@QBEDDD@Z 0045a870 f i libcpmtd:xlocale.obj
 0001:000598c0       ?neg_format@?$_Mpunct@D@std@@QBE?AUpattern@money_base@2@XZ 0045a8c0 f i libcpmtd:xlocale.obj
 0001:00059910       ?negative_sign@?$_Mpunct@D@std@@QBE?AV?$basic_string@DU?$char_traits@D@std@@V?$allocator@D@2@@2@XZ 0045a910 f i libcpmtd:xlocale.obj
 0001:00059970       ?pos_format@?$_Mpunct@D@std@@QBE?AUpattern@money_base@2@XZ 0045a970 f i libcpmtd:xlocale.obj
 0001:000599c0       ?positive_sign@?$_Mpunct@D@std@@QBE?AV?$basic_string@DU?$char_traits@D@std@@V?$allocator@D@2@@2@XZ 0045a9c0 f i libcpmtd:xlocale.obj
 0001:00059a20       ?thousands_sep@?$_Mpunct@D@std@@QBEDXZ 0045aa20 f i libcpmtd:xlocale.obj
 0001:00059a50       __Stolx                    0045aa50 f   libcpmtd:xstol.obj
 0001:00059bc0       __Stoul                    0045abc0 f   libcpmtd:xstoul.obj
 0001:00059bf0       __Stoulx                   0045abf0 f   libcpmtd:xstoul.obj
 0001:00059f00       __Stoll                    0045af00 f   libcpmtd:xstoll.obj
 0001:00059f30       __Stollx                   0045af30 f   libcpmtd:xstoll.obj
 0001:0005a0f0       __Stoull                   0045b0f0 f   libcpmtd:xstoull.obj
 0001:0005a120       __Stoullx                  0045b120 f   libcpmtd:xstoull.obj
 0001:0005a4d0       __Getcoll                  0045b4d0 f   libcpmtd:xstrcoll.obj
 0001:0005a530       __Strcoll                  0045b530 f   libcpmtd:xstrcoll.obj
 0001:0005a690       __Getdateorder             0045b690 f   libcpmtd:xdateord.obj
 0001:0005a770       __Mbrtowc                  0045b770 f   libcpmtd:xmbtowc.obj
 0001:0005ab10       __Wcscoll                  0045bb10 f   libcpmtd:xwcscoll.obj
 0001:0005ac60       _wmemcmp                   0045bc60 f i libcpmtd:xwcscoll.obj
 0001:0005ace0       ??$?RE@__crt_internal_free_policy@@QBEXQBE@Z 0045bce0 f i libcpmtd:xwcsxfrm.obj
 0001:0005ad10       ??0?$__crt_unique_heap_ptr@EU__crt_internal_free_policy@@@@QAE@QAE@Z 0045bd10 f i libcpmtd:xwcsxfrm.obj
 0001:0005ad30       ??1?$__crt_unique_heap_ptr@EU__crt_internal_free_policy@@@@QAE@XZ 0045bd30 f i libcpmtd:xwcsxfrm.obj
 0001:0005ad50       ??B?$__crt_unique_heap_ptr@EU__crt_internal_free_policy@@@@QBE_NXZ 0045bd50 f i libcpmtd:xwcsxfrm.obj
 0001:0005ad70       ?get@?$__crt_unique_heap_ptr@EU__crt_internal_free_policy@@@@QBEPAEXZ 0045bd70 f i libcpmtd:xwcsxfrm.obj
 0001:0005ad90       ?is_valid@?$__crt_unique_heap_ptr@EU__crt_internal_free_policy@@@@QBE_NXZ 0045bd90 f i libcpmtd:xwcsxfrm.obj
 0001:0005add0       ?release@?$__crt_unique_heap_ptr@EU__crt_internal_free_policy@@@@QAEXXZ 0045bdd0 f i libcpmtd:xwcsxfrm.obj
 0001:0005ae00       __Wcsxfrm                  0045be00 f   libcpmtd:xwcsxfrm.obj
 0001:0005afa0       __Getwctype                0045bfa0 f   libcpmtd:xgetwctype.obj
 0001:0005aff0       __Getwctypes               0045bff0 f   libcpmtd:xgetwctype.obj
 0001:0005b020       __Towlower                 0045c020 f   libcpmtd:xtowlower.obj
 0001:0005b0c0       __Towupper                 0045c0c0 f   libcpmtd:xtowupper.obj
 0001:0005b160       __Strxfrm                  0045c160 f   libcpmtd:xstrxfrm.obj
 0001:0005b290       ___crtCompareStringA       0045c290 f   libcpmtd:StlCompareStringA.obj
 0001:0005b850       ___crtCompareStringW       0045c850 f   libcpmtd:StlCompareStringW.obj
 0001:0005b920       ___crtLCMapStringW         0045c920 f   libcpmtd:StlLCMapStringW.obj
 0001:0005b9a0       ??2@YAPAXI@Z               0045c9a0 f   LIBCMTD:new_scalar.obj
 0001:0005ba00       ??3@YAXPAXI@Z              0045ca00 f   LIBCMTD:delete_scalar_size.obj
 0001:0005ba20       ??_V@YAXPAX@Z              0045ca20 f   LIBCMTD:delete_array.obj
 0001:0005ba40       @__security_check_cookie@4 0045ca40 f   LIBCMTD:secchk.obj
 0001:0005ba60       __ftoui3                   0045ca60 f   LIBCMTD:ftol3.obj
 0001:0005bac0       __ftoul3                   0045cac0 f   LIBCMTD:ftol3.obj
 0001:0005bb50       __ftol3                    0045cb50 f   LIBCMTD:ftol3.obj
 0001:0005bbe0       __dtoui3                   0045cbe0 f   LIBCMTD:ftol3.obj
 0001:0005bc80       __dtoul3                   0045cc80 f   LIBCMTD:ftol3.obj
 0001:0005bd50       __dtol3                    0045cd50 f   LIBCMTD:ftol3.obj
 0001:0005be30       __ultod3                   0045ce30 f   LIBCMTD:ftol3.obj
 0001:0005bea0       __ltod3                    0045cea0 f   LIBCMTD:ftol3.obj
 0001:0005bf00       ??1type_info@@UAE@XZ       0045cf00 f   LIBCMTD:std_type_info_static.obj
 0001:0005bf20       ??_Gtype_info@@UAEPAXI@Z   0045cf20 f i LIBCMTD:std_type_info_static.obj
 0001:0005bf20       ??_Etype_info@@UAEPAXI@Z   0045cf20 f i LIBCMTD:std_type_info_static.obj
 0001:0005c330       ?configure_argv@__scrt_narrow_argv_policy@@SAHXZ 0045d330 f i LIBCMTD:exe_winmain.obj
 0001:0005c350       ?initialize_environment@__scrt_narrow_environment_policy@@SAHXZ 0045d350 f i LIBCMTD:exe_winmain.obj
 0001:0005c3a0       ?set_app_type@__scrt_winmain_policy@@SAXXZ 0045d3a0 f i LIBCMTD:exe_winmain.obj
 0001:0005c3c0       ?set_commode@__scrt_file_policy@@SAXXZ 0045d3c0 f i LIBCMTD:exe_winmain.obj
 0001:0005c3e0       ?set_fmode@__scrt_file_policy@@SAXXZ 0045d3e0 f i LIBCMTD:exe_winmain.obj
 0001:0005c400       _WinMainCRTStartup         0045d400 f   LIBCMTD:exe_winmain.obj
 0001:0005c550       _NtCurrentTeb              0045d550 f i LIBCMTD:utility.obj
 0001:0005c560       ___scrt_acquire_startup_lock 0045d560 f   LIBCMTD:utility.obj
 0001:0005c5c0       ___scrt_dllmain_after_initialize_c 0045d5c0 f   LIBCMTD:utility.obj
 0001:0005c600       ___scrt_dllmain_before_initialize_c 0045d600 f   LIBCMTD:utility.obj
 0001:0005c630       ___scrt_dllmain_crt_thread_attach 0045d630 f   LIBCMTD:utility.obj
 0001:0005c670       ___scrt_dllmain_crt_thread_detach 0045d670 f   LIBCMTD:utility.obj
 0001:0005c690       ___scrt_dllmain_exception_filter 0045d690 f   LIBCMTD:utility.obj
 0001:0005c6f0       ___scrt_dllmain_uninitialize_c 0045d6f0 f   LIBCMTD:utility.obj
 0001:0005c730       ___scrt_dllmain_uninitialize_critical 0045d730 f   LIBCMTD:utility.obj
 0001:0005c750       ___scrt_initialize_crt     0045d750 f   LIBCMTD:utility.obj
 0001:0005c7b0       ___scrt_initialize_onexit_tables 0045d7b0 f   LIBCMTD:utility.obj
 0001:0005c8c0       ___scrt_is_nonwritable_in_current_image 0045d8c0 f   LIBCMTD:utility.obj
 0001:0005ca40       ___scrt_release_startup_lock 0045da40 f   LIBCMTD:utility.obj
 0001:0005ca70       ___scrt_uninitialize_crt   0045da70 f   LIBCMTD:utility.obj
 0001:0005cac0       __onexit                   0045dac0 f   LIBCMTD:utility.obj
 0001:0005cb40       _at_quick_exit             0045db40 f   LIBCMTD:utility.obj
 0001:0005cb90       _atexit                    0045db90 f   LIBCMTD:utility.obj
 0001:0005cbd0       @_guard_check_icall_nop@4  0045dbd0 f i LIBCMTD:guard_support.obj
 0001:0005cbe0       _ReadNoFence               0045dbe0 f i LIBCMTD:guard_support.obj
 0001:0005cc00       _ReadPointerNoFence        0045dc00 f i LIBCMTD:guard_support.obj
 0001:0005cc20       ___castguard_check_failure_debugbreak 0045dc20 f i LIBCMTD:guard_support.obj
 0001:0005cc40       ___castguard_check_failure_fastfail 0045dc40 f i LIBCMTD:guard_support.obj
 0001:0005cc70       ___castguard_check_failure_nop 0045dc70 f i LIBCMTD:guard_support.obj
 0001:0005cc80       ___castguard_check_failure_os_handled 0045dc80 f i LIBCMTD:guard_support.obj
 0001:0005cd20       ___castguard_slow_path_check_debugbreak 0045dd20 f i LIBCMTD:guard_support.obj
 0001:0005cd60       ___castguard_slow_path_check_fastfail 0045dd60 f i LIBCMTD:guard_support.obj
 0001:0005cdb0       ___castguard_slow_path_check_nop 0045ddb0 f i LIBCMTD:guard_support.obj
 0001:0005cdc0       ___castguard_slow_path_check_os_handled 0045ddc0 f i LIBCMTD:guard_support.obj
 0001:0005ce80       __guard_icall_checks_enforced 0045de80 f i LIBCMTD:guard_support.obj
 0001:0005cec0       ___raise_securityfailure   0045dec0 f   LIBCMTD:gs_report.obj
 0001:0005cf00       ___report_gsfailure        0045df00 f   LIBCMTD:gs_report.obj
 0001:0005d050       ___report_rangecheckfailure 0045e050 f   LIBCMTD:gs_report.obj
 0001:0005d060       ___report_securityfailure  0045e060 f   LIBCMTD:gs_report.obj
 0001:0005d170       ___report_securityfailureEx 0045e170 f   LIBCMTD:gs_report.obj
 0001:0005d2e0       ??3@YAXPAX@Z               0045e2e0 f   LIBCMTD:delete_scalar.obj
 0001:0005d300       __allmul                   0045e300 f   LIBCMTD:llmul.obj
 0001:0005d350       __aulldiv                  0045e350 f   LIBCMTD:ulldiv.obj
 0001:0005d3e0       ?__scrt_throw_std_bad_alloc@@YAXXZ 0045e3e0 f   LIBCMTD:throw_bad_alloc.obj
 0001:0005d410       ?__scrt_throw_std_bad_array_new_length@@YAXXZ 0045e410 f   LIBCMTD:throw_bad_alloc.obj
 0001:0005d440       ___isa_available_init      0045e440 f   LIBCMTD:cpu_disp.obj
 0001:0005d8d0       ___security_init_cookie    0045e8d0 f   LIBCMTD:gs_support.obj
 0001:0005d970       __matherr                  0045e970 f   LIBCMTD:matherr.obj
 0001:0005d980       __get_startup_argv_mode    0045e980 f   LIBCMTD:argv_mode.obj
 0001:0005d990       __get_startup_commit_mode  0045e990 f   LIBCMTD:commit_mode.obj
 0001:0005d9a0       __get_startup_file_mode    0045e9a0 f   LIBCMTD:file_mode.obj
 0001:0005d9b0       __get_startup_new_mode     0045e9b0 f   LIBCMTD:new_mode.obj
 0001:0005d9c0       __get_startup_thread_locale_mode 0045e9c0 f   LIBCMTD:thread_locale.obj
 0001:0005d9d0       ?__scrt_initialize_type_info@@YAXXZ 0045e9d0 f   LIBCMTD:tncleanup.obj
 0001:0005d9f0       ?__scrt_uninitialize_type_info@@YAXXZ 0045e9f0 f   LIBCMTD:tncleanup.obj
 0001:0005da10       __should_initialize_environment 0045ea10 f   LIBCMTD:env_mode.obj
 0001:0005da20       __initialize_default_precision 0045ea20 f   LIBCMTD:default_precision.obj
 0001:0005da50       __initialize_invalid_parameter_handler 0045ea50 f   LIBCMTD:invalid_parameter_handler.obj
 0001:0005da60       __initialize_denormal_control 0045ea60 f   LIBCMTD:denormal_control.obj
 0001:0005da70       ___local_stdio_scanf_options 0045ea70 f i LIBCMTD:default_local_stdio_options.obj
 0001:0005da80       ___scrt_initialize_default_local_stdio_options 0045ea80 f   LIBCMTD:default_local_stdio_options.obj
 0001:0005dad0       ___scrt_is_user_matherr_present 0045ead0 f   LIBCMTD:matherr_detection.obj
 0001:0005db00       ___scrt_get_dyn_tls_init_callback 0045eb00 f   LIBCMTD:dyn_tls_init.obj
 0001:0005db10       ___scrt_get_dyn_tls_dtor_callback 0045eb10 f   LIBCMTD:dyn_tls_dtor.obj
 0001:0005db20       ___scrt_fastfail           0045eb20 f   LIBCMTD:utility_desktop.obj
 0001:0005dcb0       ___scrt_get_show_window_mode 0045ecb0 f   LIBCMTD:utility_desktop.obj
 0001:0005dd00       ___scrt_initialize_mta     0045ed00 f   LIBCMTD:utility_desktop.obj
 0001:0005dd10       ___scrt_initialize_winrt   0045ed10 f   LIBCMTD:utility_desktop.obj
 0001:0005dd20       ___scrt_is_managed_app     0045ed20 f   LIBCMTD:utility_desktop.obj
 0001:0005ddd0       ___scrt_set_unhandled_exception_filter 0045edd0 f   LIBCMTD:utility_desktop.obj
 0001:0005ddf0       ___scrt_exe_initialize_mta 0045edf0 f   LIBCMTD:utility_desktop.obj
 0001:0005ddf0       ___scrt_stub_for_initialize_mta 0045edf0 f   LIBCMTD:utility_desktop.obj
 0001:0005de00       ___scrt_unhandled_exception_filter@4 0045ee00 f   LIBCMTD:utility_desktop.obj
 0001:0005dea0       __crt_debugger_hook        0045eea0 f   LIBCMTD:utility_desktop.obj
 0001:0005dec0       __RTC_Initialize           0045eec0 f   LIBCMTD:initsect.obj
 0001:0005df00       __RTC_Terminate            0045ef00 f   LIBCMTD:initsect.obj
 0001:0005df40       ___scrt_is_ucrt_dll_in_use 0045ef40 f   LIBCMTD:ucrt_detection.obj
 0001:0005df6d       _GetStdHandle@4            0045ef6d f   kernel32:KERNEL32.dll
 0001:0005df73       _QueryPerformanceCounter@4 0045ef73 f   kernel32:KERNEL32.dll
 0001:0005df79       _QueryPerformanceFrequency@4 0045ef79 f   kernel32:KERNEL32.dll
 0001:0005df7f       _Sleep@4                   0045ef7f f   kernel32:KERNEL32.dll
 0001:0005df85       _AllocConsole@0            0045ef85 f   kernel32:KERNEL32.dll
 0001:0005df8b       _FormatMessageA@28         0045ef8b f   kernel32:KERNEL32.dll
 0001:0005df91       _EnterCriticalSection@4    0045ef91 f   kernel32:KERNEL32.dll
 0001:0005df97       _LeaveCriticalSection@4    0045ef97 f   kernel32:KERNEL32.dll
 0001:0005df9d       _InitializeCriticalSectionEx@12 0045ef9d f   kernel32:KERNEL32.dll
 0001:0005dfa3       _DeleteCriticalSection@4   0045efa3 f   kernel32:KERNEL32.dll
 0001:0005dfa9       _LocalFree@4               0045efa9 f   kernel32:KERNEL32.dll
 0001:0005dfaf       _EncodePointer@4           0045efaf f   kernel32:KERNEL32.dll
 0001:0005dfb5       _DecodePointer@4           0045efb5 f   kernel32:KERNEL32.dll
 0001:0005dfbb       _MultiByteToWideChar@24    0045efbb f   kernel32:KERNEL32.dll
 0001:0005dfc1       _WideCharToMultiByte@32    0045efc1 f   kernel32:KERNEL32.dll
 0001:0005dfc7       _LCMapStringEx@36          0045efc7 f   kernel32:KERNEL32.dll
 0001:0005dfcd       _GetLocaleInfoEx@16        0045efcd f   kernel32:KERNEL32.dll
 0001:0005dfd3       _GetStringTypeW@16         0045efd3 f   kernel32:KERNEL32.dll
 0001:0005dfd9       _CompareStringEx@36        0045efd9 f   kernel32:KERNEL32.dll
 0001:0005dfdf       _GetCPInfo@8               0045efdf f   kernel32:KERNEL32.dll
 0001:0005dfe5       _UnhandledExceptionFilter@4 0045efe5 f   kernel32:KERNEL32.dll
 0001:0005dfeb       _SetUnhandledExceptionFilter@4 0045efeb f   kernel32:KERNEL32.dll
 0001:0005dff1       _GetCurrentProcess@0       0045eff1 f   kernel32:KERNEL32.dll
 0001:0005dff7       _TerminateProcess@8        0045eff7 f   kernel32:KERNEL32.dll
 0001:0005dffd       _IsProcessorFeaturePresent@4 0045effd f   kernel32:KERNEL32.dll
 0001:0005e003       _GetCurrentProcessId@0     0045f003 f   kernel32:KERNEL32.dll
 0001:0005e009       _GetCurrentThreadId@0      0045f009 f   kernel32:KERNEL32.dll
 0001:0005e00f       _GetSystemTimeAsFileTime@4 0045f00f f   kernel32:KERNEL32.dll
 0001:0005e015       _InitializeSListHead@4     0045f015 f   kernel32:KERNEL32.dll
 0001:0005e01b       _IsDebuggerPresent@0       0045f01b f   kernel32:KERNEL32.dll
 0001:0005e021       _GetStartupInfoW@4         0045f021 f   kernel32:KERNEL32.dll
 0001:0005e027       _GetModuleHandleW@4        0045f027 f   kernel32:KERNEL32.dll
 0001:0005e030       ??$__crt_interlocked_exchange_pointer@$$A6AXXZP6AXXZ@@YAP6AXXZPDS6AXXZQ6AXXZ@Z 0045f030 f i libvcruntimed:purevirt.obj
 0001:0005e040       ??$__crt_interlocked_read_pointer@$$A6AXXZ@@YAP6AXXZPDS6AXXZ@Z 0045f040 f i libvcruntimed:purevirt.obj
 0001:0005e060       ?__crt_interlocked_read_32@@YAHPDH@Z 0045f060 f i libvcruntimed:purevirt.obj
 0001:0005e080       __get_purecall_handler     0045f080 f   libvcruntimed:purevirt.obj
 0001:0005e0a0       __purecall                 0045f0a0 f   libvcruntimed:purevirt.obj
 0001:0005e0e0       __set_purecall_handler     0045f0e0 f   libvcruntimed:purevirt.obj
 0001:0005e100       ??$?RD@__crt_public_free_policy@@QBEXQBD@Z 0045f100 f i libvcruntimed:std_exception.obj
 0001:0005e120       ??0?$__crt_unique_heap_ptr@DU__crt_public_free_policy@@@@QAE@QAD@Z 0045f120 f i libvcruntimed:std_exception.obj
 0001:0005e140       ??1?$__crt_unique_heap_ptr@DU__crt_public_free_policy@@@@QAE@XZ 0045f140 f i libvcruntimed:std_exception.obj
 0001:0005e160       ??B?$__crt_unique_heap_ptr@DU__crt_public_free_policy@@@@QBE_NXZ 0045f160 f i libvcruntimed:std_exception.obj
 0001:0005e180       ?detach@?$__crt_unique_heap_ptr@DU__crt_public_free_policy@@@@QAEPADXZ 0045f180 f i libvcruntimed:std_exception.obj
 0001:0005e1b0       ?get@?$__crt_unique_heap_ptr@DU__crt_public_free_policy@@@@QBEPADXZ 0045f1b0 f i libvcruntimed:std_exception.obj
 0001:0005e1d0       ?is_valid@?$__crt_unique_heap_ptr@DU__crt_public_free_policy@@@@QBE_NXZ 0045f1d0 f i libvcruntimed:std_exception.obj
 0001:0005e210       ?release@?$__crt_unique_heap_ptr@DU__crt_public_free_policy@@@@QAEXXZ 0045f210 f i libvcruntimed:std_exception.obj
 0001:0005e240       ___std_exception_copy      0045f240 f   libvcruntimed:std_exception.obj
 0001:0005e370       ___std_exception_destroy   0045f370 f   libvcruntimed:std_exception.obj
 0001:0005e3b0       __CxxThrowException@8      0045f3b0 f   libvcruntimed:throw.obj
 0001:0005e480       ??$?0AAViterator@TryBlockMap@__FrameHandler3@@AAV012@$0A@@?$pair@Viterator@TryBlockMap@__FrameHandler3@@V123@@std@@QAE@AAViterator@TryBlockMap@__FrameHandler3@@0@Z 0045f480 f i libvcruntimed:trnsctrl.obj
 0001:0005e4e0       ??$forward@AAViterator@TryBlockMap@__FrameHandler3@@@std@@YAAAViterator@TryBlockMap@__FrameHandler3@@AAV123@@Z 0045f4e0 f i libvcruntimed:trnsctrl.obj
 0001:0005e4f0       ??0iterator@TryBlockMap@__FrameHandler3@@QAE@AAV12@I@Z 0045f4f0 f i libvcruntimed:trnsctrl.obj
 0001:0005e520       ?GetRangeOfTrysToCheck@__FrameHandler3@@SA?AU?$pair@Viterator@TryBlockMap@__FrameHandler3@@V123@@std@@AAVTryBlockMap@1@HPAXPBU_s_FuncInfo@@H@Z 0045f520 f   libvcruntimed:trnsctrl.obj
 0001:0005e640       ?_CallCatchBlock2@@YAPAXPAUEHRegistrationNode@@PBU_s_FuncInfo@@PAXHK@Z 0045f640 f   libvcruntimed:trnsctrl.obj
 0001:0005e6d0       ?_CallSETranslator@@YAHPAUEHExceptionRecord@@PAUEHRegistrationNode@@PAX2PBU_s_FuncInfo@@H1@Z 0045f6d0 f   libvcruntimed:trnsctrl.obj
 0001:0005e830       ?_JumpToContinuation@@YGXPAXPAUEHRegistrationNode@@@Z 0045f830 f   libvcruntimed:trnsctrl.obj
 0001:0005e870       ?_UnwindNestedFrames@@YGXPAUEHRegistrationNode@@PAUEHExceptionRecord@@@Z 0045f870 f   libvcruntimed:trnsctrl.obj
 0001:0005e8e0       __CatchGuardHandler        0045f8e0 f   libvcruntimed:trnsctrl.obj
 0001:0005e940       __CreateFrameInfo          0045f940 f   libvcruntimed:trnsctrl.obj
 0001:0005e980       __FindAndUnlinkFrame       0045f980 f   libvcruntimed:trnsctrl.obj
 0001:0005ea10       __TranslatorGuardHandler   0045fa10 f   libvcruntimed:trnsctrl.obj
 0001:0005eaf0       ___CxxFrameHandler         0045faf0 f   libvcruntimed:trnsctrl.obj
 0001:0005eb40       ___CxxFrameHandler2        0045fb40 f   libvcruntimed:trnsctrl.obj
 0001:0005eb90       ___CxxFrameHandler3        0045fb90 f   libvcruntimed:trnsctrl.obj
 0001:0005ebe0       ___CxxLongjmpUnwind@4      0045fbe0 f   libvcruntimed:trnsctrl.obj
 0001:0005ec30       _memcpy                    0045fc30 f   libvcruntimed:memcpy.obj
 0001:0005f310       _memmove                   00460310 f   libvcruntimed:memmove.obj
 0001:0005f9f0       _memset                    004609f0 f   libvcruntimed:memset.obj
 0001:0005fba0       ___uncaught_exception      00460ba0 f   libvcruntimed:uncaught_exception.obj
 0001:0005fc00       _memchr                    00460c00 f   libvcruntimed:memchr.obj
 0001:0005fef0       _memcmp                    00460ef0 f   libvcruntimed:memcmp.obj
 0001:00060a70       __except_handler4          00461a70 f   libvcruntimed:chandler4.obj
 0001:00060cd0       ___vcrt_initialize         00461cd0 f   libvcruntimed:initialization.obj
 0001:00060d10       ___vcrt_thread_attach      00461d10 f   libvcruntimed:initialization.obj
 0001:00060d30       ___vcrt_thread_detach      00461d30 f   libvcruntimed:initialization.obj
 0001:00060d50       ___vcrt_uninitialize       00461d50 f   libvcruntimed:initialization.obj
 0001:00060d70       ___vcrt_uninitialize_critical 00461d70 f   libvcruntimed:initialization.obj
 0001:00060dd0       ??$?RD@__crt_internal_free_policy@@QBEXQBD@Z 00461dd0 f i libvcruntimed:std_type_info.obj
 0001:00060e00       ??$?RX@__crt_internal_free_policy@@QBEXQBX@Z 00461e00 f i libvcruntimed:std_type_info.obj
 0001:00060e30       ??$__crt_interlocked_compare_exchange_pointer@$$CBDPAD$$T@@YAPBDPDSBDQAD$$T@Z 00461e30 f i libvcruntimed:std_type_info.obj
 0001:00060e50       ??$__crt_interlocked_read_pointer@$$CBD@@YAPBDPDSBD@Z 00461e50 f i libvcruntimed:std_type_info.obj
 0001:00060e70       ??0?$__crt_unique_heap_ptr@DU__crt_internal_free_policy@@@@QAE@QAD@Z 00461e70 f i libvcruntimed:std_type_info.obj
 0001:00060e90       ??0?$__crt_unique_heap_ptr@XU__crt_internal_free_policy@@@@QAE@QAX@Z 00461e90 f i libvcruntimed:std_type_info.obj
 0001:00060eb0       ??1?$__crt_unique_heap_ptr@DU__crt_internal_free_policy@@@@QAE@XZ 00461eb0 f i libvcruntimed:std_type_info.obj
 0001:00060ed0       ??1?$__crt_unique_heap_ptr@XU__crt_internal_free_policy@@@@QAE@XZ 00461ed0 f i libvcruntimed:std_type_info.obj
 0001:00060ef0       ??B?$__crt_unique_heap_ptr@DU__crt_internal_free_policy@@@@QBE_NXZ 00461ef0 f i libvcruntimed:std_type_info.obj
 0001:00060f10       ??B?$__crt_unique_heap_ptr@XU__crt_internal_free_policy@@@@QBE_NXZ 00461f10 f i libvcruntimed:std_type_info.obj
 0001:00060fd0       ?detach@?$__crt_unique_heap_ptr@XU__crt_internal_free_policy@@@@QAEPAXXZ 00461fd0 f i libvcruntimed:std_type_info.obj
 0001:00061000       ?get@?$__crt_unique_heap_ptr@DU__crt_internal_free_policy@@@@QBEPADXZ 00462000 f i libvcruntimed:std_type_info.obj
 0001:00061020       ?get@?$__crt_unique_heap_ptr@XU__crt_internal_free_policy@@@@QBEPAXXZ 00462020 f i libvcruntimed:std_type_info.obj
 0001:00061040       ?is_valid@?$__crt_unique_heap_ptr@DU__crt_internal_free_policy@@@@QBE_NXZ 00462040 f i libvcruntimed:std_type_info.obj
 0001:00061080       ?is_valid@?$__crt_unique_heap_ptr@XU__crt_internal_free_policy@@@@QBE_NXZ 00462080 f i libvcruntimed:std_type_info.obj
 0001:000610c0       ?release@?$__crt_unique_heap_ptr@DU__crt_internal_free_policy@@@@QAEXXZ 004620c0 f i libvcruntimed:std_type_info.obj
 0001:000610f0       ?release@?$__crt_unique_heap_ptr@XU__crt_internal_free_policy@@@@QAEXXZ 004620f0 f i libvcruntimed:std_type_info.obj
 0001:00061120       ___std_type_info_compare   00462120 f   libvcruntimed:std_type_info.obj
 0001:00061150       ___std_type_info_destroy_list 00462150 f   libvcruntimed:std_type_info.obj
 0001:000611a0       ___std_type_info_hash      004621a0 f   libvcruntimed:std_type_info.obj
 0001:00061210       ___std_type_info_name      00462210 f   libvcruntimed:std_type_info.obj
 0001:00061460       ___DestructExceptionObject 00462460 f   libvcruntimed:ehhelpers.obj
 0001:000615d0       ?_CallMemberFunction0@@YGXQAX0@Z 004625d0 f i libvcruntimed:ehhelpers.obj
 0001:000616a0       ?raw_name@type_info@@QBEPBDXZ 004626a0 f i libvcruntimed:ehhelpers.obj
 0001:000616c0       __IsExceptionObjectToBeDestroyed 004626c0 f   libvcruntimed:ehhelpers.obj
 0001:00061710       __SetWinRTOutOfMemoryExceptionCallback 00462710 f   libvcruntimed:ehhelpers.obj
 0001:00061720       ___AdjustPointer           00462720 f   libvcruntimed:ehhelpers.obj
 0001:00061780       ___FrameUnwindFilter       00462780 f   libvcruntimed:ehhelpers.obj
 0001:00061830       ___GetPlatformExceptionInfo 00462830 f   libvcruntimed:ehhelpers.obj
 0001:000618d0       ___current_exception       004628d0 f   libvcruntimed:ehhelpers.obj
 0001:000618e0       ___current_exception_context 004628e0 f   libvcruntimed:ehhelpers.obj
 0001:000618f0       ___processing_throw        004628f0 f   libvcruntimed:ehhelpers.obj
 0001:00061900       ___std_terminate           00462900 f   libvcruntimed:ehhelpers.obj
 0001:00061910       __is_exception_typeof      00462910 f   libvcruntimed:ehhelpers.obj
 0001:00061a20       ??$?RU__vcrt_ptd@@@__crt_internal_free_policy@@QBEXQBU__vcrt_ptd@@@Z 00462a20 f i libvcruntimed:per_thread_data.obj
 0001:00061a50       ??0?$__crt_unique_heap_ptr@U__vcrt_ptd@@U__crt_internal_free_policy@@@@QAE@QAU__vcrt_ptd@@@Z 00462a50 f i libvcruntimed:per_thread_data.obj
 0001:00061a90       ??1?$__crt_unique_heap_ptr@U__vcrt_ptd@@U__crt_internal_free_policy@@@@QAE@XZ 00462a90 f i libvcruntimed:per_thread_data.obj
 0001:00061ad0       ??B?$__crt_unique_heap_ptr@U__vcrt_ptd@@U__crt_internal_free_policy@@@@QBE_NXZ 00462ad0 f i libvcruntimed:per_thread_data.obj
 0001:00061af0       ?detach@?$__crt_unique_heap_ptr@U__vcrt_ptd@@U__crt_internal_free_policy@@@@QAEPAU__vcrt_ptd@@XZ 00462af0 f i libvcruntimed:per_thread_data.obj
 0001:00061b20       ?get@?$__crt_unique_heap_ptr@U__vcrt_ptd@@U__crt_internal_free_policy@@@@QBEPAU__vcrt_ptd@@XZ 00462b20 f i libvcruntimed:per_thread_data.obj
 0001:00061b40       ?is_valid@?$__crt_unique_heap_ptr@U__vcrt_ptd@@U__crt_internal_free_policy@@@@QBE_NXZ 00462b40 f i libvcruntimed:per_thread_data.obj
 0001:00061b80       ?release@?$__crt_unique_heap_ptr@U__vcrt_ptd@@U__crt_internal_free_policy@@@@QAEXXZ 00462b80 f i libvcruntimed:per_thread_data.obj
 0001:00061be0       ___vcrt_freefls@4          00462be0 f   libvcruntimed:per_thread_data.obj
 0001:00061c10       ___vcrt_freeptd            00462c10 f   libvcruntimed:per_thread_data.obj
 0001:00061c80       ___vcrt_getptd             00462c80 f   libvcruntimed:per_thread_data.obj
 0001:00061cb0       ___vcrt_getptd_noexit      00462cb0 f   libvcruntimed:per_thread_data.obj
 0001:00061e60       ___vcrt_getptd_noinit      00462e60 f   libvcruntimed:per_thread_data.obj
 0001:00061ed0       ___vcrt_initialize_ptd     00462ed0 f   libvcruntimed:per_thread_data.obj
 0001:00061f30       ___vcrt_uninitialize_ptd   00462f30 f   libvcruntimed:per_thread_data.obj
 0001:00062d90       ??$TypeMatchHelper@V__FrameHandler3@@@@YAHPBU_s_HandlerType@@PBU_s_CatchableType@@PBU_s_ThrowInfo@@@Z 00463d90 f i libvcruntimed:frame.obj
 0001:00062ea0       ??$__InternalCxxFrameHandler@V__FrameHandler3@@@@YA?AW4_EXCEPTION_DISPOSITION@@PAUEHExceptionRecord@@PAUEHRegistrationNode@@PAU_CONTEXT@@PAXPBU_s_FuncInfo@@H1E@Z 00463ea0 f i libvcruntimed:frame.obj
 0001:000630d0       ??0HandlerMap@__FrameHandler3@@QAE@PBU_s_TryBlockMapEntry@@II@Z 004640d0 f i libvcruntimed:frame.obj
 0001:00063100       ??0TryBlockMap@__FrameHandler3@@QAE@PBU_s_FuncInfo@@I@Z 00464100 f i libvcruntimed:frame.obj
 0001:00063130       ??0bad_exception@std@@QAE@ABV01@@Z 00464130 f i libvcruntimed:frame.obj
 0001:00063160       ??0bad_exception@std@@QAE@XZ 00464160 f i libvcruntimed:frame.obj
 0001:00063190       ??0iterator@HandlerMap@__FrameHandler3@@QAE@AAV12@I@Z 00464190 f i libvcruntimed:frame.obj
 0001:000631c0       ??1bad_exception@std@@UAE@XZ 004641c0 f i libvcruntimed:frame.obj
 0001:000631e0       ??8iterator@HandlerMap@__FrameHandler3@@QBE_NABV012@@Z 004641e0 f i libvcruntimed:frame.obj
 0001:00063220       ??8type_info@@QBE_NABV0@@Z 00464220 f i libvcruntimed:frame.obj
 0001:00063270       ??9iterator@HandlerMap@__FrameHandler3@@QBE_NABV012@@Z 00464270 f i libvcruntimed:frame.obj
 0001:000632c0       ??Diterator@HandlerMap@__FrameHandler3@@QAE?BU_s_HandlerType@@XZ 004642c0 f i libvcruntimed:frame.obj
 0001:00063310       ??Diterator@TryBlockMap@__FrameHandler3@@QAE?BU_s_TryBlockMapEntry@@XZ 00464310 f i libvcruntimed:frame.obj
 0001:00063370       ??Eiterator@HandlerMap@__FrameHandler3@@QAEAAV012@XZ 00464370 f i libvcruntimed:frame.obj
 0001:000633a0       ??Eiterator@TryBlockMap@__FrameHandler3@@QAEAAV012@XZ 004643a0 f i libvcruntimed:frame.obj
 0001:000633d0       ??Miterator@TryBlockMap@__FrameHandler3@@QBE_NABV012@@Z 004643d0 f i libvcruntimed:frame.obj
 0001:00063410       ??_Ebad_exception@std@@UAEPAXI@Z 00464410 f i libvcruntimed:frame.obj
 0001:00063410       ??_Gbad_exception@std@@UAEPAXI@Z 00464410 f i libvcruntimed:frame.obj
 0001:00063450       ?BuildCatchObject@__FrameHandler3@@SAXPAUEHExceptionRecord@@PAXPBU_s_HandlerType@@PBU_s_CatchableType@@@Z 00464450 f   libvcruntimed:frame.obj
 0001:00063480       ?BuildCatchObjectHelper@__FrameHandler3@@SAHPAUEHExceptionRecord@@PAXPBU_s_HandlerType@@PBU_s_CatchableType@@@Z 00464480 f   libvcruntimed:frame.obj
 0001:00063900       ?FrameUnwindToEmptyState@__FrameHandler3@@SAXPAUEHRegistrationNode@@PAXPBU_s_FuncInfo@@@Z 00464900 f   libvcruntimed:frame.obj
 0001:00063930       ?FrameUnwindToState@__FrameHandler3@@SAXPAUEHRegistrationNode@@PAXPBU_s_FuncInfo@@H@Z 00464930 f   libvcruntimed:frame.obj
 0001:00063b10       ?GetMaxState@__FrameHandler3@@SAHPAXPBU_s_FuncInfo@@@Z 00464b10 f i libvcruntimed:frame.obj
 0001:00063c60       ?TypeMatch@__FrameHandler3@@SAHPBU_s_HandlerType@@PBU_s_CatchableType@@PBU_s_ThrowInfo@@@Z 00464c60 f   libvcruntimed:frame.obj
 0001:00063c80       ?_CallMemberFunction1@@YGXQAX00@Z 00464c80 f i libvcruntimed:frame.obj
 0001:00063cb0       ?_CallMemberFunction2@@YGXQAX00H@Z 00464cb0 f i libvcruntimed:frame.obj
 0001:00063ce0       ?begin@HandlerMap@__FrameHandler3@@QAE?AViterator@12@XZ 00464ce0 f i libvcruntimed:frame.obj
 0001:00063d10       ?end@HandlerMap@__FrameHandler3@@QAE?AViterator@12@XZ 00464d10 f i libvcruntimed:frame.obj
 0001:00063d40       ?getESTypes@__FrameHandler3@@SAPBU_s_ESTypeList@@PBU_s_FuncInfo@@@Z 00464d40 f i libvcruntimed:frame.obj
 0001:00063d50       ?getLastEntry@HandlerMap@__FrameHandler3@@QAEPBU_s_HandlerType@@XZ 00464d50 f i libvcruntimed:frame.obj
 0001:00063d80       ?getMagicNum@__FrameHandler3@@SAIPBU_s_FuncInfo@@@Z 00464d80 f i libvcruntimed:frame.obj
 0001:00063da0       ?getNumTryBlocks@TryBlockMap@__FrameHandler3@@QAEIXZ 00464da0 f i libvcruntimed:frame.obj
 0001:00063dc0       ?isEHs@__FrameHandler3@@SA_NPBU_s_FuncInfo@@@Z 00464dc0 f i libvcruntimed:frame.obj
 0001:00063df0       ?isNoExcept@__FrameHandler3@@SA_NPBU_s_FuncInfo@@@Z 00464df0 f i libvcruntimed:frame.obj
 0001:00063e20       ___BuildCatchObject        00464e20 f   libvcruntimed:frame.obj
 0001:00063e50       ___BuildCatchObjectHelper  00464e50 f   libvcruntimed:frame.obj
 0001:00063e80       ___TypeMatch               00464e80 f   libvcruntimed:frame.obj
 0001:00063ea0       ___vcrt_EncodePointer      00464ea0 f i libvcruntimed:frame.obj
 0001:00063ec0       __CallSettingFrame@12      00464ec0 f   libvcruntimed:lowhelpr.obj
 0001:00063ee7       __NLG_Return               00464ee7     libvcruntimed:lowhelpr.obj
 0001:00063f30       ___except_validate_context_record 00464f30 f   libvcruntimed:jbcxrval.obj
 0001:00063f90       ___except_validate_jump_buffer 00464f90 f   libvcruntimed:jbcxrval.obj
 0001:00063fb0       ___except_validate_jump_buffer_common 00464fb0 f i libvcruntimed:jbcxrval.obj
 0001:00064020       __local_unwind4            00465020 f   libvcruntimed:exsup4.obj
 0001:00064150       __seh_longjmp_unwind4@4    00465150 f   libvcruntimed:exsup4.obj
 0001:00064190       @_EH4_CallFilterFunc@8     00465190 f   libvcruntimed:exsup4.obj
 0001:000641b0       @_EH4_TransferToHandler@8  004651b0 f   libvcruntimed:exsup4.obj
 0001:000641d0       @_EH4_GlobalUnwind2@8      004651d0 f   libvcruntimed:exsup4.obj
 0001:000641f0       @_EH4_LocalUnwind@16       004651f0 f   libvcruntimed:exsup4.obj
 0001:00064210       ___vcrt_initialize_locks   00465210 f   libvcruntimed:locks.obj
 0001:00064280       ___vcrt_lock               00465280 f   libvcruntimed:locks.obj
 0001:000642a0       ___vcrt_uninitialize_locks 004652a0 f   libvcruntimed:locks.obj
 0001:00064300       ___vcrt_unlock             00465300 f   libvcruntimed:locks.obj
 0001:00064320       ??$?0$00@DName@@QAE@PBDU?$StringLifeSelector@$00@@@Z 00465320 f i libvcruntimed:undname.obj
 0001:00064390       ??$?0$00@pcharNode@@QAE@PBDHU?$StringLifeSelector@$00@@@Z 00465390 f i libvcruntimed:undname.obj
 0001:000643d0       ??$?0$01@DName@@QAE@PBDU?$StringLifeSelector@$01@@@Z 004653d0 f i libvcruntimed:undname.obj
 0001:00064440       ??$?0$01@pcharNode@@QAE@PBDHU?$StringLifeSelector@$01@@@Z 00465440 f i libvcruntimed:undname.obj
 0001:000644e0       ??$?0$0A@@DName@@QAE@PBDU?$StringLifeSelector@$0A@@@@Z 004654e0 f i libvcruntimed:undname.obj
 0001:00064550       ??$?0$0A@@pcharNode@@QAE@PBDHU?$StringLifeSelector@$0A@@@@Z 00465550 f i libvcruntimed:undname.obj
 0001:000645f0       ??$?0_K$0A@@?$optional@_K@std@@QAE@$$QA_K@Z 004655f0 f i libvcruntimed:undname.obj
 0001:00064640       ??$?0_K@?$_Optional_construct_base@_K@std@@QAE@Uin_place_t@1@$$QA_K@Z 00465640 f i libvcruntimed:undname.obj
 0001:00064670       ??$?0_K@?$_Optional_destruct_base@_K$00@std@@QAE@Uin_place_t@1@$$QA_K@Z 00465670 f i libvcruntimed:undname.obj
 0001:000646b0       ??$append@VDNameNode@@@DName@@AAEXPBVDNameNode@@@Z 004656b0 f i libvcruntimed:undname.obj
 0001:00064760       ??$append@VDNameStatusNode@@@DName@@AAEXPBVDNameStatusNode@@@Z 00465760 f i libvcruntimed:undname.obj
 0001:00064810       ??$append@VcharNode@@@DName@@AAEXPBVcharNode@@@Z 00465810 f i libvcruntimed:undname.obj
 0001:000648c0       ??$append@VpDNameNode@@@DName@@AAEXPBVpDNameNode@@@Z 004658c0 f i libvcruntimed:undname.obj
 0001:00064970       ??$append@VpcharNode@@@DName@@AAEXPBVpcharNode@@@Z 00465970 f i libvcruntimed:undname.obj
 0001:00064a20       ??$doPchar@$00@DName@@AAEXPBDH@Z 00465a20 f i libvcruntimed:undname.obj
 0001:00064b70       ??$doPchar@$01@DName@@AAEXPBDH@Z 00465b70 f i libvcruntimed:undname.obj
 0001:00064cc0       ??$doPchar@$0A@@DName@@AAEXPBDH@Z 00465cc0 f i libvcruntimed:undname.obj
 0001:00064e10       ??$forward@_K@std@@YA$$QA_KAA_K@Z 00465e10 f i libvcruntimed:undname.obj
 0001:00064e20       ??$size@D$04@std@@YAIAAY04$$CBD@Z 00465e20 f i libvcruntimed:undname.obj
 0001:00064e30       ??$size@D$0EB@@std@@YAIAAY0EB@$$CBD@Z 00465e30 f i libvcruntimed:undname.obj
 0001:00064e40       ??0?$_Optional_construct_base@_K@std@@QAE@XZ 00465e40 f i libvcruntimed:undname.obj
 0001:00064e60       ??0?$_Optional_destruct_base@_K$00@std@@QAE@XZ 00465e60 f i libvcruntimed:undname.obj
 0001:00064e90       ??0?$optional@_K@std@@QAE@XZ 00465e90 f i libvcruntimed:undname.obj
 0001:00064eb0       ??0Block@_HeapManager@@QAE@XZ 00465eb0 f i libvcruntimed:undname.obj
 0001:00064ed0       ??0DName@@QAE@AAPBDD@Z     00465ed0 f   libvcruntimed:undname.obj
 0001:000650a0       ??0DName@@QAE@ABUStringLiteral@@@Z 004660a0 f   libvcruntimed:undname.obj
 0001:00065100       ??0DName@@QAE@ABV0@@Z      00466100 f i libvcruntimed:undname.obj
 0001:00065130       ??0DName@@QAE@D@Z          00466130 f   libvcruntimed:undname.obj
 0001:00065170       ??0DName@@QAE@PAV0@@Z      00466170 f   libvcruntimed:undname.obj
 0001:00065250       ??0DName@@QAE@W4DNameStatus@@@Z 00466250 f   libvcruntimed:undname.obj
 0001:00065310       ??0DName@@QAE@XZ           00466310 f i libvcruntimed:undname.obj
 0001:00065340       ??0DName@@QAE@_J@Z         00466340 f   libvcruntimed:undname.obj
 0001:00065460       ??0DName@@QAE@_K@Z         00466460 f   libvcruntimed:undname.obj
 0001:00065530       ??0DNameNode@@IAE@XZ       00466530 f i libvcruntimed:undname.obj
 0001:00065550       ??0Replicator@@QAE@XZ      00466550 f i libvcruntimed:undname.obj
 0001:000655a0       ??0UnDecorator@@QAE@PBDP6APADJ@ZK@Z 004665a0 f i libvcruntimed:undname.obj
 0001:00065640       ??0_Nontrivial_dummy_type@std@@QAE@XZ 00466640 f i libvcruntimed:undname.obj
 0001:00065660       ??0charNode@@QAE@D@Z       00466660 f i libvcruntimed:undname.obj
 0001:000656a0       ??0pDNameNode@@QAE@PAVDName@@@Z 004666a0 f   libvcruntimed:undname.obj
 0001:00065720       ??0pairNode@@QAE@PBVDNameNode@@0@Z 00466720 f i libvcruntimed:undname.obj
 0001:00065790       ??2@YAPAXIAAV_HeapManager@@H@Z 00466790 f   libvcruntimed:undname.obj
 0001:000657e0       ??4DName@@QAEAAV0@ABUStringLiteral@@@Z 004667e0 f   libvcruntimed:undname.obj
 0001:00065830       ??4DName@@QAEAAV0@ABV0@@Z  00466830 f   libvcruntimed:undname.obj
 0001:00065860       ??4DName@@QAEAAV0@D@Z      00466860 f i libvcruntimed:undname.obj
 0001:000658a0       ??4DName@@QAEAAV0@PAV0@@Z  004668a0 f   libvcruntimed:undname.obj
 0001:00065960       ??4DName@@QAEAAV0@W4DNameStatus@@@Z 00466960 f   libvcruntimed:undname.obj
 0001:00065a00       ??AReplicator@@QBE?AVDName@@H@Z 00466a00 f   libvcruntimed:undname.obj
 0001:00065a80       ??B?$optional@_K@std@@QBE_NXZ 00466a80 f i libvcruntimed:undname.obj
 0001:00065aa0       ??D?$optional@_K@std@@QGAEAA_KXZ 00466aa0 f i libvcruntimed:undname.obj
 0001:00065b20       ??H@YA?AVDName@@ABUStringLiteral@@ABV0@@Z 00466b20 f i libvcruntimed:undname.obj
 0001:00065b60       ??H@YA?AVDName@@DABV0@@Z   00466b60 f i libvcruntimed:undname.obj
 0001:00065ba0       ??H@YA?AVDName@@W4DNameStatus@@ABV0@@Z 00466ba0 f i libvcruntimed:undname.obj
 0001:00065be0       ??HDName@@QBE?AV0@ABUStringLiteral@@@Z 00466be0 f   libvcruntimed:undname.obj
 0001:00065c30       ??HDName@@QBE?AV0@ABV0@@Z  00466c30 f   libvcruntimed:undname.obj
 0001:00065c80       ??HDName@@QBE?AV0@D@Z      00466c80 f   libvcruntimed:undname.obj
 0001:00065cd0       ??HDName@@QBE?AV0@PAV0@@Z  00466cd0 f   libvcruntimed:undname.obj
 0001:00065d20       ??HDName@@QBE?AV0@W4DNameStatus@@@Z 00466d20 f   libvcruntimed:undname.obj
 0001:00065d70       ??HStringLiteral@@QBE?AU0@H@Z 00466d70 f i libvcruntimed:undname.obj
 0001:00065db0       ??YDName@@QAEAAV0@ABUStringLiteral@@@Z 00466db0 f   libvcruntimed:undname.obj
 0001:00065e70       ??YDName@@QAEAAV0@ABV0@@Z  00466e70 f   libvcruntimed:undname.obj
 0001:00065f30       ??YDName@@QAEAAV0@D@Z      00466f30 f   libvcruntimed:undname.obj
 0001:00065fd0       ??YDName@@QAEAAV0@PAV0@@Z  00466fd0 f   libvcruntimed:undname.obj
 0001:000660b0       ??YDName@@QAEAAV0@W4DNameStatus@@@Z 004670b0 f   libvcruntimed:undname.obj
 0001:00066130       ??YReplicator@@QAEAAV0@ABVDName@@@Z 00467130 f   libvcruntimed:undname.obj
 0001:000661e0       ??_5DName@@QAEAAV0@ABV0@@Z 004671e0 f   libvcruntimed:undname.obj
 0001:00066250       ??__K_l@@YA?AUStringLiteral@@PBDI@Z 00467250 f i libvcruntimed:undname.obj
 0001:00066280       ?Constructor@_HeapManager@@QAEXP6APAXI@ZP6AXPAX@Z@Z 00467280 f i libvcruntimed:undname.obj
 0001:000662d0       ?Destructor@_HeapManager@@QAEXXZ 004672d0 f i libvcruntimed:undname.obj
 0001:00066370       ?UScore@UnDecorator@@SA?AUStringLiteral@@W4Tokens@@@Z 00467370 f   libvcruntimed:undname.obj
 0001:000663d0       ?composeDeclaration@UnDecorator@@CA?AVDName@@ABV2@@Z 004673d0 f i libvcruntimed:undname.obj
 0001:00068b20       ?dbGetString@DName@@QBEPADXZ 00469b20 f   libvcruntimed:undname.obj
 0001:00068b50       ?doAccessSpecifiers@UnDecorator@@SAHXZ 00469b50 f i libvcruntimed:undname.obj
 0001:00068b80       ?doAllocationLanguage@UnDecorator@@SAHXZ 00469b80 f i libvcruntimed:undname.obj
 0001:00068bb0       ?doAllocationModel@UnDecorator@@SAHXZ 00469bb0 f i libvcruntimed:undname.obj
 0001:00068be0       ?doEcsu@UnDecorator@@SAHXZ 00469be0 f i libvcruntimed:undname.obj
 0001:00068c10       ?doEllipsis@UnDecorator@@SAHXZ 00469c10 f i libvcruntimed:undname.obj
 0001:00068c40       ?doFunctionReturns@UnDecorator@@SAHXZ 00469c40 f i libvcruntimed:undname.obj
 0001:00068c70       ?doMSKeywords@UnDecorator@@SAHXZ 00469c70 f i libvcruntimed:undname.obj
 0001:00068ca0       ?doMemberTypes@UnDecorator@@SAHXZ 00469ca0 f i libvcruntimed:undname.obj
 0001:00068cd0       ?doNameOnly@UnDecorator@@SAHXZ 00469cd0 f i libvcruntimed:undname.obj
 0001:00068cf0       ?doNoIdentCharCheck@UnDecorator@@SAHXZ 00469cf0 f i libvcruntimed:undname.obj
 0001:00068d10       ?doPchar@DName@@AAEXD@Z    00469d10 f   libvcruntimed:undname.obj
 0001:00068da0       ?doPtr64@UnDecorator@@SAHXZ 00469da0 f i libvcruntimed:undname.obj
 0001:00068dd0       ?doRestrictionSpec@UnDecorator@@SAHXZ 00469dd0 f i libvcruntimed:undname.obj
 0001:00068e00       ?doThisTypes@UnDecorator@@SAHXZ 00469e00 f i libvcruntimed:undname.obj
 0001:00068e40       ?doThrowTypes@UnDecorator@@SAHXZ 00469e40 f i libvcruntimed:undname.obj
 0001:00068e70       ?doTypeOnly@UnDecorator@@SAHXZ 00469e70 f i libvcruntimed:undname.obj
 0001:00068e90       ?doUnderScore@UnDecorator@@SAHXZ 00469e90 f i libvcruntimed:undname.obj
 0001:00068ec0       ?getAddressOf@UnDecorator@@CA?AVDName@@XZ 00469ec0 f   libvcruntimed:undname.obj
 0001:00068f60       ?getArgumentList@UnDecorator@@CA?AVDName@@XZ 00469f60 f   libvcruntimed:undname.obj
 0001:00069100       ?getArgumentTypes@UnDecorator@@CA?AVDName@@XZ 0046a100 f   libvcruntimed:undname.obj
 0001:00069390       ?getArrayAccess@UnDecorator@@CA?AVDName@@XZ 0046a390 f   libvcruntimed:undname.obj
 0001:00069450       ?getArrayObject@UnDecorator@@CA?AVDName@@XZ 0046a450 f   libvcruntimed:undname.obj
 0001:00069570       ?getArrayType@UnDecorator@@CA?AVDName@@ABV2@@Z 0046a570 f i libvcruntimed:undname.obj
 0001:000698b0       ?getBasedType@UnDecorator@@CA?AVDName@@XZ 0046a8b0 f   libvcruntimed:undname.obj
 0001:000699e0       ?getBasicDataType@UnDecorator@@CA?AVDName@@ABV2@@Z 0046a9e0 f   libvcruntimed:undname.obj
 0001:0006a5b0       ?getCHPEName@UnDecorator@@QAEPADPADH@Z 0046b5b0 f i libvcruntimed:undname.obj
 0001:0006a770       ?getCallIndex@UnDecorator@@CA?AVDName@@XZ 0046b770 f i libvcruntimed:undname.obj
 0001:0006a790       ?getCallingConvention@UnDecorator@@CA?AVDName@@XZ 0046b790 f   libvcruntimed:undname.obj
 0001:0006aa50       ?getDataIndirectType@UnDecorator@@CA?AVDName@@ABV2@W4IndirectionKind@@0H@Z 0046ba50 f   libvcruntimed:undname.obj
 0001:0006b5b0       ?getDataIndirectType@UnDecorator@@CA?AVDName@@XZ 0046c5b0 f i libvcruntimed:undname.obj
 0001:0006b600       ?getDataType@UnDecorator@@CA?AVDName@@PAV2@@Z 0046c600 f   libvcruntimed:undname.obj
 0001:0006b790       ?getDecoratedName@UnDecorator@@CA?AVDName@@XZ 0046c790 f   libvcruntimed:undname.obj
 0001:0006bcd0       ?getDimension@UnDecorator@@CA?AVDName@@_N@Z 0046ccd0 f   libvcruntimed:undname.obj
 0001:0006bfd0       ?getDispatchTarget@UnDecorator@@CA?AVDName@@XZ 0046cfd0 f   libvcruntimed:undname.obj
 0001:0006c0a0       ?getDisplacement@UnDecorator@@CA?AVDName@@XZ 0046d0a0 f i libvcruntimed:undname.obj
 0001:0006c0c0       ?getECSUDataType@UnDecorator@@CA?AVDName@@XZ 0046d0c0 f   libvcruntimed:undname.obj
 0001:0006c3b0       ?getECSUName@UnDecorator@@CA?AVDName@@XZ 0046d3b0 f i libvcruntimed:undname.obj
 0001:0006c3d0       ?getEnumType@UnDecorator@@CA?AVDName@@XZ 0046d3d0 f i libvcruntimed:undname.obj
 0001:0006c600       ?getExtendedDataIndirectType@UnDecorator@@CA?AVDName@@AAW4IndirectionKind@@AA_NH@Z 0046d600 f   libvcruntimed:undname.obj
 0001:0006c8e0       ?getExternalDataType@UnDecorator@@CA?AVDName@@ABV2@@Z 0046d8e0 f i libvcruntimed:undname.obj
 0001:0006c9a0       ?getFloatingPoint@UnDecorator@@CA?AVDName@@H@Z 0046d9a0 f   libvcruntimed:undname.obj
 0001:0006cbd0       ?getFunctionIndirectType@UnDecorator@@CA?AVDName@@ABV2@@Z 0046dbd0 f   libvcruntimed:undname.obj
 0001:0006d1f0       ?getGuardNumber@UnDecorator@@CA?AVDName@@XZ 0046e1f0 f i libvcruntimed:undname.obj
 0001:0006d210       ?getLastChar@DName@@QBEDXZ 0046e210 f i libvcruntimed:undname.obj
 0001:0006d260       ?getLastChar@DNameStatusNode@@UBEDXZ 0046e260 f i libvcruntimed:undname.obj
 0001:0006d2a0       ?getLastChar@charNode@@UBEDXZ 0046e2a0 f i libvcruntimed:undname.obj
 0001:0006d2c0       ?getLastChar@pDNameNode@@UBEDXZ 0046e2c0 f i libvcruntimed:undname.obj
 0001:0006d300       ?getLastChar@pairNode@@UBEDXZ 0046e300 f i libvcruntimed:undname.obj
 0001:0006d380       ?getLastChar@pcharNode@@UBEDXZ 0046e380 f i libvcruntimed:undname.obj
 0001:0006d3c0       ?getLexicalFrame@UnDecorator@@CA?AVDName@@XZ 0046e3c0 f i libvcruntimed:undname.obj
 0001:0006d410       ?getMemberAccess@UnDecorator@@CA?AVDName@@XZ 0046e410 f   libvcruntimed:undname.obj
 0001:0006d4c0       ?getMemoryWithBuffer@_HeapManager@@QAEPAXI@Z 0046e4c0 f   libvcruntimed:undname.obj
 0001:0006d5e0       ?getMemoryWithoutBuffer@_HeapManager@@QAEPAXI@Z 0046e5e0 f   libvcruntimed:undname.obj
 0001:0006d630       ?getNoexcept@UnDecorator@@CA?AVDName@@XZ 0046e630 f   libvcruntimed:undname.obj
 0001:0006d6d0       ?getNumberOfDimensions@UnDecorator@@CAHXZ 0046e6d0 f   libvcruntimed:undname.obj
 0001:0006d810       ?getOperatorName@UnDecorator@@CA?AVDName@@_NPA_N@Z 0046e810 f i libvcruntimed:undname.obj
 0001:0006e5d0       ?getPointerToMember@UnDecorator@@CA?AVDName@@XZ 0046f5d0 f   libvcruntimed:undname.obj
 0001:0006e700       ?getPointerType@UnDecorator@@CA?AVDName@@ABV2@0@Z 0046f700 f i libvcruntimed:undname.obj
 0001:0006e730       ?getPointerTypeArray@UnDecorator@@CA?AVDName@@ABV2@0@Z 0046f730 f i libvcruntimed:undname.obj
 0001:0006e760       ?getPrimaryDataType@UnDecorator@@CA?AVDName@@ABV2@@Z 0046f760 f   libvcruntimed:undname.obj
 0001:0006ed10       ?getPtrRefDataType@UnDecorator@@CA?AVDName@@ABV2@H@Z 0046fd10 f   libvcruntimed:undname.obj
 0001:0006f060       ?getPtrRefType@UnDecorator@@CA?AVDName@@ABV2@0W4IndirectionKind@@@Z 00470060 f   libvcruntimed:undname.obj
 0001:0006f240       ?getReferenceType@UnDecorator@@CA?AVDName@@ABV2@0W4IndirectionKind@@@Z 00470240 f i libvcruntimed:undname.obj
 0001:0006f270       ?getRestrictionSpec@UnDecorator@@CA?AVDName@@XZ 00470270 f   libvcruntimed:undname.obj
 0001:0006f4a0       ?getReturnType@UnDecorator@@CA?AVDName@@PAV2@@Z 004704a0 f   libvcruntimed:undname.obj
 0001:0006f500       ?getScope@UnDecorator@@CA?AVDName@@XZ 00470500 f   libvcruntimed:undname.obj
 0001:0006fbf0       ?getScopedName@UnDecorator@@CA?AVDName@@XZ 00470bf0 f   libvcruntimed:undname.obj
 0001:0006fd90       ?getSignedDimension@UnDecorator@@CA?AVDName@@XZ 00470d90 f   libvcruntimed:undname.obj
 0001:0006fe30       ?getStorageConvention@UnDecorator@@CA?AVDName@@XZ 00470e30 f i libvcruntimed:undname.obj
 0001:0006fe50       ?getString@DName@@QBEPADPAD0@Z 00470e50 f i libvcruntimed:undname.obj
 0001:0006fec0       ?getString@DName@@QBEPADPADH@Z 00470ec0 f i libvcruntimed:undname.obj
 0001:0006ff70       ?getString@DNameStatusNode@@UBEPADPAD0@Z 00470f70 f i libvcruntimed:undname.obj
 0001:0006ffb0       ?getString@charNode@@UBEPADPAD0@Z 00470fb0 f i libvcruntimed:undname.obj
 0001:0006fff0       ?getString@pDNameNode@@UBEPADPAD0@Z 00470ff0 f i libvcruntimed:undname.obj
 0001:00070040       ?getString@pairNode@@UBEPADPAD0@Z 00471040 f i libvcruntimed:undname.obj
 0001:000700f0       ?getString@pcharNode@@UBEPADPAD0@Z 004710f0 f i libvcruntimed:undname.obj
 0001:00070130       ?getStringEncoding@UnDecorator@@CA?AVDName@@W4PrefixKind@@H@Z 00471130 f   libvcruntimed:undname.obj
 0001:00070280       ?getStringHelper@@YAPADPADPBD1H@Z 00471280 f i libvcruntimed:undname.obj
 0001:000702d0       ?getStringObject@UnDecorator@@CA?AVDName@@XZ 004712d0 f   libvcruntimed:undname.obj
 0001:000703a0       ?getSymbolName@UnDecorator@@CA?AVDName@@XZ 004713a0 f i libvcruntimed:undname.obj
 0001:00070450       ?getTemplateArgumentList@UnDecorator@@CA?AVDName@@XZ 00471450 f   libvcruntimed:undname.obj
 0001:000707f0       ?getTemplateName@UnDecorator@@CA?AVDName@@_N@Z 004717f0 f   libvcruntimed:undname.obj
 0001:00070a20       ?getTemplateNonTypeArgument@UnDecorator@@CA?AVDName@@XZ 00471a20 f   libvcruntimed:undname.obj
 0001:000711a0       ?getTemplateTypeArgument@UnDecorator@@CA?AVDName@@XZ 004721a0 f   libvcruntimed:undname.obj
 0001:000713b0       ?getThisType@UnDecorator@@CA?AVDName@@XZ 004723b0 f i libvcruntimed:undname.obj
 0001:00071400       ?getThrowTypes@UnDecorator@@CA?AVDName@@XZ 00472400 f   libvcruntimed:undname.obj
 0001:00071450       ?getTypeEncoding@UnDecorator@@CAHXZ 00472450 f i libvcruntimed:undname.obj
 0001:000721c0       ?getUndecoratedName@UnDecorator@@QAEPADPADH@Z 004731c0 f i libvcruntimed:undname.obj
 0001:00072370       ?getUnionObject@UnDecorator@@CA?AVDName@@XZ 00473370 f   libvcruntimed:undname.obj
 0001:00072480       ?getVCallThunkType@UnDecorator@@CA?AVDName@@XZ 00473480 f i libvcruntimed:undname.obj
 0001:00072510       ?getValue@UnDecorator@@CA?AV?$optional@_K@std@@XZ 00473510 f   libvcruntimed:undname.obj
 0001:00072600       ?getValueObject@UnDecorator@@CA?AVDName@@XZ 00473600 f   libvcruntimed:undname.obj
 0001:00072850       ?getVbTableType@UnDecorator@@CA?AVDName@@ABV2@@Z 00473850 f i libvcruntimed:undname.obj
 0001:00072870       ?getVdispMapType@UnDecorator@@CA?AVDName@@ABV2@@Z 00473870 f i libvcruntimed:undname.obj
 0001:00072920       ?getVfTableType@UnDecorator@@CA?AVDName@@ABV2@@Z 00473920 f i libvcruntimed:undname.obj
 0001:00072ba0       ?getZName@UnDecorator@@CA?AVDName@@_N0@Z 00473ba0 f   libvcruntimed:undname.obj
 0001:00072fb0       ?haveTemplateParameters@UnDecorator@@SAHXZ 00473fb0 f i libvcruntimed:undname.obj
 0001:00072fd0       ?isArray@DName@@QBEHXZ     00473fd0 f i libvcruntimed:undname.obj
 0001:00072ff0       ?isComArray@DName@@QBEHXZ  00473ff0 f i libvcruntimed:undname.obj
 0001:00073010       ?isEmpty@DName@@QBEHXZ     00474010 f i libvcruntimed:undname.obj
 0001:00073050       ?isFull@Replicator@@QBEHXZ 00474050 f i libvcruntimed:undname.obj
 0001:00073090       ?isNoTE@DName@@QBEHXZ      00474090 f i libvcruntimed:undname.obj
 0001:000730b0       ?isPinPtr@DName@@QBEHXZ    004740b0 f i libvcruntimed:undname.obj
 0001:000730d0       ?isPtrRef@DName@@QBEHXZ    004740d0 f i libvcruntimed:undname.obj
 0001:000730f0       ?isUDC@DName@@QBEHXZ       004740f0 f i libvcruntimed:undname.obj
 0001:00073140       ?isUDTThunk@DName@@QBEHXZ  00474140 f i libvcruntimed:undname.obj
 0001:00073190       ?isVCallThunk@DName@@QBEHXZ 00474190 f i libvcruntimed:undname.obj
 0001:000731b0       ?isValid@DName@@QBEHXZ     004741b0 f i libvcruntimed:undname.obj
 0001:000731f0       ?length@DName@@QBEHXZ      004741f0 f i libvcruntimed:undname.obj
 0001:00073240       ?length@DNameStatusNode@@UBEHXZ 00474240 f i libvcruntimed:undname.obj
 0001:00073260       ?length@charNode@@UBEHXZ   00474260 f i libvcruntimed:undname.obj
 0001:00073280       ?length@pDNameNode@@UBEHXZ 00474280 f i libvcruntimed:undname.obj
 0001:000732c0       ?length@pairNode@@UBEHXZ   004742c0 f i libvcruntimed:undname.obj
 0001:00073350       ?length@pcharNode@@UBEHXZ  00474350 f i libvcruntimed:undname.obj
 0001:00073370       ?make@DNameStatusNode@@SAPBV1@W4DNameStatus@@@Z 00474370 f i libvcruntimed:undname.obj
 0001:000733b0       ?parseDecoratedName@UnDecorator@@CA?AVDName@@XZ 004743b0 f   libvcruntimed:undname.obj
 0001:000735a0       ?raw_length@DNameStatusNode@@UBEHXZ 004745a0 f i libvcruntimed:undname.obj
 0001:000735c0       ?raw_length@charNode@@UBEHXZ 004745c0 f i libvcruntimed:undname.obj
 0001:000735e0       ?raw_length@pDNameNode@@UBEHXZ 004745e0 f i libvcruntimed:undname.obj
 0001:00073600       ?raw_length@pairNode@@UBEHXZ 00474600 f i libvcruntimed:undname.obj
 0001:00073620       ?raw_length@pcharNode@@UBEHXZ 00474620 f i libvcruntimed:undname.obj
 0001:00073640       ?setIsArray@DName@@QAEXXZ  00474640 f i libvcruntimed:undname.obj
 0001:00073670       ?setIsComArray@DName@@QAEXXZ 00474670 f i libvcruntimed:undname.obj
 0001:000736a0       ?setIsNoTE@DName@@QAEXXZ   004746a0 f i libvcruntimed:undname.obj
 0001:000736d0       ?setIsPinPtr@DName@@QAEXXZ 004746d0 f i libvcruntimed:undname.obj
 0001:00073700       ?setIsUDC@DName@@QAEXXZ    00474700 f i libvcruntimed:undname.obj
 0001:00073740       ?setIsVCallThunk@DName@@QAEXXZ 00474740 f i libvcruntimed:undname.obj
 0001:00073770       ?setPtrRef@DName@@QAEAAV1@XZ 00474770 f i libvcruntimed:undname.obj
 0001:000737a0       ?status@DName@@QBE?AW4DNameStatus@@XZ 004747a0 f i libvcruntimed:undname.obj
 0001:000738c0       ___unDName                 004748c0 f   libvcruntimed:undname.obj
 0001:00073900       ___unDNameEx               00474900 f   libvcruntimed:undname.obj
 0001:00073a00       _unDNameGenerateCHPE       00474a00 f   libvcruntimed:undname.obj
 0001:00073a80       ??$__crt_interlocked_exchange_pointer@UHINSTANCE__@@PAU1@@@YAPAUHINSTANCE__@@PDSAU0@QAU0@@Z 00474a80 f i libvcruntimed:winapi_downlevel.obj
 0001:00073a90       ??$__crt_interlocked_exchange_pointer@UHINSTANCE__@@PAX@@YAPAUHINSTANCE__@@PDSAU0@QAX@Z 00474a90 f i libvcruntimed:winapi_downlevel.obj
 0001:00073aa0       ??$__crt_interlocked_exchange_pointer@XPAX@@YAPAXPDSAXQAX@Z 00474aa0 f i libvcruntimed:winapi_downlevel.obj
 0001:00073ab0       ??$__crt_interlocked_read_pointer@UHINSTANCE__@@@@YAPAUHINSTANCE__@@PDSAU0@@Z 00474ab0 f i libvcruntimed:winapi_downlevel.obj
 0001:00073ad0       ??$__crt_interlocked_read_pointer@X@@YAPAXPDSAX@Z 00474ad0 f i libvcruntimed:winapi_downlevel.obj
 0001:00073fa0       ___vcrt_FlsAlloc           00474fa0 f   libvcruntimed:winapi_downlevel.obj
 0001:00073ff0       ___vcrt_FlsFree            00474ff0 f   libvcruntimed:winapi_downlevel.obj
 0001:00074040       ___vcrt_FlsGetValue        00475040 f   libvcruntimed:winapi_downlevel.obj
 0001:00074090       ___vcrt_FlsSetValue        00475090 f   libvcruntimed:winapi_downlevel.obj
 0001:000740f0       ___vcrt_InitializeCriticalSectionEx 004750f0 f   libvcruntimed:winapi_downlevel.obj
 0001:00074180       __get_unexpected           00475180 f   libvcruntimed:unexpected.obj
 0001:000741a0       _set_unexpected            004751a0 f   libvcruntimed:unexpected.obj
 0001:000741e0       _unexpected                004751e0 f   libvcruntimed:unexpected.obj
 0001:00074220       ?GetCurrentState@__FrameHandler3@@SAHPAUEHRegistrationNode@@PAXPBU_s_FuncInfo@@@Z 00475220 f   libvcruntimed:ehstate.obj
 0001:00074260       ?SetState@__FrameHandler3@@SAXPAUEHRegistrationNode@@PBU_s_FuncInfo@@H@Z 00475260 f   libvcruntimed:ehstate.obj
 0001:00074280       __global_unwind2           00475280 f   libvcruntimed:exsup.obj
 0001:00074310       __local_unwind2            00475310 f   libvcruntimed:exsup.obj
 0001:000743d0       __abnormal_termination     004753d0 f   libvcruntimed:exsup.obj
 0001:00074410       __NLG_Notify1              00475410 f   libvcruntimed:exsup.obj
 0001:00074420       __NLG_Notify               00475420 f   libvcruntimed:exsup.obj
 0001:00074437       __NLG_Dispatch2            00475437     libvcruntimed:exsup.obj
 0001:00074437       __NLG_Dispatch             00475437     libvcruntimed:exsup.obj
 0001:00074450       __NLG_Call                 00475450 f   libvcruntimed:exsup.obj
 0001:00074452       __NLG_Return2              00475452     libvcruntimed:exsup.obj
 0001:00074460       ??$__crt_fast_decode_pointer@P6AXPB_W00II@Z@@YAP6AXPB_W00II@ZQ6AX000II@Z@Z 00475460 f i libucrtd:invalid_parameter.obj
 0001:000744a0       ??$__crt_fast_encode_pointer@P6AXPB_W00II@Z@@YAP6AXPB_W00II@ZQ6AX000II@Z@Z 004754a0 f i libucrtd:invalid_parameter.obj
 0001:000744e0       ??$initialize_from_array@$$BY00Q6AXPB_W00II@Z@?$dual_state_global@P6AXPB_W00II@Z@__crt_state_management@@QAAXAAY00Q6AXPB_W00II@Z@Z 004754e0 f i libucrtd:invalid_parameter.obj
 0001:00074540       ?__crt_rotate_pointer_value@@YAIIH@Z 00475540 f i libucrtd:invalid_parameter.obj
 0001:00074560       ?dangerous_get_state_array@?$dual_state_global@P6AXPB_W00II@Z@__crt_state_management@@QAEPAP6AXPB_W00II@ZXZ 00475560 f i libucrtd:invalid_parameter.obj
 0001:00074580       ?get_current_state_index@__crt_state_management@@YAIXZ 00475580 f i libucrtd:invalid_parameter.obj
 0001:00074590       ?value@?$dual_state_global@P6AXPB_W00II@Z@__crt_state_management@@QAEAAP6AXPB_W00II@ZXZ 00475590 f i libucrtd:invalid_parameter.obj
 0001:000745b0       ___acrt_call_reportfault   004755b0 f   libucrtd:invalid_parameter.obj
 0001:00074760       ___acrt_initialize_invalid_parameter_handler 00475760 f   libucrtd:invalid_parameter.obj
 0001:00074790       __get_invalid_parameter_handler 00475790 f   libucrtd:invalid_parameter.obj
 0001:000747c0       __get_thread_local_invalid_parameter_handler 004757c0 f   libucrtd:invalid_parameter.obj
 0001:000747f0       __invalid_parameter        004757f0 f   libucrtd:invalid_parameter.obj
 0001:000748e0       __invalid_parameter_noinfo 004758e0 f   libucrtd:invalid_parameter.obj
 0001:00074900       __invalid_parameter_noinfo_noreturn 00475900 f   libucrtd:invalid_parameter.obj
 0001:00074940       __invoke_watson            00475940 f   libucrtd:invalid_parameter.obj
 0001:00074990       __set_invalid_parameter_handler 00475990 f   libucrtd:invalid_parameter.obj
 0001:000749f0       __set_thread_local_invalid_parameter_handler 004759f0 f   libucrtd:invalid_parameter.obj
 0001:00074a30       ??0_LocaleUpdate@@QAE@QAU__crt_locale_pointers@@@Z 00475a30 f i libucrtd:debug_heap.obj
 0001:00074b40       ??1_LocaleUpdate@@QAE@XZ   00475b40 f i libucrtd:debug_heap.obj
 0001:00074b80       ?GetLocaleT@_LocaleUpdate@@QAEPAU__crt_locale_pointers@@XZ 00475b80 f i libucrtd:debug_heap.obj
 0001:000769e0       __CrtCheckMemory           004779e0 f   libucrtd:debug_heap.obj
 0001:00076bd0       __CrtDoForAllClientObjects 00477bd0 f   libucrtd:debug_heap.obj
 0001:00076d70       __CrtDumpMemoryLeaks       00477d70 f   libucrtd:debug_heap.obj
 0001:00076e30       __CrtGetAllocHook          00477e30 f   libucrtd:debug_heap.obj
 0001:00076e40       __CrtGetDumpClient         00477e40 f   libucrtd:debug_heap.obj
 0001:00076e50       __CrtIsMemoryBlock         00477e50 f   libucrtd:debug_heap.obj
 0001:00076ff0       __CrtIsValidHeapPointer    00477ff0 f   libucrtd:debug_heap.obj
 0001:00077030       __CrtIsValidPointer        00478030 f   libucrtd:debug_heap.obj
 0001:00077060       __CrtMemCheckpoint         00478060 f   libucrtd:debug_heap.obj
 0001:00077320       __CrtMemDifference         00478320 f   libucrtd:debug_heap.obj
 0001:00077630       __CrtMemDumpAllObjectsSince 00478630 f   libucrtd:debug_heap.obj
 0001:000776f0       __CrtMemDumpStatistics     004786f0 f   libucrtd:debug_heap.obj
 0001:00077860       __CrtReportBlockType       00478860 f   libucrtd:debug_heap.obj
 0001:000778a0       __CrtSetAllocHook          004788a0 f   libucrtd:debug_heap.obj
 0001:000778d0       __CrtSetBreakAlloc         004788d0 f   libucrtd:debug_heap.obj
 0001:00077900       __CrtSetDbgBlockType       00478900 f   libucrtd:debug_heap.obj
 0001:00077a10       __CrtSetDbgFlag            00478a10 f   libucrtd:debug_heap.obj
 0001:00077be0       __CrtSetDumpClient         00478be0 f   libucrtd:debug_heap.obj
 0001:00077c10       ___acrt_disable_global_locale_sync 00478c10 f i libucrtd:debug_heap.obj
 0001:00077c40       ___acrt_enable_global_locale_sync 00478c40 f i libucrtd:debug_heap.obj
 0001:00077c70       ___acrt_get_locale_data_prefix 00478c70 f i libucrtd:debug_heap.obj
 0001:00077c90       ___acrt_locale_changed     00478c90 f i libucrtd:debug_heap.obj
 0001:00077cc0       ___p__crtBreakAlloc        00478cc0 f   libucrtd:debug_heap.obj
 0001:00077cd0       ___p__crtDbgFlag           00478cd0 f   libucrtd:debug_heap.obj
 0001:00077ce0       __aligned_free_dbg         00478ce0 f   libucrtd:debug_heap.obj
 0001:00077dc0       __aligned_malloc_dbg       00478dc0 f   libucrtd:debug_heap.obj
 0001:00077df0       __aligned_msize_dbg        00478df0 f   libucrtd:debug_heap.obj
 0001:00077f60       __aligned_offset_malloc_dbg 00478f60 f   libucrtd:debug_heap.obj
 0001:000781b0       __aligned_offset_realloc_dbg 004791b0 f   libucrtd:debug_heap.obj
 0001:00078580       __aligned_offset_recalloc_dbg 00479580 f   libucrtd:debug_heap.obj
 0001:00078670       __aligned_realloc_dbg      00479670 f   libucrtd:debug_heap.obj
 0001:000786a0       __aligned_recalloc_dbg     004796a0 f   libucrtd:debug_heap.obj
 0001:000786e0       __calloc_dbg               004796e0 f   libucrtd:debug_heap.obj
 0001:00078770       __chvalidchk_l             00479770 f i libucrtd:debug_heap.obj
 0001:000787a0       __expand_dbg               004797a0 f   libucrtd:debug_heap.obj
 0001:00078920       __free_dbg                 00479920 f   libucrtd:debug_heap.obj
 0001:00078a00       __invoke_watson_if_oneof   00479a00 f i libucrtd:debug_heap.obj
 0001:00078a50       __ischartype_l             00479a50 f i libucrtd:debug_heap.obj
 0001:00078af0       __malloc_dbg               00479af0 f   libucrtd:debug_heap.obj
 0001:00078b20       __msize_dbg                00479b20 f   libucrtd:debug_heap.obj
 0001:00078d10       __realloc_dbg              00479d10 f   libucrtd:debug_heap.obj
 0001:00078de0       __recalloc_dbg             00479de0 f   libucrtd:debug_heap.obj
 0001:00078ec0       ??$?RU?$__crt_report_hook_node@D@@@__crt_internal_free_policy@@QBEXQBU?$__crt_report_hook_node@D@@@Z 00479ec0 f i libucrtd:dbgrpt.obj
 0001:00078ef0       ??$?RU?$__crt_report_hook_node@_W@@@__crt_internal_free_policy@@QBEXQBU?$__crt_report_hook_node@_W@@@Z 00479ef0 f i libucrtd:dbgrpt.obj
 0001:0007a040       ??$get_module_file_name@AAPAUHINSTANCE__@@AAY0BAF@DK@?$__crt_char_traits@D@@SAKAAPAUHINSTANCE__@@AAY0BAF@D$$QAK@Z 0047b040 f i libucrtd:dbgrpt.obj
 0001:0007a070       ??$get_module_file_name@AAPAUHINSTANCE__@@AAY0BAF@_WK@?$__crt_char_traits@_W@@SAKAAPAUHINSTANCE__@@AAY0BAF@_W$$QAK@Z 0047b070 f i libucrtd:dbgrpt.obj
 0001:0007a0a0       ??$tcscpy_s@AAY0BAF@DIPBD@?$__crt_char_traits@D@@SAHAAY0BAF@D$$QAI$$QAPBD@Z 0047b0a0 f i libucrtd:dbgrpt.obj
 0001:0007a0d0       ??$tcscpy_s@AAY0BAF@_WIPB_W@?$__crt_char_traits@_W@@SAHAAY0BAF@_W$$QAI$$QAPB_W@Z 0047b0d0 f i libucrtd:dbgrpt.obj
 0001:0007a100       ??$tcslen@AAY0BAF@D@?$__crt_char_traits@D@@SAIAAY0BAF@D@Z 0047b100 f i libucrtd:dbgrpt.obj
 0001:0007a120       ??$tcslen@AAY0BAF@_W@?$__crt_char_traits@_W@@SAIAAY0BAF@_W@Z 0047b120 f i libucrtd:dbgrpt.obj
 0001:0007a140       ??$tcslen@ABQBD@?$__crt_char_traits@D@@SAIABQBD@Z 0047b140 f i libucrtd:dbgrpt.obj
 0001:0007a160       ??$tcslen@ABQB_W@?$__crt_char_traits@_W@@SAIABQB_W@Z 0047b160 f i libucrtd:dbgrpt.obj
 0001:0007a2a0       ??0?$__crt_unique_heap_ptr@U?$__crt_report_hook_node@D@@U__crt_internal_free_policy@@@@QAE@QAU?$__crt_report_hook_node@D@@@Z 0047b2a0 f i libucrtd:dbgrpt.obj
 0001:0007a2c0       ??0?$__crt_unique_heap_ptr@U?$__crt_report_hook_node@_W@@U__crt_internal_free_policy@@@@QAE@QAU?$__crt_report_hook_node@_W@@@Z 0047b2c0 f i libucrtd:dbgrpt.obj
 0001:0007a2e0       ??1?$__crt_unique_heap_ptr@U?$__crt_report_hook_node@D@@U__crt_internal_free_policy@@@@QAE@XZ 0047b2e0 f i libucrtd:dbgrpt.obj
 0001:0007a300       ??1?$__crt_unique_heap_ptr@U?$__crt_report_hook_node@_W@@U__crt_internal_free_policy@@@@QAE@XZ 0047b300 f i libucrtd:dbgrpt.obj
 0001:0007a320       ??B?$__crt_unique_heap_ptr@U?$__crt_report_hook_node@D@@U__crt_internal_free_policy@@@@QBE_NXZ 0047b320 f i libucrtd:dbgrpt.obj
 0001:0007a340       ??B?$__crt_unique_heap_ptr@U?$__crt_report_hook_node@_W@@U__crt_internal_free_policy@@@@QBE_NXZ 0047b340 f i libucrtd:dbgrpt.obj
 0001:0007a9e0       ?detach@?$__crt_unique_heap_ptr@U?$__crt_report_hook_node@D@@U__crt_internal_free_policy@@@@QAEPAU?$__crt_report_hook_node@D@@XZ 0047b9e0 f i libucrtd:dbgrpt.obj
 0001:0007aa10       ?detach@?$__crt_unique_heap_ptr@U?$__crt_report_hook_node@_W@@U__crt_internal_free_policy@@@@QAEPAU?$__crt_report_hook_node@_W@@XZ 0047ba10 f i libucrtd:dbgrpt.obj
 0001:0007aa40       ?get@?$__crt_unique_heap_ptr@U?$__crt_report_hook_node@D@@U__crt_internal_free_policy@@@@QBEPAU?$__crt_report_hook_node@D@@XZ 0047ba40 f i libucrtd:dbgrpt.obj
 0001:0007aa60       ?get@?$__crt_unique_heap_ptr@U?$__crt_report_hook_node@_W@@U__crt_internal_free_policy@@@@QBEPAU?$__crt_report_hook_node@_W@@XZ 0047ba60 f i libucrtd:dbgrpt.obj
 0001:0007aae0       ?is_valid@?$__crt_unique_heap_ptr@U?$__crt_report_hook_node@D@@U__crt_internal_free_policy@@@@QBE_NXZ 0047bae0 f i libucrtd:dbgrpt.obj
 0001:0007ab20       ?is_valid@?$__crt_unique_heap_ptr@U?$__crt_report_hook_node@_W@@U__crt_internal_free_policy@@@@QBE_NXZ 0047bb20 f i libucrtd:dbgrpt.obj
 0001:0007ab60       ?release@?$__crt_unique_heap_ptr@U?$__crt_report_hook_node@D@@U__crt_internal_free_policy@@@@QAEXXZ 0047bb60 f i libucrtd:dbgrpt.obj
 0001:0007ab90       ?release@?$__crt_unique_heap_ptr@U?$__crt_report_hook_node@_W@@U__crt_internal_free_policy@@@@QAEXXZ 0047bb90 f i libucrtd:dbgrpt.obj
 0001:0007abc0       __CrtDbgReport             0047bbc0 f   libucrtd:dbgrpt.obj
 0001:0007ac20       __CrtDbgReportW            0047bc20 f   libucrtd:dbgrpt.obj
 0001:0007ac80       __CrtSetReportHook2        0047bc80 f   libucrtd:dbgrpt.obj
 0001:0007aca0       __CrtSetReportHookW2       0047bca0 f   libucrtd:dbgrpt.obj
 0001:0007acc0       ___acrt_MessageWindowA     0047bcc0 f   libucrtd:dbgrpt.obj
 0001:0007acf0       ___acrt_MessageWindowW     0047bcf0 f   libucrtd:dbgrpt.obj
 0001:0007ad20       __invoke_watson_if_error   0047bd20 f i libucrtd:dbgrpt.obj
 0001:0007ad60       __snwprintf_s              0047bd60 f i libucrtd:dbgrpt.obj
 0001:0007adb0       __vsnwprintf_s_l           0047bdb0 f i libucrtd:dbgrpt.obj
 0001:0007ae20       _free                      0047be20 f   libucrtd:free.obj
 0001:0007ae50       ??$?RPAU__crt_stdio_stream_data@@@__crt_internal_free_policy@@QBEXQBQAU__crt_stdio_stream_data@@@Z 0047be50 f i libucrtd:_file.obj
 0001:0007ae80       ??0?$__crt_unique_heap_ptr@PAU__crt_stdio_stream_data@@U__crt_internal_free_policy@@@@QAE@QAPAU__crt_stdio_stream_data@@@Z 0047be80 f i libucrtd:_file.obj
 0001:0007aea0       ??0__crt_stdio_stream@@QAE@QAU_iobuf@@@Z 0047bea0 f i libucrtd:_file.obj
 0001:0007aec0       ??1?$__crt_unique_heap_ptr@PAU__crt_stdio_stream_data@@U__crt_internal_free_policy@@@@QAE@XZ 0047bec0 f i libucrtd:_file.obj
 0001:0007aee0       ??C__crt_stdio_stream@@QBEPAU__crt_stdio_stream_data@@XZ 0047bee0 f i libucrtd:_file.obj
 0001:0007af00       ?detach@?$__crt_unique_heap_ptr@PAU__crt_stdio_stream_data@@U__crt_internal_free_policy@@@@QAEPAPAU__crt_stdio_stream_data@@XZ 0047bf00 f i libucrtd:_file.obj
 0001:0007af30       ?release@?$__crt_unique_heap_ptr@PAU__crt_stdio_stream_data@@U__crt_internal_free_policy@@@@QAEXXZ 0047bf30 f i libucrtd:_file.obj
 0001:0007af60       ___acrt_initialize_stdio   0047bf60 f   libucrtd:_file.obj
 0001:0007b130       ___acrt_iob_func           0047c130 f   libucrtd:_file.obj
 0001:0007b150       ___acrt_uninitialize_stdio 0047c150 f   libucrtd:_file.obj
 0001:0007b1f0       __get_stream_buffer_pointers 0047c1f0 f   libucrtd:_file.obj
 0001:0007b300       __lock_file                0047c300 f   libucrtd:_file.obj
 0001:0007b330       __unlock_file              0047c330 f   libucrtd:_file.obj
 0001:0007b360       ??$__crt_interlocked_read@J@@YAJPDJ@Z 0047c360 f i libucrtd:fclose.obj
 0001:0007b380       ?get_flags@__crt_stdio_stream@@QBEJXZ 0047c380 f i libucrtd:fclose.obj
 0001:0007b3b0       ?is_in_use@__crt_stdio_stream@@QBE_NXZ 0047c3b0 f i libucrtd:fclose.obj
 0001:0007b3f0       ?is_string_backed@__crt_stdio_stream@@QBE_NXZ 0047c3f0 f i libucrtd:fclose.obj
 0001:0007b430       ?public_stream@__crt_stdio_stream@@QBEPAU_iobuf@@XZ 0047c430 f i libucrtd:fclose.obj
 0001:0007b450       ?valid@__crt_stdio_stream@@QBE_NXZ 0047c450 f i libucrtd:fclose.obj
 0001:0007b490       __fclose_nolock            0047c490 f   libucrtd:fclose.obj
 0001:0007b620       _fclose                    0047c620 f   libucrtd:fclose.obj
 0001:0007bc40       ??0__crt_stdio_stream@@QAE@QAU__crt_stdio_stream_data@@@Z 0047cc40 f i libucrtd:fflush.obj
 0001:0007bf30       ?__acrt_stdio_reset_buffer@@YAXV__crt_stdio_stream@@@Z 0047cf30 f i libucrtd:fflush.obj
 0001:0007c060       ?has_all_of@__crt_stdio_stream@@QBE_NJ@Z 0047d060 f i libucrtd:fflush.obj
 0001:0007c150       ?set_flags@__crt_stdio_stream@@QBE_NJ@Z 0047d150 f i libucrtd:fflush.obj
 0001:0007c1b0       ?unset_flags@__crt_stdio_stream@@QBE_NJ@Z 0047d1b0 f i libucrtd:fflush.obj
 0001:0007c210       ___acrt_stdio_flush_nolock 0047d210 f   libucrtd:fflush.obj
 0001:0007c310       __fflush_nolock            0047d310 f   libucrtd:fflush.obj
 0001:0007c3b0       __flushall                 0047d3b0 f   libucrtd:fflush.obj
 0001:0007c3d0       _fflush                    0047d3d0 f   libucrtd:fflush.obj
 0001:0007c460       __fgetc_nolock             0047d460 f   libucrtd:fgetc.obj
 0001:0007c5b0       __fgetchar                 0047d5b0 f   libucrtd:fgetc.obj
 0001:0007c5d0       __getc_nolock              0047d5d0 f   libucrtd:fgetc.obj
 0001:0007c5f0       _fgetc                     0047d5f0 f   libucrtd:fgetc.obj
 0001:0007c8e0       _getc                      0047d8e0 f   libucrtd:fgetc.obj
 0001:0007c900       _getchar                   0047d900 f   libucrtd:fgetc.obj
 0001:0007c910       _fgetpos                   0047d910 f   libucrtd:fgetpos.obj
 0001:0007ca90       __fputc_nolock             0047da90 f   libucrtd:fputc.obj
 0001:0007cb40       __fputchar                 0047db40 f   libucrtd:fputc.obj
 0001:0007cb70       __putc_nolock              0047db70 f   libucrtd:fputc.obj
 0001:0007cb90       _fputc                     0047db90 f   libucrtd:fputc.obj
 0001:0007ce60       _putc                      0047de60 f   libucrtd:fputc.obj
 0001:0007ce80       _putchar                   0047de80 f   libucrtd:fputc.obj
 0001:0007cea0       ?has_any_buffer@__crt_stdio_stream@@QBE_NXZ 0047dea0 f i libucrtd:fread.obj
 0001:0007cec0       ?has_any_of@__crt_stdio_stream@@QBE_NJ@Z 0047dec0 f i libucrtd:fread.obj
 0001:0007cf00       __fread_nolock             0047df00 f   libucrtd:fread.obj
 0001:0007cf30       __fread_nolock_s           0047df30 f   libucrtd:fread.obj
 0001:0007d750       _fread                     0047e750 f   libucrtd:fread.obj
 0001:0007d780       _fread_s                   0047e780 f   libucrtd:fread.obj
 0001:0007da70       _fsetpos                   0047ea70 f   libucrtd:fsetpos.obj
 0001:0007dbd0       ?LongLongSub@@YAJ_J0PA_J@Z 0047ebd0 f i libucrtd:fseek.obj
 0001:0007e2d0       ?lowio_handle@__crt_stdio_stream@@QBEHXZ 0047f2d0 f i libucrtd:fseek.obj
 0001:0007e300       __fseek_nolock             0047f300 f   libucrtd:fseek.obj
 0001:0007e340       __fseeki64                 0047f340 f   libucrtd:fseek.obj
 0001:0007e380       __fseeki64_nolock          0047f380 f   libucrtd:fseek.obj
 0001:0007e3c0       _fseek                     0047f3c0 f   libucrtd:fseek.obj
 0001:0007e5a0       ??0__acrt_stdio_temporary_buffering_guard@@QAE@QAU_iobuf@@@Z 0047f5a0 f i libucrtd:fwrite.obj
 0001:0007e5e0       ??1__acrt_stdio_temporary_buffering_guard@@QAE@XZ 0047f5e0 f i libucrtd:fwrite.obj
 0001:0007e6e0       ?has_big_buffer@__crt_stdio_stream@@QBE_NXZ 0047f6e0 f i libucrtd:fwrite.obj
 0001:0007e700       __fwrite_nolock            0047f700 f   libucrtd:fwrite.obj
 0001:0007ed10       _fwrite                    0047fd10 f   libucrtd:fwrite.obj
 0001:0007f180       ?detach@?$__crt_unique_heap_ptr@DU__crt_internal_free_policy@@@@QAEPADXZ 00480180 f i libucrtd:setvbuf.obj
 0001:0007f210       _setvbuf                   00480210 f   libucrtd:setvbuf.obj
 0001:0007f460       __ungetc_nolock            00480460 f   libucrtd:ungetc.obj
 0001:0007f7a0       _ungetc                    004807a0 f   libucrtd:ungetc.obj
 0001:0007f8f0       ??$?0ABV?$stream_output_adapter@D@__crt_stdio_output@@AB_KABQBDABQAU__crt_locale_pointers@@ABQAD@?$format_validation_base@DV?$stream_output_adapter@D@__crt_stdio_output@@@__crt_stdio_output@@IAE@ABV?$stream_output_adapter@D@1@AB_KABQBDABQAU__crt_locale_pointers@@ABQAD@Z 004808f0 f i libucrtd:output.obj
 0001:0007f930       ??$?0ABV?$stream_output_adapter@D@__crt_stdio_output@@AB_KABQBDABQAU__crt_locale_pointers@@ABQAD@?$positional_parameter_base@DV?$stream_output_adapter@D@__crt_stdio_output@@@__crt_stdio_output@@IAE@ABV?$stream_output_adapter@D@1@AB_KABQBDABQAU__crt_locale_pointers@@ABQAD@Z 00480930 f i libucrtd:output.obj
 0001:0007f9c0       ??$?0ABV?$stream_output_adapter@D@__crt_stdio_output@@AB_KABQBDABQAU__crt_locale_pointers@@ABQAD@?$standard_base@DV?$stream_output_adapter@D@__crt_stdio_output@@@__crt_stdio_output@@IAE@ABV?$stream_output_adapter@D@1@AB_KABQBDABQAU__crt_locale_pointers@@ABQAD@Z 004809c0 f i libucrtd:output.obj
 0001:0007fa20       ??$?0ABV?$stream_output_adapter@_W@__crt_stdio_output@@AB_KABQB_WABQAU__crt_locale_pointers@@ABQAD@?$format_validation_base@_WV?$stream_output_adapter@_W@__crt_stdio_output@@@__crt_stdio_output@@IAE@ABV?$stream_output_adapter@_W@1@AB_KABQB_WABQAU__crt_locale_pointers@@ABQAD@Z 00480a20 f i libucrtd:output.obj
 0001:0007fa60       ??$?0ABV?$stream_output_adapter@_W@__crt_stdio_output@@AB_KABQB_WABQAU__crt_locale_pointers@@ABQAD@?$positional_parameter_base@_WV?$stream_output_adapter@_W@__crt_stdio_output@@@__crt_stdio_output@@IAE@ABV?$stream_output_adapter@_W@1@AB_KABQB_WABQAU__crt_locale_pointers@@ABQAD@Z 00480a60 f i libucrtd:output.obj
 0001:0007faf0       ??$?0ABV?$stream_output_adapter@_W@__crt_stdio_output@@AB_KABQB_WABQAU__crt_locale_pointers@@ABQAD@?$standard_base@_WV?$stream_output_adapter@_W@__crt_stdio_output@@@__crt_stdio_output@@IAE@ABV?$stream_output_adapter@_W@1@AB_KABQB_WABQAU__crt_locale_pointers@@ABQAD@Z 00480af0 f i libucrtd:output.obj
 0001:0007fb50       ??$?0ABV?$string_output_adapter@D@__crt_stdio_output@@AB_KABQBDABQAU__crt_locale_pointers@@ABQAD@?$format_validation_base@DV?$string_output_adapter@D@__crt_stdio_output@@@__crt_stdio_output@@IAE@ABV?$string_output_adapter@D@1@AB_KABQBDABQAU__crt_locale_pointers@@ABQAD@Z 00480b50 f i libucrtd:output.obj
 0001:0007fb90       ??$?0ABV?$string_output_adapter@D@__crt_stdio_output@@AB_KABQBDABQAU__crt_locale_pointers@@ABQAD@?$positional_parameter_base@DV?$string_output_adapter@D@__crt_stdio_output@@@__crt_stdio_output@@IAE@ABV?$string_output_adapter@D@1@AB_KABQBDABQAU__crt_locale_pointers@@ABQAD@Z 00480b90 f i libucrtd:output.obj
 0001:0007fc20       ??$?0ABV?$string_output_adapter@D@__crt_stdio_output@@AB_KABQBDABQAU__crt_locale_pointers@@ABQAD@?$standard_base@DV?$string_output_adapter@D@__crt_stdio_output@@@__crt_stdio_output@@IAE@ABV?$string_output_adapter@D@1@AB_KABQBDABQAU__crt_locale_pointers@@ABQAD@Z 00480c20 f i libucrtd:output.obj
 0001:0007fc80       ??$?0ABV?$string_output_adapter@_W@__crt_stdio_output@@AB_KABQB_WABQAU__crt_locale_pointers@@ABQAD@?$format_validation_base@_WV?$string_output_adapter@_W@__crt_stdio_output@@@__crt_stdio_output@@IAE@ABV?$string_output_adapter@_W@1@AB_KABQB_WABQAU__crt_locale_pointers@@ABQAD@Z 00480c80 f i libucrtd:output.obj
 0001:0007fcc0       ??$?0ABV?$string_output_adapter@_W@__crt_stdio_output@@AB_KABQB_WABQAU__crt_locale_pointers@@ABQAD@?$positional_parameter_base@_WV?$string_output_adapter@_W@__crt_stdio_output@@@__crt_stdio_output@@IAE@ABV?$string_output_adapter@_W@1@AB_KABQB_WABQAU__crt_locale_pointers@@ABQAD@Z 00480cc0 f i libucrtd:output.obj
 0001:0007fd50       ??$?0ABV?$string_output_adapter@_W@__crt_stdio_output@@AB_KABQB_WABQAU__crt_locale_pointers@@ABQAD@?$standard_base@_WV?$string_output_adapter@_W@__crt_stdio_output@@@__crt_stdio_output@@IAE@ABV?$string_output_adapter@_W@1@AB_KABQB_WABQAU__crt_locale_pointers@@ABQAD@Z 00480d50 f i libucrtd:output.obj
 0001:00083bd0       ??$count@D@formatting_buffer@__crt_stdio_output@@QBEIXZ 00484bd0 f i libucrtd:output.obj
 0001:00083c20       ??$count@_W@formatting_buffer@__crt_stdio_output@@QBEIXZ 00484c20 f i libucrtd:output.obj
 0001:00083c70       ??$data@D@formatting_buffer@__crt_stdio_output@@QAEPADXZ 00484c70 f i libucrtd:output.obj
 0001:00083cc0       ??$data@_W@formatting_buffer@__crt_stdio_output@@QAEPA_WXZ 00484cc0 f i libucrtd:output.obj
 0001:00083d10       ??$ensure_buffer_is_big_enough@D@formatting_buffer@__crt_stdio_output@@QAE_NI@Z 00484d10 f i libucrtd:output.obj
 0001:00083e30       ??$ensure_buffer_is_big_enough@_W@formatting_buffer@__crt_stdio_output@@QAE_NI@Z 00484e30 f i libucrtd:output.obj
 0001:00083f50       ??$extract_argument_from_va_list@C_J@?$positional_parameter_base@DV?$stream_output_adapter@D@__crt_stdio_output@@@__crt_stdio_output@@IAE_NAA_J@Z 00484f50 f i libucrtd:output.obj
 0001:000840d0       ??$extract_argument_from_va_list@C_J@?$positional_parameter_base@DV?$string_output_adapter@D@__crt_stdio_output@@@__crt_stdio_output@@IAE_NAA_J@Z 004850d0 f i libucrtd:output.obj
 0001:00084250       ??$extract_argument_from_va_list@C_J@?$positional_parameter_base@_WV?$stream_output_adapter@_W@__crt_stdio_output@@@__crt_stdio_output@@IAE_NAA_J@Z 00485250 f i libucrtd:output.obj
 0001:000843d0       ??$extract_argument_from_va_list@C_J@?$positional_parameter_base@_WV?$string_output_adapter@_W@__crt_stdio_output@@@__crt_stdio_output@@IAE_NAA_J@Z 004853d0 f i libucrtd:output.obj
 0001:00084550       ??$extract_argument_from_va_list@C_J@?$standard_base@DV?$stream_output_adapter@D@__crt_stdio_output@@@__crt_stdio_output@@IAE_NAA_J@Z 00485550 f i libucrtd:output.obj
 0001:00084590       ??$extract_argument_from_va_list@C_J@?$standard_base@DV?$string_output_adapter@D@__crt_stdio_output@@@__crt_stdio_output@@IAE_NAA_J@Z 00485590 f i libucrtd:output.obj
 0001:000845d0       ??$extract_argument_from_va_list@C_J@?$standard_base@_WV?$stream_output_adapter@_W@__crt_stdio_output@@@__crt_stdio_output@@IAE_NAA_J@Z 004855d0 f i libucrtd:output.obj
 0001:00084610       ??$extract_argument_from_va_list@C_J@?$standard_base@_WV?$string_output_adapter@_W@__crt_stdio_output@@@__crt_stdio_output@@IAE_NAA_J@Z 00485610 f i libucrtd:output.obj
 0001:00084650       ??$extract_argument_from_va_list@E_J@?$positional_parameter_base@DV?$stream_output_adapter@D@__crt_stdio_output@@@__crt_stdio_output@@IAE_NAA_J@Z 00485650 f i libucrtd:output.obj
 0001:000847d0       ??$extract_argument_from_va_list@E_J@?$positional_parameter_base@DV?$string_output_adapter@D@__crt_stdio_output@@@__crt_stdio_output@@IAE_NAA_J@Z 004857d0 f i libucrtd:output.obj
 0001:00084950       ??$extract_argument_from_va_list@E_J@?$positional_parameter_base@_WV?$stream_output_adapter@_W@__crt_stdio_output@@@__crt_stdio_output@@IAE_NAA_J@Z 00485950 f i libucrtd:output.obj
 0001:00084ad0       ??$extract_argument_from_va_list@E_J@?$positional_parameter_base@_WV?$string_output_adapter@_W@__crt_stdio_output@@@__crt_stdio_output@@IAE_NAA_J@Z 00485ad0 f i libucrtd:output.obj
 0001:00084c50       ??$extract_argument_from_va_list@E_J@?$standard_base@DV?$stream_output_adapter@D@__crt_stdio_output@@@__crt_stdio_output@@IAE_NAA_J@Z 00485c50 f i libucrtd:output.obj
 0001:00084c90       ??$extract_argument_from_va_list@E_J@?$standard_base@DV?$string_output_adapter@D@__crt_stdio_output@@@__crt_stdio_output@@IAE_NAA_J@Z 00485c90 f i libucrtd:output.obj
 0001:00084cd0       ??$extract_argument_from_va_list@E_J@?$standard_base@_WV?$stream_output_adapter@_W@__crt_stdio_output@@@__crt_stdio_output@@IAE_NAA_J@Z 00485cd0 f i libucrtd:output.obj
 0001:00084d10       ??$extract_argument_from_va_list@E_J@?$standard_base@_WV?$string_output_adapter@_W@__crt_stdio_output@@@__crt_stdio_output@@IAE_NAA_J@Z 00485d10 f i libucrtd:output.obj
 0001:00084d50       ??$extract_argument_from_va_list@F_J@?$positional_parameter_base@DV?$stream_output_adapter@D@__crt_stdio_output@@@__crt_stdio_output@@IAE_NAA_J@Z 00485d50 f i libucrtd:output.obj
 0001:00084ed0       ??$extract_argument_from_va_list@F_J@?$positional_parameter_base@DV?$string_output_adapter@D@__crt_stdio_output@@@__crt_stdio_output@@IAE_NAA_J@Z 00485ed0 f i libucrtd:output.obj
 0001:00085050       ??$extract_argument_from_va_list@F_J@?$positional_parameter_base@_WV?$stream_output_adapter@_W@__crt_stdio_output@@@__crt_stdio_output@@IAE_NAA_J@Z 00486050 f i libucrtd:output.obj
 0001:000851d0       ??$extract_argument_from_va_list@F_J@?$positional_parameter_base@_WV?$string_output_adapter@_W@__crt_stdio_output@@@__crt_stdio_output@@IAE_NAA_J@Z 004861d0 f i libucrtd:output.obj
 0001:00085350       ??$extract_argument_from_va_list@F_J@?$standard_base@DV?$stream_output_adapter@D@__crt_stdio_output@@@__crt_stdio_output@@IAE_NAA_J@Z 00486350 f i libucrtd:output.obj
 0001:00085390       ??$extract_argument_from_va_list@F_J@?$standard_base@DV?$string_output_adapter@D@__crt_stdio_output@@@__crt_stdio_output@@IAE_NAA_J@Z 00486390 f i libucrtd:output.obj
 0001:000853d0       ??$extract_argument_from_va_list@F_J@?$standard_base@_WV?$stream_output_adapter@_W@__crt_stdio_output@@@__crt_stdio_output@@IAE_NAA_J@Z 004863d0 f i libucrtd:output.obj
 0001:00085410       ??$extract_argument_from_va_list@F_J@?$standard_base@_WV?$string_output_adapter@_W@__crt_stdio_output@@@__crt_stdio_output@@IAE_NAA_J@Z 00486410 f i libucrtd:output.obj
 0001:00085450       ??$extract_argument_from_va_list@GD@?$positional_parameter_base@DV?$stream_output_adapter@D@__crt_stdio_output@@@__crt_stdio_output@@IAE_NAAD@Z 00486450 f i libucrtd:output.obj
 0001:000855d0       ??$extract_argument_from_va_list@GD@?$positional_parameter_base@DV?$string_output_adapter@D@__crt_stdio_output@@@__crt_stdio_output@@IAE_NAAD@Z 004865d0 f i libucrtd:output.obj
 0001:00085750       ??$extract_argument_from_va_list@GD@?$standard_base@DV?$stream_output_adapter@D@__crt_stdio_output@@@__crt_stdio_output@@IAE_NAAD@Z 00486750 f i libucrtd:output.obj
 0001:00085780       ??$extract_argument_from_va_list@GD@?$standard_base@DV?$string_output_adapter@D@__crt_stdio_output@@@__crt_stdio_output@@IAE_NAAD@Z 00486780 f i libucrtd:output.obj
 0001:000857b0       ??$extract_argument_from_va_list@G_J@?$positional_parameter_base@DV?$stream_output_adapter@D@__crt_stdio_output@@@__crt_stdio_output@@IAE_NAA_J@Z 004867b0 f i libucrtd:output.obj
 0001:00085930       ??$extract_argument_from_va_list@G_J@?$positional_parameter_base@DV?$string_output_adapter@D@__crt_stdio_output@@@__crt_stdio_output@@IAE_NAA_J@Z 00486930 f i libucrtd:output.obj
 0001:00085ab0       ??$extract_argument_from_va_list@G_J@?$positional_parameter_base@_WV?$stream_output_adapter@_W@__crt_stdio_output@@@__crt_stdio_output@@IAE_NAA_J@Z 00486ab0 f i libucrtd:output.obj
 0001:00085c30       ??$extract_argument_from_va_list@G_J@?$positional_parameter_base@_WV?$string_output_adapter@_W@__crt_stdio_output@@@__crt_stdio_output@@IAE_NAA_J@Z 00486c30 f i libucrtd:output.obj
 0001:00085db0       ??$extract_argument_from_va_list@G_J@?$standard_base@DV?$stream_output_adapter@D@__crt_stdio_output@@@__crt_stdio_output@@IAE_NAA_J@Z 00486db0 f i libucrtd:output.obj
 0001:00085df0       ??$extract_argument_from_va_list@G_J@?$standard_base@DV?$string_output_adapter@D@__crt_stdio_output@@@__crt_stdio_output@@IAE_NAA_J@Z 00486df0 f i libucrtd:output.obj
 0001:00085e30       ??$extract_argument_from_va_list@G_J@?$standard_base@_WV?$stream_output_adapter@_W@__crt_stdio_output@@@__crt_stdio_output@@IAE_NAA_J@Z 00486e30 f i libucrtd:output.obj
 0001:00085e70       ??$extract_argument_from_va_list@G_J@?$standard_base@_WV?$string_output_adapter@_W@__crt_stdio_output@@@__crt_stdio_output@@IAE_NAA_J@Z 00486e70 f i libucrtd:output.obj
 0001:00085eb0       ??$extract_argument_from_va_list@H_J@?$positional_parameter_base@DV?$stream_output_adapter@D@__crt_stdio_output@@@__crt_stdio_output@@IAE_NAA_J@Z 00486eb0 f i libucrtd:output.obj
 0001:00086030       ??$extract_argument_from_va_list@H_J@?$positional_parameter_base@DV?$string_output_adapter@D@__crt_stdio_output@@@__crt_stdio_output@@IAE_NAA_J@Z 00487030 f i libucrtd:output.obj
 0001:000861b0       ??$extract_argument_from_va_list@H_J@?$positional_parameter_base@_WV?$stream_output_adapter@_W@__crt_stdio_output@@@__crt_stdio_output@@IAE_NAA_J@Z 004871b0 f i libucrtd:output.obj
 0001:00086330       ??$extract_argument_from_va_list@H_J@?$positional_parameter_base@_WV?$string_output_adapter@_W@__crt_stdio_output@@@__crt_stdio_output@@IAE_NAA_J@Z 00487330 f i libucrtd:output.obj
 0001:000864b0       ??$extract_argument_from_va_list@H_J@?$standard_base@DV?$stream_output_adapter@D@__crt_stdio_output@@@__crt_stdio_output@@IAE_NAA_J@Z 004874b0 f i libucrtd:output.obj
 0001:000864f0       ??$extract_argument_from_va_list@H_J@?$standard_base@DV?$string_output_adapter@D@__crt_stdio_output@@@__crt_stdio_output@@IAE_NAA_J@Z 004874f0 f i libucrtd:output.obj
 0001:00086530       ??$extract_argument_from_va_list@H_J@?$standard_base@_WV?$stream_output_adapter@_W@__crt_stdio_output@@@__crt_stdio_output@@IAE_NAA_J@Z 00487530 f i libucrtd:output.obj
 0001:00086570       ??$extract_argument_from_va_list@H_J@?$standard_base@_WV?$string_output_adapter@_W@__crt_stdio_output@@@__crt_stdio_output@@IAE_NAA_J@Z 00487570 f i libucrtd:output.obj
 0001:000865b0       ??$extract_argument_from_va_list@I_J@?$positional_parameter_base@DV?$stream_output_adapter@D@__crt_stdio_output@@@__crt_stdio_output@@IAE_NAA_J@Z 004875b0 f i libucrtd:output.obj
 0001:00086730       ??$extract_argument_from_va_list@I_J@?$positional_parameter_base@DV?$string_output_adapter@D@__crt_stdio_output@@@__crt_stdio_output@@IAE_NAA_J@Z 00487730 f i libucrtd:output.obj
 0001:000868b0       ??$extract_argument_from_va_list@I_J@?$positional_parameter_base@_WV?$stream_output_adapter@_W@__crt_stdio_output@@@__crt_stdio_output@@IAE_NAA_J@Z 004878b0 f i libucrtd:output.obj
 0001:00086a30       ??$extract_argument_from_va_list@I_J@?$positional_parameter_base@_WV?$string_output_adapter@_W@__crt_stdio_output@@@__crt_stdio_output@@IAE_NAA_J@Z 00487a30 f i libucrtd:output.obj
 0001:00086bb0       ??$extract_argument_from_va_list@I_J@?$standard_base@DV?$stream_output_adapter@D@__crt_stdio_output@@@__crt_stdio_output@@IAE_NAA_J@Z 00487bb0 f i libucrtd:output.obj
 0001:00086bf0       ??$extract_argument_from_va_list@I_J@?$standard_base@DV?$string_output_adapter@D@__crt_stdio_output@@@__crt_stdio_output@@IAE_NAA_J@Z 00487bf0 f i libucrtd:output.obj
 0001:00086c30       ??$extract_argument_from_va_list@I_J@?$standard_base@_WV?$stream_output_adapter@_W@__crt_stdio_output@@@__crt_stdio_output@@IAE_NAA_J@Z 00487c30 f i libucrtd:output.obj
 0001:00086c70       ??$extract_argument_from_va_list@I_J@?$standard_base@_WV?$string_output_adapter@_W@__crt_stdio_output@@@__crt_stdio_output@@IAE_NAA_J@Z 00487c70 f i libucrtd:output.obj
 0001:00086cb0       ??$extract_argument_from_va_list@PADPAD@?$positional_parameter_base@DV?$stream_output_adapter@D@__crt_stdio_output@@@__crt_stdio_output@@IAE_NAAPAD@Z 00487cb0 f i libucrtd:output.obj
 0001:00086e30       ??$extract_argument_from_va_list@PADPAD@?$positional_parameter_base@DV?$string_output_adapter@D@__crt_stdio_output@@@__crt_stdio_output@@IAE_NAAPAD@Z 00487e30 f i libucrtd:output.obj
 0001:00086fb0       ??$extract_argument_from_va_list@PADPAD@?$positional_parameter_base@_WV?$stream_output_adapter@_W@__crt_stdio_output@@@__crt_stdio_output@@IAE_NAAPAD@Z 00487fb0 f i libucrtd:output.obj
 0001:00087130       ??$extract_argument_from_va_list@PADPAD@?$positional_parameter_base@_WV?$string_output_adapter@_W@__crt_stdio_output@@@__crt_stdio_output@@IAE_NAAPAD@Z 00488130 f i libucrtd:output.obj
 0001:000872b0       ??$extract_argument_from_va_list@PADPAD@?$standard_base@DV?$stream_output_adapter@D@__crt_stdio_output@@@__crt_stdio_output@@IAE_NAAPAD@Z 004882b0 f i libucrtd:output.obj
 0001:000872e0       ??$extract_argument_from_va_list@PADPAD@?$standard_base@DV?$string_output_adapter@D@__crt_stdio_output@@@__crt_stdio_output@@IAE_NAAPAD@Z 004882e0 f i libucrtd:output.obj
 0001:00087310       ??$extract_argument_from_va_list@PADPAD@?$standard_base@_WV?$stream_output_adapter@_W@__crt_stdio_output@@@__crt_stdio_output@@IAE_NAAPAD@Z 00488310 f i libucrtd:output.obj
 0001:00087340       ??$extract_argument_from_va_list@PADPAD@?$standard_base@_WV?$string_output_adapter@_W@__crt_stdio_output@@@__crt_stdio_output@@IAE_NAAPAD@Z 00488340 f i libucrtd:output.obj
 0001:00087370       ??$extract_argument_from_va_list@PAUansi_string@?1??type_case_Z@?$output_processor@DV?$stream_output_adapter@D@__crt_stdio_output@@V?$format_validation_base@DV?$stream_output_adapter@D@__crt_stdio_output@@@2@@__crt_stdio_output@@AAE_NXZ@PAU1?1??234@AAE_NXZ@@?$standard_base@DV?$stream_output_adapter@D@__crt_stdio_output@@@__crt_stdio_output@@IAE_NAAPAUansi_string@?1??type_case_Z@?$output_processor@DV?$stream_output_adapter@D@__crt_stdio_output@@V?$format_validation_base@DV?$stream_output_adapter@D@__crt_stdio_output@@@2@@1@AAE_NXZ@@Z 00488370 f i libucrtd:output.obj
 0001:000873a0       ??$extract_argument_from_va_list@PAUansi_string@?1??type_case_Z@?$output_processor@DV?$stream_output_adapter@D@__crt_stdio_output@@V?$positional_parameter_base@DV?$stream_output_adapter@D@__crt_stdio_output@@@2@@__crt_stdio_output@@AAE_NXZ@PAU1?1??234@AAE_NXZ@@?$positional_parameter_base@DV?$stream_output_adapter@D@__crt_stdio_output@@@__crt_stdio_output@@IAE_NAAPAUansi_string@?1??type_case_Z@?$output_processor@DV?$stream_output_adapter@D@__crt_stdio_output@@V?$positional_parameter_base@DV?$stream_output_adapter@D@__crt_stdio_output@@@2@@1@AAE_NXZ@@Z 004883a0 f i libucrtd:output.obj
 0001:00087520       ??$extract_argument_from_va_list@PAUansi_string@?1??type_case_Z@?$output_processor@DV?$stream_output_adapter@D@__crt_stdio_output@@V?$positional_parameter_base@DV?$stream_output_adapter@D@__crt_stdio_output@@@2@@__crt_stdio_output@@AAE_NXZ@PAU1?1??234@AAE_NXZ@@?$standard_base@DV?$stream_output_adapter@D@__crt_stdio_output@@@__crt_stdio_output@@IAE_NAAPAUansi_string@?1??type_case_Z@?$output_processor@DV?$stream_output_adapter@D@__crt_stdio_output@@V?$positional_parameter_base@DV?$stream_output_adapter@D@__crt_stdio_output@@@2@@1@AAE_NXZ@@Z 00488520 f i libucrtd:output.obj
 0001:00087550       ??$extract_argument_from_va_list@PAUansi_string@?1??type_case_Z@?$output_processor@DV?$stream_output_adapter@D@__crt_stdio_output@@V?$standard_base@DV?$stream_output_adapter@D@__crt_stdio_output@@@2@@__crt_stdio_output@@AAE_NXZ@PAU1?1??234@AAE_NXZ@@?$standard_base@DV?$stream_output_adapter@D@__crt_stdio_output@@@__crt_stdio_output@@IAE_NAAPAUansi_string@?1??type_case_Z@?$output_processor@DV?$stream_output_adapter@D@__crt_stdio_output@@V?$standard_base@DV?$stream_output_adapter@D@__crt_stdio_output@@@2@@1@AAE_NXZ@@Z 00488550 f i libucrtd:output.obj
 0001:00087580       ??$extract_argument_from_va_list@PAUansi_string@?1??type_case_Z@?$output_processor@DV?$string_output_adapter@D@__crt_stdio_output@@V?$format_validation_base@DV?$string_output_adapter@D@__crt_stdio_output@@@2@@__crt_stdio_output@@AAE_NXZ@PAU1?1??234@AAE_NXZ@@?$standard_base@DV?$string_output_adapter@D@__crt_stdio_output@@@__crt_stdio_output@@IAE_NAAPAUansi_string@?1??type_case_Z@?$output_processor@DV?$string_output_adapter@D@__crt_stdio_output@@V?$format_validation_base@DV?$string_output_adapter@D@__crt_stdio_output@@@2@@1@AAE_NXZ@@Z 00488580 f i libucrtd:output.obj
 0001:000875b0       ??$extract_argument_from_va_list@PAUansi_string@?1??type_case_Z@?$output_processor@DV?$string_output_adapter@D@__crt_stdio_output@@V?$positional_parameter_base@DV?$string_output_adapter@D@__crt_stdio_output@@@2@@__crt_stdio_output@@AAE_NXZ@PAU1?1??234@AAE_NXZ@@?$positional_parameter_base@DV?$string_output_adapter@D@__crt_stdio_output@@@__crt_stdio_output@@IAE_NAAPAUansi_string@?1??type_case_Z@?$output_processor@DV?$string_output_adapter@D@__crt_stdio_output@@V?$positional_parameter_base@DV?$string_output_adapter@D@__crt_stdio_output@@@2@@1@AAE_NXZ@@Z 004885b0 f i libucrtd:output.obj
 0001:00087730       ??$extract_argument_from_va_list@PAUansi_string@?1??type_case_Z@?$output_processor@DV?$string_output_adapter@D@__crt_stdio_output@@V?$positional_parameter_base@DV?$string_output_adapter@D@__crt_stdio_output@@@2@@__crt_stdio_output@@AAE_NXZ@PAU1?1??234@AAE_NXZ@@?$standard_base@DV?$string_output_adapter@D@__crt_stdio_output@@@__crt_stdio_output@@IAE_NAAPAUansi_string@?1??type_case_Z@?$output_processor@DV?$string_output_adapter@D@__crt_stdio_output@@V?$positional_parameter_base@DV?$string_output_adapter@D@__crt_stdio_output@@@2@@1@AAE_NXZ@@Z 00488730 f i libucrtd:output.obj
 0001:00087760       ??$extract_argument_from_va_list@PAUansi_string@?1??type_case_Z@?$output_processor@DV?$string_output_adapter@D@__crt_stdio_output@@V?$standard_base@DV?$string_output_adapter@D@__crt_stdio_output@@@2@@__crt_stdio_output@@AAE_NXZ@PAU1?1??234@AAE_NXZ@@?$standard_base@DV?$string_output_adapter@D@__crt_stdio_output@@@__crt_stdio_output@@IAE_NAAPAUansi_string@?1??type_case_Z@?$output_processor@DV?$string_output_adapter@D@__crt_stdio_output@@V?$standard_base@DV?$string_output_adapter@D@__crt_stdio_output@@@2@@1@AAE_NXZ@@Z 00488760 f i libucrtd:output.obj
 0001:00087790       ??$extract_argument_from_va_list@PAUansi_string@?1??type_case_Z@?$output_processor@_WV?$stream_output_adapter@_W@__crt_stdio_output@@V?$format_validation_base@_WV?$stream_output_adapter@_W@__crt_stdio_output@@@2@@__crt_stdio_output@@AAE_NXZ@PAU1?1??234@AAE_NXZ@@?$standard_base@_WV?$stream_output_adapter@_W@__crt_stdio_output@@@__crt_stdio_output@@IAE_NAAPAUansi_string@?1??type_case_Z@?$output_processor@_WV?$stream_output_adapter@_W@__crt_stdio_output@@V?$format_validation_base@_WV?$stream_output_adapter@_W@__crt_stdio_output@@@2@@1@AAE_NXZ@@Z 00488790 f i libucrtd:output.obj
 0001:000877c0       ??$extract_argument_from_va_list@PAUansi_string@?1??type_case_Z@?$output_processor@_WV?$stream_output_adapter@_W@__crt_stdio_output@@V?$positional_parameter_base@_WV?$stream_output_adapter@_W@__crt_stdio_output@@@2@@__crt_stdio_output@@AAE_NXZ@PAU1?1??234@AAE_NXZ@@?$positional_parameter_base@_WV?$stream_output_adapter@_W@__crt_stdio_output@@@__crt_stdio_output@@IAE_NAAPAUansi_string@?1??type_case_Z@?$output_processor@_WV?$stream_output_adapter@_W@__crt_stdio_output@@V?$positional_parameter_base@_WV?$stream_output_adapter@_W@__crt_stdio_output@@@2@@1@AAE_NXZ@@Z 004887c0 f i libucrtd:output.obj
 0001:00087940       ??$extract_argument_from_va_list@PAUansi_string@?1??type_case_Z@?$output_processor@_WV?$stream_output_adapter@_W@__crt_stdio_output@@V?$positional_parameter_base@_WV?$stream_output_adapter@_W@__crt_stdio_output@@@2@@__crt_stdio_output@@AAE_NXZ@PAU1?1??234@AAE_NXZ@@?$standard_base@_WV?$stream_output_adapter@_W@__crt_stdio_output@@@__crt_stdio_output@@IAE_NAAPAUansi_string@?1??type_case_Z@?$output_processor@_WV?$stream_output_adapter@_W@__crt_stdio_output@@V?$positional_parameter_base@_WV?$stream_output_adapter@_W@__crt_stdio_output@@@2@@1@AAE_NXZ@@Z 00488940 f i libucrtd:output.obj
 0001:00087970       ??$extract_argument_from_va_list@PAUansi_string@?1??type_case_Z@?$output_processor@_WV?$stream_output_adapter@_W@__crt_stdio_output@@V?$standard_base@_WV?$stream_output_adapter@_W@__crt_stdio_output@@@2@@__crt_stdio_output@@AAE_NXZ@PAU1?1??234@AAE_NXZ@@?$standard_base@_WV?$stream_output_adapter@_W@__crt_stdio_output@@@__crt_stdio_output@@IAE_NAAPAUansi_string@?1??type_case_Z@?$output_processor@_WV?$stream_output_adapter@_W@__crt_stdio_output@@V?$standard_base@_WV?$stream_output_adapter@_W@__crt_stdio_output@@@2@@1@AAE_NXZ@@Z 00488970 f i libucrtd:output.obj
 0001:000879a0       ??$extract_argument_from_va_list@PAUansi_string@?1??type_case_Z@?$output_processor@_WV?$string_output_adapter@_W@__crt_stdio_output@@V?$format_validation_base@_WV?$string_output_adapter@_W@__crt_stdio_output@@@2@@__crt_stdio_output@@AAE_NXZ@PAU1?1??234@AAE_NXZ@@?$standard_base@_WV?$string_output_adapter@_W@__crt_stdio_output@@@__crt_stdio_output@@IAE_NAAPAUansi_string@?1??type_case_Z@?$output_processor@_WV?$string_output_adapter@_W@__crt_stdio_output@@V?$format_validation_base@_WV?$string_output_adapter@_W@__crt_stdio_output@@@2@@1@AAE_NXZ@@Z 004889a0 f i libucrtd:output.obj
 0001:000879d0       ??$extract_argument_from_va_list@PAUansi_string@?1??type_case_Z@?$output_processor@_WV?$string_output_adapter@_W@__crt_stdio_output@@V?$positional_parameter_base@_WV?$string_output_adapter@_W@__crt_stdio_output@@@2@@__crt_stdio_output@@AAE_NXZ@PAU1?1??234@AAE_NXZ@@?$positional_parameter_base@_WV?$string_output_adapter@_W@__crt_stdio_output@@@__crt_stdio_output@@IAE_NAAPAUansi_string@?1??type_case_Z@?$output_processor@_WV?$string_output_adapter@_W@__crt_stdio_output@@V?$positional_parameter_base@_WV?$string_output_adapter@_W@__crt_stdio_output@@@2@@1@AAE_NXZ@@Z 004889d0 f i libucrtd:output.obj
 0001:00087b50       ??$extract_argument_from_va_list@PAUansi_string@?1??type_case_Z@?$output_processor@_WV?$string_output_adapter@_W@__crt_stdio_output@@V?$positional_parameter_base@_WV?$string_output_adapter@_W@__crt_stdio_output@@@2@@__crt_stdio_output@@AAE_NXZ@PAU1?1??234@AAE_NXZ@@?$standard_base@_WV?$string_output_adapter@_W@__crt_stdio_output@@@__crt_stdio_output@@IAE_NAAPAUansi_string@?1??type_case_Z@?$output_processor@_WV?$string_output_adapter@_W@__crt_stdio_output@@V?$positional_parameter_base@_WV?$string_output_adapter@_W@__crt_stdio_output@@@2@@1@AAE_NXZ@@Z 00488b50 f i libucrtd:output.obj
 0001:00087b80       ??$extract_argument_from_va_list@PAUansi_string@?1??type_case_Z@?$output_processor@_WV?$string_output_adapter@_W@__crt_stdio_output@@V?$standard_base@_WV?$string_output_adapter@_W@__crt_stdio_output@@@2@@__crt_stdio_output@@AAE_NXZ@PAU1?1??234@AAE_NXZ@@?$standard_base@_WV?$string_output_adapter@_W@__crt_stdio_output@@@__crt_stdio_output@@IAE_NAAPAUansi_string@?1??type_case_Z@?$output_processor@_WV?$string_output_adapter@_W@__crt_stdio_output@@V?$standard_base@_WV?$string_output_adapter@_W@__crt_stdio_output@@@2@@1@AAE_NXZ@@Z 00488b80 f i libucrtd:output.obj
 0001:00087bb0       ??$extract_argument_from_va_list@PAXPAX@?$positional_parameter_base@DV?$stream_output_adapter@D@__crt_stdio_output@@@__crt_stdio_output@@IAE_NAAPAX@Z 00488bb0 f i libucrtd:output.obj
 0001:00087d30       ??$extract_argument_from_va_list@PAXPAX@?$positional_parameter_base@DV?$string_output_adapter@D@__crt_stdio_output@@@__crt_stdio_output@@IAE_NAAPAX@Z 00488d30 f i libucrtd:output.obj
 0001:00087eb0       ??$extract_argument_from_va_list@PAXPAX@?$positional_parameter_base@_WV?$stream_output_adapter@_W@__crt_stdio_output@@@__crt_stdio_output@@IAE_NAAPAX@Z 00488eb0 f i libucrtd:output.obj
 0001:00088030       ??$extract_argument_from_va_list@PAXPAX@?$positional_parameter_base@_WV?$string_output_adapter@_W@__crt_stdio_output@@@__crt_stdio_output@@IAE_NAAPAX@Z 00489030 f i libucrtd:output.obj
 0001:000881b0       ??$extract_argument_from_va_list@PAXPAX@?$standard_base@DV?$stream_output_adapter@D@__crt_stdio_output@@@__crt_stdio_output@@IAE_NAAPAX@Z 004891b0 f i libucrtd:output.obj
 0001:000881e0       ??$extract_argument_from_va_list@PAXPAX@?$standard_base@DV?$string_output_adapter@D@__crt_stdio_output@@@__crt_stdio_output@@IAE_NAAPAX@Z 004891e0 f i libucrtd:output.obj
 0001:00088210       ??$extract_argument_from_va_list@PAXPAX@?$standard_base@_WV?$stream_output_adapter@_W@__crt_stdio_output@@@__crt_stdio_output@@IAE_NAAPAX@Z 00489210 f i libucrtd:output.obj
 0001:00088240       ??$extract_argument_from_va_list@PAXPAX@?$standard_base@_WV?$string_output_adapter@_W@__crt_stdio_output@@@__crt_stdio_output@@IAE_NAAPAX@Z 00489240 f i libucrtd:output.obj
 0001:00088270       ??$extract_argument_from_va_list@U_CRT_DOUBLE@@U1@@?$positional_parameter_base@DV?$stream_output_adapter@D@__crt_stdio_output@@@__crt_stdio_output@@IAE_NAAU_CRT_DOUBLE@@@Z 00489270 f i libucrtd:output.obj
 0001:00088420       ??$extract_argument_from_va_list@U_CRT_DOUBLE@@U1@@?$positional_parameter_base@DV?$string_output_adapter@D@__crt_stdio_output@@@__crt_stdio_output@@IAE_NAAU_CRT_DOUBLE@@@Z 00489420 f i libucrtd:output.obj
 0001:000885d0       ??$extract_argument_from_va_list@U_CRT_DOUBLE@@U1@@?$positional_parameter_base@_WV?$stream_output_adapter@_W@__crt_stdio_output@@@__crt_stdio_output@@IAE_NAAU_CRT_DOUBLE@@@Z 004895d0 f i libucrtd:output.obj
 0001:00088780       ??$extract_argument_from_va_list@U_CRT_DOUBLE@@U1@@?$positional_parameter_base@_WV?$string_output_adapter@_W@__crt_stdio_output@@@__crt_stdio_output@@IAE_NAAU_CRT_DOUBLE@@@Z 00489780 f i libucrtd:output.obj
 0001:00088930       ??$extract_argument_from_va_list@U_CRT_DOUBLE@@U1@@?$standard_base@DV?$stream_output_adapter@D@__crt_stdio_output@@@__crt_stdio_output@@IAE_NAAU_CRT_DOUBLE@@@Z 00489930 f i libucrtd:output.obj
 0001:00088990       ??$extract_argument_from_va_list@U_CRT_DOUBLE@@U1@@?$standard_base@DV?$string_output_adapter@D@__crt_stdio_output@@@__crt_stdio_output@@IAE_NAAU_CRT_DOUBLE@@@Z 00489990 f i libucrtd:output.obj
 0001:000889f0       ??$extract_argument_from_va_list@U_CRT_DOUBLE@@U1@@?$standard_base@_WV?$stream_output_adapter@_W@__crt_stdio_output@@@__crt_stdio_output@@IAE_NAAU_CRT_DOUBLE@@@Z 004899f0 f i libucrtd:output.obj
 0001:00088a50       ??$extract_argument_from_va_list@U_CRT_DOUBLE@@U1@@?$standard_base@_WV?$string_output_adapter@_W@__crt_stdio_output@@@__crt_stdio_output@@IAE_NAAU_CRT_DOUBLE@@@Z 00489a50 f i libucrtd:output.obj
 0001:00088ab0       ??$extract_argument_from_va_list@_J_J@?$positional_parameter_base@DV?$stream_output_adapter@D@__crt_stdio_output@@@__crt_stdio_output@@IAE_NAA_J@Z 00489ab0 f i libucrtd:output.obj
 0001:00088c30       ??$extract_argument_from_va_list@_J_J@?$positional_parameter_base@DV?$string_output_adapter@D@__crt_stdio_output@@@__crt_stdio_output@@IAE_NAA_J@Z 00489c30 f i libucrtd:output.obj
 0001:00088db0       ??$extract_argument_from_va_list@_J_J@?$positional_parameter_base@_WV?$stream_output_adapter@_W@__crt_stdio_output@@@__crt_stdio_output@@IAE_NAA_J@Z 00489db0 f i libucrtd:output.obj
 0001:00088f30       ??$extract_argument_from_va_list@_J_J@?$positional_parameter_base@_WV?$string_output_adapter@_W@__crt_stdio_output@@@__crt_stdio_output@@IAE_NAA_J@Z 00489f30 f i libucrtd:output.obj
 0001:000890b0       ??$extract_argument_from_va_list@_J_J@?$standard_base@DV?$stream_output_adapter@D@__crt_stdio_output@@@__crt_stdio_output@@IAE_NAA_J@Z 0048a0b0 f i libucrtd:output.obj
 0001:000890f0       ??$extract_argument_from_va_list@_J_J@?$standard_base@DV?$string_output_adapter@D@__crt_stdio_output@@@__crt_stdio_output@@IAE_NAA_J@Z 0048a0f0 f i libucrtd:output.obj
 0001:00089130       ??$extract_argument_from_va_list@_J_J@?$standard_base@_WV?$stream_output_adapter@_W@__crt_stdio_output@@@__crt_stdio_output@@IAE_NAA_J@Z 0048a130 f i libucrtd:output.obj
 0001:00089170       ??$extract_argument_from_va_list@_J_J@?$standard_base@_WV?$string_output_adapter@_W@__crt_stdio_output@@@__crt_stdio_output@@IAE_NAA_J@Z 0048a170 f i libucrtd:output.obj
 0001:000891b0       ??$extract_argument_from_va_list@_K_J@?$positional_parameter_base@DV?$stream_output_adapter@D@__crt_stdio_output@@@__crt_stdio_output@@IAE_NAA_J@Z 0048a1b0 f i libucrtd:output.obj
 0001:00089330       ??$extract_argument_from_va_list@_K_J@?$positional_parameter_base@DV?$string_output_adapter@D@__crt_stdio_output@@@__crt_stdio_output@@IAE_NAA_J@Z 0048a330 f i libucrtd:output.obj
 0001:000894b0       ??$extract_argument_from_va_list@_K_J@?$positional_parameter_base@_WV?$stream_output_adapter@_W@__crt_stdio_output@@@__crt_stdio_output@@IAE_NAA_J@Z 0048a4b0 f i libucrtd:output.obj
 0001:00089630       ??$extract_argument_from_va_list@_K_J@?$positional_parameter_base@_WV?$string_output_adapter@_W@__crt_stdio_output@@@__crt_stdio_output@@IAE_NAA_J@Z 0048a630 f i libucrtd:output.obj
 0001:000897b0       ??$extract_argument_from_va_list@_K_J@?$standard_base@DV?$stream_output_adapter@D@__crt_stdio_output@@@__crt_stdio_output@@IAE_NAA_J@Z 0048a7b0 f i libucrtd:output.obj
 0001:000897f0       ??$extract_argument_from_va_list@_K_J@?$standard_base@DV?$string_output_adapter@D@__crt_stdio_output@@@__crt_stdio_output@@IAE_NAA_J@Z 0048a7f0 f i libucrtd:output.obj
 0001:00089830       ??$extract_argument_from_va_list@_K_J@?$standard_base@_WV?$stream_output_adapter@_W@__crt_stdio_output@@@__crt_stdio_output@@IAE_NAA_J@Z 0048a830 f i libucrtd:output.obj
 0001:00089870       ??$extract_argument_from_va_list@_K_J@?$standard_base@_WV?$string_output_adapter@_W@__crt_stdio_output@@@__crt_stdio_output@@IAE_NAA_J@Z 0048a870 f i libucrtd:output.obj
 0001:000898b0       ??$extract_argument_from_va_list@_W_W@?$positional_parameter_base@DV?$stream_output_adapter@D@__crt_stdio_output@@@__crt_stdio_output@@IAE_NAA_W@Z 0048a8b0 f i libucrtd:output.obj
 0001:00089a30       ??$extract_argument_from_va_list@_W_W@?$positional_parameter_base@DV?$string_output_adapter@D@__crt_stdio_output@@@__crt_stdio_output@@IAE_NAA_W@Z 0048aa30 f i libucrtd:output.obj
 0001:00089bb0       ??$extract_argument_from_va_list@_W_W@?$positional_parameter_base@_WV?$stream_output_adapter@_W@__crt_stdio_output@@@__crt_stdio_output@@IAE_NAA_W@Z 0048abb0 f i libucrtd:output.obj
 0001:00089d30       ??$extract_argument_from_va_list@_W_W@?$positional_parameter_base@_WV?$string_output_adapter@_W@__crt_stdio_output@@@__crt_stdio_output@@IAE_NAA_W@Z 0048ad30 f i libucrtd:output.obj
 0001:00089eb0       ??$extract_argument_from_va_list@_W_W@?$standard_base@DV?$stream_output_adapter@D@__crt_stdio_output@@@__crt_stdio_output@@IAE_NAA_W@Z 0048aeb0 f i libucrtd:output.obj
 0001:00089ee0       ??$extract_argument_from_va_list@_W_W@?$standard_base@DV?$string_output_adapter@D@__crt_stdio_output@@@__crt_stdio_output@@IAE_NAA_W@Z 0048aee0 f i libucrtd:output.obj
 0001:00089f10       ??$extract_argument_from_va_list@_W_W@?$standard_base@_WV?$stream_output_adapter@_W@__crt_stdio_output@@@__crt_stdio_output@@IAE_NAA_W@Z 0048af10 f i libucrtd:output.obj
 0001:00089f40       ??$extract_argument_from_va_list@_W_W@?$standard_base@_WV?$string_output_adapter@_W@__crt_stdio_output@@@__crt_stdio_output@@IAE_NAA_W@Z 0048af40 f i libucrtd:output.obj
 0001:00089f70       ??$get_parameter_type@D@?$positional_parameter_base@DV?$stream_output_adapter@D@__crt_stdio_output@@@__crt_stdio_output@@CA?AW4parameter_type@01@PAD@Z 0048af70 f i libucrtd:output.obj
 0001:00089f80       ??$get_parameter_type@D@?$positional_parameter_base@DV?$string_output_adapter@D@__crt_stdio_output@@@__crt_stdio_output@@CA?AW4parameter_type@01@PAD@Z 0048af80 f i libucrtd:output.obj
 0001:00089f90       ??$get_parameter_type@D@?$positional_parameter_base@_WV?$stream_output_adapter@_W@__crt_stdio_output@@@__crt_stdio_output@@CA?AW4parameter_type@01@PAD@Z 0048af90 f i libucrtd:output.obj
 0001:00089fa0       ??$get_parameter_type@D@?$positional_parameter_base@_WV?$string_output_adapter@_W@__crt_stdio_output@@@__crt_stdio_output@@CA?AW4parameter_type@01@PAD@Z 0048afa0 f i libucrtd:output.obj
 0001:00089fb0       ??$get_parameter_type@Uansi_string@?1??type_case_Z@?$output_processor@DV?$stream_output_adapter@D@__crt_stdio_output@@V?$positional_parameter_base@DV?$stream_output_adapter@D@__crt_stdio_output@@@2@@__crt_stdio_output@@AAE_NXZ@@?$positional_parameter_base@DV?$stream_output_adapter@D@__crt_stdio_output@@@__crt_stdio_output@@CA?AW4parameter_type@01@PAUansi_string@?1??type_case_Z@?$output_processor@DV?$stream_output_adapter@D@__crt_stdio_output@@V?$positional_parameter_base@DV?$stream_output_adapter@D@__crt_stdio_output@@@2@@1@AAE_NXZ@@Z 0048afb0 f i libucrtd:output.obj
 0001:00089fc0       ??$get_parameter_type@Uansi_string@?1??type_case_Z@?$output_processor@DV?$string_output_adapter@D@__crt_stdio_output@@V?$positional_parameter_base@DV?$string_output_adapter@D@__crt_stdio_output@@@2@@__crt_stdio_output@@AAE_NXZ@@?$positional_parameter_base@DV?$string_output_adapter@D@__crt_stdio_output@@@__crt_stdio_output@@CA?AW4parameter_type@01@PAUansi_string@?1??type_case_Z@?$output_processor@DV?$string_output_adapter@D@__crt_stdio_output@@V?$positional_parameter_base@DV?$string_output_adapter@D@__crt_stdio_output@@@2@@1@AAE_NXZ@@Z 0048afc0 f i libucrtd:output.obj
 0001:00089fd0       ??$get_parameter_type@Uansi_string@?1??type_case_Z@?$output_processor@_WV?$stream_output_adapter@_W@__crt_stdio_output@@V?$positional_parameter_base@_WV?$stream_output_adapter@_W@__crt_stdio_output@@@2@@__crt_stdio_output@@AAE_NXZ@@?$positional_parameter_base@_WV?$stream_output_adapter@_W@__crt_stdio_output@@@__crt_stdio_output@@CA?AW4parameter_type@01@PAUansi_string@?1??type_case_Z@?$output_processor@_WV?$stream_output_adapter@_W@__crt_stdio_output@@V?$positional_parameter_base@_WV?$stream_output_adapter@_W@__crt_stdio_output@@@2@@1@AAE_NXZ@@Z 0048afd0 f i libucrtd:output.obj
 0001:00089fe0       ??$get_parameter_type@Uansi_string@?1??type_case_Z@?$output_processor@_WV?$string_output_adapter@_W@__crt_stdio_output@@V?$positional_parameter_base@_WV?$string_output_adapter@_W@__crt_stdio_output@@@2@@__crt_stdio_output@@AAE_NXZ@@?$positional_parameter_base@_WV?$string_output_adapter@_W@__crt_stdio_output@@@__crt_stdio_output@@CA?AW4parameter_type@01@PAUansi_string@?1??type_case_Z@?$output_processor@_WV?$string_output_adapter@_W@__crt_stdio_output@@V?$positional_parameter_base@_WV?$string_output_adapter@_W@__crt_stdio_output@@@2@@1@AAE_NXZ@@Z 0048afe0 f i libucrtd:output.obj
 0001:00089ff0       ??$get_parameter_type@X@?$positional_parameter_base@DV?$stream_output_adapter@D@__crt_stdio_output@@@__crt_stdio_output@@CA?AW4parameter_type@01@PAX@Z 0048aff0 f i libucrtd:output.obj
 0001:0008a000       ??$get_parameter_type@X@?$positional_parameter_base@DV?$string_output_adapter@D@__crt_stdio_output@@@__crt_stdio_output@@CA?AW4parameter_type@01@PAX@Z 0048b000 f i libucrtd:output.obj
 0001:0008a010       ??$get_parameter_type@X@?$positional_parameter_base@_WV?$stream_output_adapter@_W@__crt_stdio_output@@@__crt_stdio_output@@CA?AW4parameter_type@01@PAX@Z 0048b010 f i libucrtd:output.obj
 0001:0008a020       ??$get_parameter_type@X@?$positional_parameter_base@_WV?$string_output_adapter@_W@__crt_stdio_output@@@__crt_stdio_output@@CA?AW4parameter_type@01@PAX@Z 0048b020 f i libucrtd:output.obj
 0001:0008a030       ??$is_character_specifier@D@?$positional_parameter_base@DV?$stream_output_adapter@D@__crt_stdio_output@@@__crt_stdio_output@@CA_ND@Z 0048b030 f i libucrtd:output.obj
 0001:0008a070       ??$is_character_specifier@D@?$positional_parameter_base@DV?$string_output_adapter@D@__crt_stdio_output@@@__crt_stdio_output@@CA_ND@Z 0048b070 f i libucrtd:output.obj
 0001:0008a0b0       ??$is_character_specifier@_W@?$positional_parameter_base@_WV?$stream_output_adapter@_W@__crt_stdio_output@@@__crt_stdio_output@@CA_N_W@Z 0048b0b0 f i libucrtd:output.obj
 0001:0008a0f0       ??$is_character_specifier@_W@?$positional_parameter_base@_WV?$string_output_adapter@_W@__crt_stdio_output@@@__crt_stdio_output@@CA_N_W@Z 0048b0f0 f i libucrtd:output.obj
 0001:0008a130       ??$is_integral_specifier@D@?$positional_parameter_base@DV?$stream_output_adapter@D@__crt_stdio_output@@@__crt_stdio_output@@CA_ND@Z 0048b130 f i libucrtd:output.obj
 0001:0008a1b0       ??$is_integral_specifier@D@?$positional_parameter_base@DV?$string_output_adapter@D@__crt_stdio_output@@@__crt_stdio_output@@CA_ND@Z 0048b1b0 f i libucrtd:output.obj
 0001:0008a230       ??$is_integral_specifier@_W@?$positional_parameter_base@_WV?$stream_output_adapter@_W@__crt_stdio_output@@@__crt_stdio_output@@CA_N_W@Z 0048b230 f i libucrtd:output.obj
 0001:0008a2b0       ??$is_integral_specifier@_W@?$positional_parameter_base@_WV?$string_output_adapter@_W@__crt_stdio_output@@@__crt_stdio_output@@CA_N_W@Z 0048b2b0 f i libucrtd:output.obj
 0001:0008a330       ??$is_pointer_specifier@D@?$positional_parameter_base@DV?$stream_output_adapter@D@__crt_stdio_output@@@__crt_stdio_output@@CA_ND@Z 0048b330 f i libucrtd:output.obj
 0001:0008a360       ??$is_pointer_specifier@D@?$positional_parameter_base@DV?$string_output_adapter@D@__crt_stdio_output@@@__crt_stdio_output@@CA_ND@Z 0048b360 f i libucrtd:output.obj
 0001:0008a390       ??$is_pointer_specifier@_W@?$positional_parameter_base@_WV?$stream_output_adapter@_W@__crt_stdio_output@@@__crt_stdio_output@@CA_N_W@Z 0048b390 f i libucrtd:output.obj
 0001:0008a3c0       ??$is_pointer_specifier@_W@?$positional_parameter_base@_WV?$string_output_adapter@_W@__crt_stdio_output@@@__crt_stdio_output@@CA_N_W@Z 0048b3c0 f i libucrtd:output.obj
 0001:0008a3f0       ??$is_string_specifier@D@?$positional_parameter_base@DV?$stream_output_adapter@D@__crt_stdio_output@@@__crt_stdio_output@@CA_ND@Z 0048b3f0 f i libucrtd:output.obj
 0001:0008a430       ??$is_string_specifier@D@?$positional_parameter_base@DV?$string_output_adapter@D@__crt_stdio_output@@@__crt_stdio_output@@CA_ND@Z 0048b430 f i libucrtd:output.obj
 0001:0008a470       ??$is_string_specifier@_W@?$positional_parameter_base@_WV?$stream_output_adapter@_W@__crt_stdio_output@@@__crt_stdio_output@@CA_N_W@Z 0048b470 f i libucrtd:output.obj
 0001:0008a4b0       ??$is_string_specifier@_W@?$positional_parameter_base@_WV?$string_output_adapter@_W@__crt_stdio_output@@@__crt_stdio_output@@CA_N_W@Z 0048b4b0 f i libucrtd:output.obj
 0001:0008a4f0       ??$is_wide_character_specifier@D@__crt_stdio_output@@YA_N_KDW4length_modifier@0@@Z 0048b4f0 f i libucrtd:output.obj
 0001:0008a590       ??$is_wide_character_specifier@_W@__crt_stdio_output@@YA_N_K_WW4length_modifier@0@@Z 0048b590 f i libucrtd:output.obj
 0001:0008a680       ??$peek_va_arg@C@__crt_stdio_output@@YACPAD@Z 0048b680 f i libucrtd:output.obj
 0001:0008a6a0       ??$peek_va_arg@E@__crt_stdio_output@@YAEPAD@Z 0048b6a0 f i libucrtd:output.obj
 0001:0008a6c0       ??$peek_va_arg@F@__crt_stdio_output@@YAFPAD@Z 0048b6c0 f i libucrtd:output.obj
 0001:0008a6e0       ??$peek_va_arg@G@__crt_stdio_output@@YAGPAD@Z 0048b6e0 f i libucrtd:output.obj
 0001:0008a700       ??$peek_va_arg@H@__crt_stdio_output@@YAHPAD@Z 0048b700 f i libucrtd:output.obj
 0001:0008a720       ??$peek_va_arg@I@__crt_stdio_output@@YAIPAD@Z 0048b720 f i libucrtd:output.obj
 0001:0008a740       ??$peek_va_arg@PAD@__crt_stdio_output@@YAPADPAD@Z 0048b740 f i libucrtd:output.obj
 0001:0008a760       ??$peek_va_arg@PAUansi_string@?1??type_case_Z@?$output_processor@DV?$stream_output_adapter@D@__crt_stdio_output@@V?$positional_parameter_base@DV?$stream_output_adapter@D@__crt_stdio_output@@@2@@__crt_stdio_output@@AAE_NXZ@@__crt_stdio_output@@YAPAUansi_string@?1??type_case_Z@?$output_processor@DV?$stream_output_adapter@D@__crt_stdio_output@@V?$positional_parameter_base@DV?$stream_output_adapter@D@__crt_stdio_output@@@2@@0@AAE_NXZ@PAD@Z 0048b760 f i libucrtd:output.obj
 0001:0008a780       ??$peek_va_arg@PAUansi_string@?1??type_case_Z@?$output_processor@DV?$string_output_adapter@D@__crt_stdio_output@@V?$positional_parameter_base@DV?$string_output_adapter@D@__crt_stdio_output@@@2@@__crt_stdio_output@@AAE_NXZ@@__crt_stdio_output@@YAPAUansi_string@?1??type_case_Z@?$output_processor@DV?$string_output_adapter@D@__crt_stdio_output@@V?$positional_parameter_base@DV?$string_output_adapter@D@__crt_stdio_output@@@2@@0@AAE_NXZ@PAD@Z 0048b780 f i libucrtd:output.obj
 0001:0008a7a0       ??$peek_va_arg@PAUansi_string@?1??type_case_Z@?$output_processor@_WV?$stream_output_adapter@_W@__crt_stdio_output@@V?$positional_parameter_base@_WV?$stream_output_adapter@_W@__crt_stdio_output@@@2@@__crt_stdio_output@@AAE_NXZ@@__crt_stdio_output@@YAPAUansi_string@?1??type_case_Z@?$output_processor@_WV?$stream_output_adapter@_W@__crt_stdio_output@@V?$positional_parameter_base@_WV?$stream_output_adapter@_W@__crt_stdio_output@@@2@@0@AAE_NXZ@PAD@Z 0048b7a0 f i libucrtd:output.obj
 0001:0008a7c0       ??$peek_va_arg@PAUansi_string@?1??type_case_Z@?$output_processor@_WV?$string_output_adapter@_W@__crt_stdio_output@@V?$positional_parameter_base@_WV?$string_output_adapter@_W@__crt_stdio_output@@@2@@__crt_stdio_output@@AAE_NXZ@@__crt_stdio_output@@YAPAUansi_string@?1??type_case_Z@?$output_processor@_WV?$string_output_adapter@_W@__crt_stdio_output@@V?$positional_parameter_base@_WV?$string_output_adapter@_W@__crt_stdio_output@@@2@@0@AAE_NXZ@PAD@Z 0048b7c0 f i libucrtd:output.obj
 0001:0008a7e0       ??$peek_va_arg@PAX@__crt_stdio_output@@YAPAXPAD@Z 0048b7e0 f i libucrtd:output.obj
 0001:0008a800       ??$peek_va_arg@U_CRT_DOUBLE@@@__crt_stdio_output@@YA?AU_CRT_DOUBLE@@PAD@Z 0048b800 f i libucrtd:output.obj
 0001:0008a820       ??$peek_va_arg@_J@__crt_stdio_output@@YA_JPAD@Z 0048b820 f i libucrtd:output.obj
 0001:0008a840       ??$peek_va_arg@_K@__crt_stdio_output@@YA_KPAD@Z 0048b840 f i libucrtd:output.obj
 0001:0008a860       ??$peek_va_arg@_W@__crt_stdio_output@@YA_WPAD@Z 0048b860 f i libucrtd:output.obj
 0001:0008a880       ??$puttc_nolock@ABDPAU_iobuf@@@?$__crt_char_traits@D@@SAHABD$$QAPAU_iobuf@@@Z 0048b880 f i libucrtd:output.obj
 0001:0008a8b0       ??$puttc_nolock@AB_WPAU_iobuf@@@?$__crt_char_traits@_W@@SAGAB_W$$QAPAU_iobuf@@@Z 0048b8b0 f i libucrtd:output.obj
 0001:0008a8e0       ??$read_va_arg@C@__crt_stdio_output@@YACAAPAD@Z 0048b8e0 f i libucrtd:output.obj
 0001:0008a910       ??$read_va_arg@E@__crt_stdio_output@@YAEAAPAD@Z 0048b910 f i libucrtd:output.obj
 0001:0008a940       ??$read_va_arg@F@__crt_stdio_output@@YAFAAPAD@Z 0048b940 f i libucrtd:output.obj
 0001:0008a970       ??$read_va_arg@G@__crt_stdio_output@@YAGAAPAD@Z 0048b970 f i libucrtd:output.obj
 0001:0008a9a0       ??$read_va_arg@H@__crt_stdio_output@@YAHAAPAD@Z 0048b9a0 f i libucrtd:output.obj
 0001:0008a9d0       ??$read_va_arg@I@__crt_stdio_output@@YAIAAPAD@Z 0048b9d0 f i libucrtd:output.obj
 0001:0008aa00       ??$read_va_arg@PAD@__crt_stdio_output@@YAPADAAPAD@Z 0048ba00 f i libucrtd:output.obj
 0001:0008aa30       ??$read_va_arg@PAUansi_string@?1??type_case_Z@?$output_processor@DV?$stream_output_adapter@D@__crt_stdio_output@@V?$format_validation_base@DV?$stream_output_adapter@D@__crt_stdio_output@@@2@@__crt_stdio_output@@AAE_NXZ@@__crt_stdio_output@@YAPAUansi_string@?1??type_case_Z@?$output_processor@DV?$stream_output_adapter@D@__crt_stdio_output@@V?$format_validation_base@DV?$stream_output_adapter@D@__crt_stdio_output@@@2@@0@AAE_NXZ@AAPAD@Z 0048ba30 f i libucrtd:output.obj
 0001:0008aa60       ??$read_va_arg@PAUansi_string@?1??type_case_Z@?$output_processor@DV?$stream_output_adapter@D@__crt_stdio_output@@V?$positional_parameter_base@DV?$stream_output_adapter@D@__crt_stdio_output@@@2@@__crt_stdio_output@@AAE_NXZ@@__crt_stdio_output@@YAPAUansi_string@?1??type_case_Z@?$output_processor@DV?$stream_output_adapter@D@__crt_stdio_output@@V?$positional_parameter_base@DV?$stream_output_adapter@D@__crt_stdio_output@@@2@@0@AAE_NXZ@AAPAD@Z 0048ba60 f i libucrtd:output.obj
 0001:0008aa90       ??$read_va_arg@PAUansi_string@?1??type_case_Z@?$output_processor@DV?$stream_output_adapter@D@__crt_stdio_output@@V?$standard_base@DV?$stream_output_adapter@D@__crt_stdio_output@@@2@@__crt_stdio_output@@AAE_NXZ@@__crt_stdio_output@@YAPAUansi_string@?1??type_case_Z@?$output_processor@DV?$stream_output_adapter@D@__crt_stdio_output@@V?$standard_base@DV?$stream_output_adapter@D@__crt_stdio_output@@@2@@0@AAE_NXZ@AAPAD@Z 0048ba90 f i libucrtd:output.obj
 0001:0008aac0       ??$read_va_arg@PAUansi_string@?1??type_case_Z@?$output_processor@DV?$string_output_adapter@D@__crt_stdio_output@@V?$format_validation_base@DV?$string_output_adapter@D@__crt_stdio_output@@@2@@__crt_stdio_output@@AAE_NXZ@@__crt_stdio_output@@YAPAUansi_string@?1??type_case_Z@?$output_processor@DV?$string_output_adapter@D@__crt_stdio_output@@V?$format_validation_base@DV?$string_output_adapter@D@__crt_stdio_output@@@2@@0@AAE_NXZ@AAPAD@Z 0048bac0 f i libucrtd:output.obj
 0001:0008aaf0       ??$read_va_arg@PAUansi_string@?1??type_case_Z@?$output_processor@DV?$string_output_adapter@D@__crt_stdio_output@@V?$positional_parameter_base@DV?$string_output_adapter@D@__crt_stdio_output@@@2@@__crt_stdio_output@@AAE_NXZ@@__crt_stdio_output@@YAPAUansi_string@?1??type_case_Z@?$output_processor@DV?$string_output_adapter@D@__crt_stdio_output@@V?$positional_parameter_base@DV?$string_output_adapter@D@__crt_stdio_output@@@2@@0@AAE_NXZ@AAPAD@Z 0048baf0 f i libucrtd:output.obj
 0001:0008ab20       ??$read_va_arg@PAUansi_string@?1??type_case_Z@?$output_processor@DV?$string_output_adapter@D@__crt_stdio_output@@V?$standard_base@DV?$string_output_adapter@D@__crt_stdio_output@@@2@@__crt_stdio_output@@AAE_NXZ@@__crt_stdio_output@@YAPAUansi_string@?1??type_case_Z@?$output_processor@DV?$string_output_adapter@D@__crt_stdio_output@@V?$standard_base@DV?$string_output_adapter@D@__crt_stdio_output@@@2@@0@AAE_NXZ@AAPAD@Z 0048bb20 f i libucrtd:output.obj
 0001:0008ab50       ??$read_va_arg@PAUansi_string@?1??type_case_Z@?$output_processor@_WV?$stream_output_adapter@_W@__crt_stdio_output@@V?$format_validation_base@_WV?$stream_output_adapter@_W@__crt_stdio_output@@@2@@__crt_stdio_output@@AAE_NXZ@@__crt_stdio_output@@YAPAUansi_string@?1??type_case_Z@?$output_processor@_WV?$stream_output_adapter@_W@__crt_stdio_output@@V?$format_validation_base@_WV?$stream_output_adapter@_W@__crt_stdio_output@@@2@@0@AAE_NXZ@AAPAD@Z 0048bb50 f i libucrtd:output.obj
 0001:0008ab80       ??$read_va_arg@PAUansi_string@?1??type_case_Z@?$output_processor@_WV?$stream_output_adapter@_W@__crt_stdio_output@@V?$positional_parameter_base@_WV?$stream_output_adapter@_W@__crt_stdio_output@@@2@@__crt_stdio_output@@AAE_NXZ@@__crt_stdio_output@@YAPAUansi_string@?1??type_case_Z@?$output_processor@_WV?$stream_output_adapter@_W@__crt_stdio_output@@V?$positional_parameter_base@_WV?$stream_output_adapter@_W@__crt_stdio_output@@@2@@0@AAE_NXZ@AAPAD@Z 0048bb80 f i libucrtd:output.obj
 0001:0008abb0       ??$read_va_arg@PAUansi_string@?1??type_case_Z@?$output_processor@_WV?$stream_output_adapter@_W@__crt_stdio_output@@V?$standard_base@_WV?$stream_output_adapter@_W@__crt_stdio_output@@@2@@__crt_stdio_output@@AAE_NXZ@@__crt_stdio_output@@YAPAUansi_string@?1??type_case_Z@?$output_processor@_WV?$stream_output_adapter@_W@__crt_stdio_output@@V?$standard_base@_WV?$stream_output_adapter@_W@__crt_stdio_output@@@2@@0@AAE_NXZ@AAPAD@Z 0048bbb0 f i libucrtd:output.obj
 0001:0008abe0       ??$read_va_arg@PAUansi_string@?1??type_case_Z@?$output_processor@_WV?$string_output_adapter@_W@__crt_stdio_output@@V?$format_validation_base@_WV?$string_output_adapter@_W@__crt_stdio_output@@@2@@__crt_stdio_output@@AAE_NXZ@@__crt_stdio_output@@YAPAUansi_string@?1??type_case_Z@?$output_processor@_WV?$string_output_adapter@_W@__crt_stdio_output@@V?$format_validation_base@_WV?$string_output_adapter@_W@__crt_stdio_output@@@2@@0@AAE_NXZ@AAPAD@Z 0048bbe0 f i libucrtd:output.obj
 0001:0008ac10       ??$read_va_arg@PAUansi_string@?1??type_case_Z@?$output_processor@_WV?$string_output_adapter@_W@__crt_stdio_output@@V?$positional_parameter_base@_WV?$string_output_adapter@_W@__crt_stdio_output@@@2@@__crt_stdio_output@@AAE_NXZ@@__crt_stdio_output@@YAPAUansi_string@?1??type_case_Z@?$output_processor@_WV?$string_output_adapter@_W@__crt_stdio_output@@V?$positional_parameter_base@_WV?$string_output_adapter@_W@__crt_stdio_output@@@2@@0@AAE_NXZ@AAPAD@Z 0048bc10 f i libucrtd:output.obj
 0001:0008ac40       ??$read_va_arg@PAUansi_string@?1??type_case_Z@?$output_processor@_WV?$string_output_adapter@_W@__crt_stdio_output@@V?$standard_base@_WV?$string_output_adapter@_W@__crt_stdio_output@@@2@@__crt_stdio_output@@AAE_NXZ@@__crt_stdio_output@@YAPAUansi_string@?1??type_case_Z@?$output_processor@_WV?$string_output_adapter@_W@__crt_stdio_output@@V?$standard_base@_WV?$string_output_adapter@_W@__crt_stdio_output@@@2@@0@AAE_NXZ@AAPAD@Z 0048bc40 f i libucrtd:output.obj
 0001:0008ac70       ??$read_va_arg@PAX@__crt_stdio_output@@YAPAXAAPAD@Z 0048bc70 f i libucrtd:output.obj
 0001:0008aca0       ??$read_va_arg@U_CRT_DOUBLE@@@__crt_stdio_output@@YA?AU_CRT_DOUBLE@@AAPAD@Z 0048bca0 f i libucrtd:output.obj
 0001:0008acd0       ??$read_va_arg@_J@__crt_stdio_output@@YA_JAAPAD@Z 0048bcd0 f i libucrtd:output.obj
 0001:0008ad00       ??$read_va_arg@_K@__crt_stdio_output@@YA_KAAPAD@Z 0048bd00 f i libucrtd:output.obj
 0001:0008ad30       ??$read_va_arg@_W@__crt_stdio_output@@YA_WAAPAD@Z 0048bd30 f i libucrtd:output.obj
 0001:0008ad60       ??$scratch_count@D@formatting_buffer@__crt_stdio_output@@QBEIXZ 0048bd60 f i libucrtd:output.obj
 0001:0008ad80       ??$scratch_data@D@formatting_buffer@__crt_stdio_output@@QAEPADXZ 0048bd80 f i libucrtd:output.obj
 0001:0008ade0       ??$tcstol@AAPBDPAPADH@?$__crt_char_traits@D@@SAJAAPBD$$QAPAPAD$$QAH@Z 0048bde0 f i libucrtd:output.obj
 0001:0008ae10       ??$tcstol@AAPB_WPAPA_WH@?$__crt_char_traits@_W@@SAJAAPB_W$$QAPAPA_W$$QAH@Z 0048be10 f i libucrtd:output.obj
 0001:0008ae40       ??$tcstol@PBDPAPADH@?$__crt_char_traits@D@@SAJ$$QAPBD$$QAPAPAD$$QAH@Z 0048be40 f i libucrtd:output.obj
 0001:0008ae70       ??$tcstol@PB_WPAPA_WH@?$__crt_char_traits@_W@@SAJ$$QAPB_W$$QAPAPA_W$$QAH@Z 0048be70 f i libucrtd:output.obj
 0001:0008aea0       ??$type_case_integer_parse_into_buffer@I@?$output_processor@DV?$stream_output_adapter@D@__crt_stdio_output@@V?$format_validation_base@DV?$stream_output_adapter@D@__crt_stdio_output@@@2@@__crt_stdio_output@@AAEXII_N@Z 0048bea0 f i libucrtd:output.obj
 0001:0008afb0       ??$type_case_integer_parse_into_buffer@I@?$output_processor@DV?$stream_output_adapter@D@__crt_stdio_output@@V?$positional_parameter_base@DV?$stream_output_adapter@D@__crt_stdio_output@@@2@@__crt_stdio_output@@AAEXII_N@Z 0048bfb0 f i libucrtd:output.obj
 0001:0008b0c0       ??$type_case_integer_parse_into_buffer@I@?$output_processor@DV?$stream_output_adapter@D@__crt_stdio_output@@V?$standard_base@DV?$stream_output_adapter@D@__crt_stdio_output@@@2@@__crt_stdio_output@@AAEXII_N@Z 0048c0c0 f i libucrtd:output.obj
 0001:0008b1d0       ??$type_case_integer_parse_into_buffer@I@?$output_processor@DV?$string_output_adapter@D@__crt_stdio_output@@V?$format_validation_base@DV?$string_output_adapter@D@__crt_stdio_output@@@2@@__crt_stdio_output@@AAEXII_N@Z 0048c1d0 f i libucrtd:output.obj
 0001:0008b2e0       ??$type_case_integer_parse_into_buffer@I@?$output_processor@DV?$string_output_adapter@D@__crt_stdio_output@@V?$positional_parameter_base@DV?$string_output_adapter@D@__crt_stdio_output@@@2@@__crt_stdio_output@@AAEXII_N@Z 0048c2e0 f i libucrtd:output.obj
 0001:0008b3f0       ??$type_case_integer_parse_into_buffer@I@?$output_processor@DV?$string_output_adapter@D@__crt_stdio_output@@V?$standard_base@DV?$string_output_adapter@D@__crt_stdio_output@@@2@@__crt_stdio_output@@AAEXII_N@Z 0048c3f0 f i libucrtd:output.obj
 0001:0008b500       ??$type_case_integer_parse_into_buffer@I@?$output_processor@_WV?$stream_output_adapter@_W@__crt_stdio_output@@V?$format_validation_base@_WV?$stream_output_adapter@_W@__crt_stdio_output@@@2@@__crt_stdio_output@@AAEXII_N@Z 0048c500 f i libucrtd:output.obj
 0001:0008b610       ??$type_case_integer_parse_into_buffer@I@?$output_processor@_WV?$stream_output_adapter@_W@__crt_stdio_output@@V?$positional_parameter_base@_WV?$stream_output_adapter@_W@__crt_stdio_output@@@2@@__crt_stdio_output@@AAEXII_N@Z 0048c610 f i libucrtd:output.obj
 0001:0008b720       ??$type_case_integer_parse_into_buffer@I@?$output_processor@_WV?$stream_output_adapter@_W@__crt_stdio_output@@V?$standard_base@_WV?$stream_output_adapter@_W@__crt_stdio_output@@@2@@__crt_stdio_output@@AAEXII_N@Z 0048c720 f i libucrtd:output.obj
 0001:0008b830       ??$type_case_integer_parse_into_buffer@I@?$output_processor@_WV?$string_output_adapter@_W@__crt_stdio_output@@V?$format_validation_base@_WV?$string_output_adapter@_W@__crt_stdio_output@@@2@@__crt_stdio_output@@AAEXII_N@Z 0048c830 f i libucrtd:output.obj
 0001:0008b940       ??$type_case_integer_parse_into_buffer@I@?$output_processor@_WV?$string_output_adapter@_W@__crt_stdio_output@@V?$positional_parameter_base@_WV?$string_output_adapter@_W@__crt_stdio_output@@@2@@__crt_stdio_output@@AAEXII_N@Z 0048c940 f i libucrtd:output.obj
 0001:0008ba50       ??$type_case_integer_parse_into_buffer@I@?$output_processor@_WV?$string_output_adapter@_W@__crt_stdio_output@@V?$standard_base@_WV?$string_output_adapter@_W@__crt_stdio_output@@@2@@__crt_stdio_output@@AAEXII_N@Z 0048ca50 f i libucrtd:output.obj
 0001:0008bb60       ??$type_case_integer_parse_into_buffer@_K@?$output_processor@DV?$stream_output_adapter@D@__crt_stdio_output@@V?$format_validation_base@DV?$stream_output_adapter@D@__crt_stdio_output@@@2@@__crt_stdio_output@@AAEX_KI_N@Z 0048cb60 f i libucrtd:output.obj
 0001:0008bc90       ??$type_case_integer_parse_into_buffer@_K@?$output_processor@DV?$stream_output_adapter@D@__crt_stdio_output@@V?$positional_parameter_base@DV?$stream_output_adapter@D@__crt_stdio_output@@@2@@__crt_stdio_output@@AAEX_KI_N@Z 0048cc90 f i libucrtd:output.obj
 0001:0008bdc0       ??$type_case_integer_parse_into_buffer@_K@?$output_processor@DV?$stream_output_adapter@D@__crt_stdio_output@@V?$standard_base@DV?$stream_output_adapter@D@__crt_stdio_output@@@2@@__crt_stdio_output@@AAEX_KI_N@Z 0048cdc0 f i libucrtd:output.obj
 0001:0008bef0       ??$type_case_integer_parse_into_buffer@_K@?$output_processor@DV?$string_output_adapter@D@__crt_stdio_output@@V?$format_validation_base@DV?$string_output_adapter@D@__crt_stdio_output@@@2@@__crt_stdio_output@@AAEX_KI_N@Z 0048cef0 f i libucrtd:output.obj
 0001:0008c020       ??$type_case_integer_parse_into_buffer@_K@?$output_processor@DV?$string_output_adapter@D@__crt_stdio_output@@V?$positional_parameter_base@DV?$string_output_adapter@D@__crt_stdio_output@@@2@@__crt_stdio_output@@AAEX_KI_N@Z 0048d020 f i libucrtd:output.obj
 0001:0008c150       ??$type_case_integer_parse_into_buffer@_K@?$output_processor@DV?$string_output_adapter@D@__crt_stdio_output@@V?$standard_base@DV?$string_output_adapter@D@__crt_stdio_output@@@2@@__crt_stdio_output@@AAEX_KI_N@Z 0048d150 f i libucrtd:output.obj
 0001:0008c280       ??$type_case_integer_parse_into_buffer@_K@?$output_processor@_WV?$stream_output_adapter@_W@__crt_stdio_output@@V?$format_validation_base@_WV?$stream_output_adapter@_W@__crt_stdio_output@@@2@@__crt_stdio_output@@AAEX_KI_N@Z 0048d280 f i libucrtd:output.obj
 0001:0008c3c0       ??$type_case_integer_parse_into_buffer@_K@?$output_processor@_WV?$stream_output_adapter@_W@__crt_stdio_output@@V?$positional_parameter_base@_WV?$stream_output_adapter@_W@__crt_stdio_output@@@2@@__crt_stdio_output@@AAEX_KI_N@Z 0048d3c0 f i libucrtd:output.obj
 0001:0008c500       ??$type_case_integer_parse_into_buffer@_K@?$output_processor@_WV?$stream_output_adapter@_W@__crt_stdio_output@@V?$standard_base@_WV?$stream_output_adapter@_W@__crt_stdio_output@@@2@@__crt_stdio_output@@AAEX_KI_N@Z 0048d500 f i libucrtd:output.obj
 0001:0008c640       ??$type_case_integer_parse_into_buffer@_K@?$output_processor@_WV?$string_output_adapter@_W@__crt_stdio_output@@V?$format_validation_base@_WV?$string_output_adapter@_W@__crt_stdio_output@@@2@@__crt_stdio_output@@AAEX_KI_N@Z 0048d640 f i libucrtd:output.obj
 0001:0008c780       ??$type_case_integer_parse_into_buffer@_K@?$output_processor@_WV?$string_output_adapter@_W@__crt_stdio_output@@V?$positional_parameter_base@_WV?$string_output_adapter@_W@__crt_stdio_output@@@2@@__crt_stdio_output@@AAEX_KI_N@Z 0048d780 f i libucrtd:output.obj
 0001:0008c8c0       ??$type_case_integer_parse_into_buffer@_K@?$output_processor@_WV?$string_output_adapter@_W@__crt_stdio_output@@V?$standard_base@_WV?$string_output_adapter@_W@__crt_stdio_output@@@2@@__crt_stdio_output@@AAEX_KI_N@Z 0048d8c0 f i libucrtd:output.obj
 0001:0008ca00       ??$write_multiple_characters@V?$stream_output_adapter@D@__crt_stdio_output@@D@__crt_stdio_output@@YAXABV?$stream_output_adapter@D@0@DHQAH@Z 0048da00 f i libucrtd:output.obj
 0001:0008ca60       ??$write_multiple_characters@V?$stream_output_adapter@_W@__crt_stdio_output@@D@__crt_stdio_output@@YAXABV?$stream_output_adapter@_W@0@DHQAH@Z 0048da60 f i libucrtd:output.obj
 0001:0008cac0       ??$write_multiple_characters@V?$string_output_adapter@D@__crt_stdio_output@@D@__crt_stdio_output@@YAXABV?$string_output_adapter@D@0@DHQAH@Z 0048dac0 f i libucrtd:output.obj
 0001:0008cb20       ??$write_multiple_characters@V?$string_output_adapter@_W@__crt_stdio_output@@D@__crt_stdio_output@@YAXABV?$string_output_adapter@_W@0@DHQAH@Z 0048db20 f i libucrtd:output.obj
 0001:0008cfa0       ??0?$common_data@D@__crt_stdio_output@@IAE@XZ 0048dfa0 f i libucrtd:output.obj
 0001:0008d070       ??0?$common_data@_W@__crt_stdio_output@@IAE@XZ 0048e070 f i libucrtd:output.obj
 0001:0008d140       ??0?$output_adapter_data@DV?$stream_output_adapter@D@__crt_stdio_output@@@__crt_stdio_output@@IAE@ABV?$stream_output_adapter@D@1@_KQBDQAU__crt_locale_pointers@@QAD@Z 0048e140 f i libucrtd:output.obj
 0001:0008d1b0       ??0?$output_adapter_data@DV?$string_output_adapter@D@__crt_stdio_output@@@__crt_stdio_output@@IAE@ABV?$string_output_adapter@D@1@_KQBDQAU__crt_locale_pointers@@QAD@Z 0048e1b0 f i libucrtd:output.obj
 0001:0008d220       ??0?$output_adapter_data@_WV?$stream_output_adapter@_W@__crt_stdio_output@@@__crt_stdio_output@@IAE@ABV?$stream_output_adapter@_W@1@_KQB_WQAU__crt_locale_pointers@@QAD@Z 0048e220 f i libucrtd:output.obj
 0001:0008d290       ??0?$output_adapter_data@_WV?$string_output_adapter@_W@__crt_stdio_output@@@__crt_stdio_output@@IAE@ABV?$string_output_adapter@_W@1@_KQB_WQAU__crt_locale_pointers@@QAD@Z 0048e290 f i libucrtd:output.obj
 0001:0008d300       ??0?$output_processor@DV?$stream_output_adapter@D@__crt_stdio_output@@V?$format_validation_base@DV?$stream_output_adapter@D@__crt_stdio_output@@@2@@__crt_stdio_output@@QAE@ABV?$stream_output_adapter@D@1@_KQBDQAU__crt_locale_pointers@@QAD@Z 0048e300 f i libucrtd:output.obj
 0001:0008d340       ??0?$output_processor@DV?$stream_output_adapter@D@__crt_stdio_output@@V?$positional_parameter_base@DV?$stream_output_adapter@D@__crt_stdio_output@@@2@@__crt_stdio_output@@QAE@ABV?$stream_output_adapter@D@1@_KQBDQAU__crt_locale_pointers@@QAD@Z 0048e340 f i libucrtd:output.obj
 0001:0008d380       ??0?$output_processor@DV?$stream_output_adapter@D@__crt_stdio_output@@V?$standard_base@DV?$stream_output_adapter@D@__crt_stdio_output@@@2@@__crt_stdio_output@@QAE@ABV?$stream_output_adapter@D@1@_KQBDQAU__crt_locale_pointers@@QAD@Z 0048e380 f i libucrtd:output.obj
 0001:0008d3c0       ??0?$output_processor@DV?$string_output_adapter@D@__crt_stdio_output@@V?$format_validation_base@DV?$string_output_adapter@D@__crt_stdio_output@@@2@@__crt_stdio_output@@QAE@ABV?$string_output_adapter@D@1@_KQBDQAU__crt_locale_pointers@@QAD@Z 0048e3c0 f i libucrtd:output.obj
 0001:0008d400       ??0?$output_processor@DV?$string_output_adapter@D@__crt_stdio_output@@V?$positional_parameter_base@DV?$string_output_adapter@D@__crt_stdio_output@@@2@@__crt_stdio_output@@QAE@ABV?$string_output_adapter@D@1@_KQBDQAU__crt_locale_pointers@@QAD@Z 0048e400 f i libucrtd:output.obj
 0001:0008d440       ??0?$output_processor@DV?$string_output_adapter@D@__crt_stdio_output@@V?$standard_base@DV?$string_output_adapter@D@__crt_stdio_output@@@2@@__crt_stdio_output@@QAE@ABV?$string_output_adapter@D@1@_KQBDQAU__crt_locale_pointers@@QAD@Z 0048e440 f i libucrtd:output.obj
 0001:0008d480       ??0?$output_processor@_WV?$stream_output_adapter@_W@__crt_stdio_output@@V?$format_validation_base@_WV?$stream_output_adapter@_W@__crt_stdio_output@@@2@@__crt_stdio_output@@QAE@ABV?$stream_output_adapter@_W@1@_KQB_WQAU__crt_locale_pointers@@QAD@Z 0048e480 f i libucrtd:output.obj
 0001:0008d4c0       ??0?$output_processor@_WV?$stream_output_adapter@_W@__crt_stdio_output@@V?$positional_parameter_base@_WV?$stream_output_adapter@_W@__crt_stdio_output@@@2@@__crt_stdio_output@@QAE@ABV?$stream_output_adapter@_W@1@_KQB_WQAU__crt_locale_pointers@@QAD@Z 0048e4c0 f i libucrtd:output.obj
 0001:0008d500       ??0?$output_processor@_WV?$stream_output_adapter@_W@__crt_stdio_output@@V?$standard_base@_WV?$stream_output_adapter@_W@__crt_stdio_output@@@2@@__crt_stdio_output@@QAE@ABV?$stream_output_adapter@_W@1@_KQB_WQAU__crt_locale_pointers@@QAD@Z 0048e500 f i libucrtd:output.obj
 0001:0008d540       ??0?$output_processor@_WV?$string_output_adapter@_W@__crt_stdio_output@@V?$format_validation_base@_WV?$string_output_adapter@_W@__crt_stdio_output@@@2@@__crt_stdio_output@@QAE@ABV?$string_output_adapter@_W@1@_KQB_WQAU__crt_locale_pointers@@QAD@Z 0048e540 f i libucrtd:output.obj
 0001:0008d580       ??0?$output_processor@_WV?$string_output_adapter@_W@__crt_stdio_output@@V?$positional_parameter_base@_WV?$string_output_adapter@_W@__crt_stdio_output@@@2@@__crt_stdio_output@@QAE@ABV?$string_output_adapter@_W@1@_KQB_WQAU__crt_locale_pointers@@QAD@Z 0048e580 f i libucrtd:output.obj
 0001:0008d5c0       ??0?$output_processor@_WV?$string_output_adapter@_W@__crt_stdio_output@@V?$standard_base@_WV?$string_output_adapter@_W@__crt_stdio_output@@@2@@__crt_stdio_output@@QAE@ABV?$string_output_adapter@_W@1@_KQB_WQAU__crt_locale_pointers@@QAD@Z 0048e5c0 f i libucrtd:output.obj
 0001:0008d600       ??0?$stream_output_adapter@D@__crt_stdio_output@@QAE@QAU_iobuf@@@Z 0048e600 f i libucrtd:output.obj
 0001:0008d630       ??0?$stream_output_adapter@_W@__crt_stdio_output@@QAE@QAU_iobuf@@@Z 0048e630 f i libucrtd:output.obj
 0001:0008d660       ??0?$string_output_adapter@D@__crt_stdio_output@@QAE@QAU?$string_output_adapter_context@D@1@@Z 0048e660 f i libucrtd:output.obj
 0001:0008d680       ??0?$string_output_adapter@_W@__crt_stdio_output@@QAE@QAU?$string_output_adapter_context@_W@1@@Z 0048e680 f i libucrtd:output.obj
 0001:0008d6a0       ??0__crt_deferred_errno_cache@@QAE@XZ 0048e6a0 f i libucrtd:output.obj
 0001:0008d6c0       ??0__crt_errno_guard@@QAE@QAH@Z 0048e6c0 f i libucrtd:output.obj
 0001:0008d700       ??0formatting_buffer@__crt_stdio_output@@QAE@XZ 0048e700 f i libucrtd:output.obj
 0001:0008d740       ??1?$common_data@D@__crt_stdio_output@@QAE@XZ 0048e740 f i libucrtd:output.obj
 0001:0008d760       ??1?$common_data@_W@__crt_stdio_output@@QAE@XZ 0048e760 f i libucrtd:output.obj
 0001:0008d780       ??1?$format_validation_base@DV?$stream_output_adapter@D@__crt_stdio_output@@@__crt_stdio_output@@QAE@XZ 0048e780 f i libucrtd:output.obj
 0001:0008d7a0       ??1?$format_validation_base@DV?$string_output_adapter@D@__crt_stdio_output@@@__crt_stdio_output@@QAE@XZ 0048e7a0 f i libucrtd:output.obj
 0001:0008d7c0       ??1?$format_validation_base@_WV?$stream_output_adapter@_W@__crt_stdio_output@@@__crt_stdio_output@@QAE@XZ 0048e7c0 f i libucrtd:output.obj
 0001:0008d7e0       ??1?$format_validation_base@_WV?$string_output_adapter@_W@__crt_stdio_output@@@__crt_stdio_output@@QAE@XZ 0048e7e0 f i libucrtd:output.obj
 0001:0008d800       ??1?$output_adapter_data@DV?$stream_output_adapter@D@__crt_stdio_output@@@__crt_stdio_output@@QAE@XZ 0048e800 f i libucrtd:output.obj
 0001:0008d820       ??1?$output_adapter_data@DV?$string_output_adapter@D@__crt_stdio_output@@@__crt_stdio_output@@QAE@XZ 0048e820 f i libucrtd:output.obj
 0001:0008d840       ??1?$output_adapter_data@_WV?$stream_output_adapter@_W@__crt_stdio_output@@@__crt_stdio_output@@QAE@XZ 0048e840 f i libucrtd:output.obj
 0001:0008d860       ??1?$output_adapter_data@_WV?$string_output_adapter@_W@__crt_stdio_output@@@__crt_stdio_output@@QAE@XZ 0048e860 f i libucrtd:output.obj
 0001:0008d880       ??1?$output_processor@DV?$stream_output_adapter@D@__crt_stdio_output@@V?$format_validation_base@DV?$stream_output_adapter@D@__crt_stdio_output@@@2@@__crt_stdio_output@@QAE@XZ 0048e880 f i libucrtd:output.obj
 0001:0008d8a0       ??1?$output_processor@DV?$stream_output_adapter@D@__crt_stdio_output@@V?$positional_parameter_base@DV?$stream_output_adapter@D@__crt_stdio_output@@@2@@__crt_stdio_output@@QAE@XZ 0048e8a0 f i libucrtd:output.obj
 0001:0008d8c0       ??1?$output_processor@DV?$stream_output_adapter@D@__crt_stdio_output@@V?$standard_base@DV?$stream_output_adapter@D@__crt_stdio_output@@@2@@__crt_stdio_output@@QAE@XZ 0048e8c0 f i libucrtd:output.obj
 0001:0008d8e0       ??1?$output_processor@DV?$string_output_adapter@D@__crt_stdio_output@@V?$format_validation_base@DV?$string_output_adapter@D@__crt_stdio_output@@@2@@__crt_stdio_output@@QAE@XZ 0048e8e0 f i libucrtd:output.obj
 0001:0008d900       ??1?$output_processor@DV?$string_output_adapter@D@__crt_stdio_output@@V?$positional_parameter_base@DV?$string_output_adapter@D@__crt_stdio_output@@@2@@__crt_stdio_output@@QAE@XZ 0048e900 f i libucrtd:output.obj
 0001:0008d920       ??1?$output_processor@DV?$string_output_adapter@D@__crt_stdio_output@@V?$standard_base@DV?$string_output_adapter@D@__crt_stdio_output@@@2@@__crt_stdio_output@@QAE@XZ 0048e920 f i libucrtd:output.obj
 0001:0008d940       ??1?$output_processor@_WV?$stream_output_adapter@_W@__crt_stdio_output@@V?$format_validation_base@_WV?$stream_output_adapter@_W@__crt_stdio_output@@@2@@__crt_stdio_output@@QAE@XZ 0048e940 f i libucrtd:output.obj
 0001:0008d960       ??1?$output_processor@_WV?$stream_output_adapter@_W@__crt_stdio_output@@V?$positional_parameter_base@_WV?$stream_output_adapter@_W@__crt_stdio_output@@@2@@__crt_stdio_output@@QAE@XZ 0048e960 f i libucrtd:output.obj
 0001:0008d980       ??1?$output_processor@_WV?$stream_output_adapter@_W@__crt_stdio_output@@V?$standard_base@_WV?$stream_output_adapter@_W@__crt_stdio_output@@@2@@__crt_stdio_output@@QAE@XZ 0048e980 f i libucrtd:output.obj
 0001:0008d9a0       ??1?$output_processor@_WV?$string_output_adapter@_W@__crt_stdio_output@@V?$format_validation_base@_WV?$string_output_adapter@_W@__crt_stdio_output@@@2@@__crt_stdio_output@@QAE@XZ 0048e9a0 f i libucrtd:output.obj
 0001:0008d9c0       ??1?$output_processor@_WV?$string_output_adapter@_W@__crt_stdio_output@@V?$positional_parameter_base@_WV?$string_output_adapter@_W@__crt_stdio_output@@@2@@__crt_stdio_output@@QAE@XZ 0048e9c0 f i libucrtd:output.obj
 0001:0008d9e0       ??1?$output_processor@_WV?$string_output_adapter@_W@__crt_stdio_output@@V?$standard_base@_WV?$string_output_adapter@_W@__crt_stdio_output@@@2@@__crt_stdio_output@@QAE@XZ 0048e9e0 f i libucrtd:output.obj
 0001:0008da00       ??1?$positional_parameter_base@DV?$stream_output_adapter@D@__crt_stdio_output@@@__crt_stdio_output@@QAE@XZ 0048ea00 f i libucrtd:output.obj
 0001:0008da20       ??1?$positional_parameter_base@DV?$string_output_adapter@D@__crt_stdio_output@@@__crt_stdio_output@@QAE@XZ 0048ea20 f i libucrtd:output.obj
 0001:0008da40       ??1?$positional_parameter_base@_WV?$stream_output_adapter@_W@__crt_stdio_output@@@__crt_stdio_output@@QAE@XZ 0048ea40 f i libucrtd:output.obj
 0001:0008da60       ??1?$positional_parameter_base@_WV?$string_output_adapter@_W@__crt_stdio_output@@@__crt_stdio_output@@QAE@XZ 0048ea60 f i libucrtd:output.obj
 0001:0008da80       ??1?$standard_base@DV?$stream_output_adapter@D@__crt_stdio_output@@@__crt_stdio_output@@QAE@XZ 0048ea80 f i libucrtd:output.obj
 0001:0008daa0       ??1?$standard_base@DV?$string_output_adapter@D@__crt_stdio_output@@@__crt_stdio_output@@QAE@XZ 0048eaa0 f i libucrtd:output.obj
 0001:0008dac0       ??1?$standard_base@_WV?$stream_output_adapter@_W@__crt_stdio_output@@@__crt_stdio_output@@QAE@XZ 0048eac0 f i libucrtd:output.obj
 0001:0008dae0       ??1?$standard_base@_WV?$string_output_adapter@_W@__crt_stdio_output@@@__crt_stdio_output@@QAE@XZ 0048eae0 f i libucrtd:output.obj
 0001:0008db00       ??1__crt_errno_guard@@QAE@XZ 0048eb00 f i libucrtd:output.obj
 0001:0008db40       ??1formatting_buffer@__crt_stdio_output@@QAE@XZ 0048eb40 f i libucrtd:output.obj
 0001:0008db70       ??4?$__crt_unique_heap_ptr@DU__crt_internal_free_policy@@@@QAEAAV0@$$QAV0@@Z 0048eb70 f i libucrtd:output.obj
 0001:0008dbb0       ??A?$spectre_mitigated_lookup_table@Ustate_transition_pair@__crt_stdio_output@@$0IA@@__crt_stdio_output@@QBEABUstate_transition_pair@1@I@Z 0048ebb0 f i libucrtd:output.obj
 0001:0008e4e0       ?adjust_hexit@?$output_processor@DV?$stream_output_adapter@D@__crt_stdio_output@@V?$format_validation_base@DV?$stream_output_adapter@D@__crt_stdio_output@@@2@@__crt_stdio_output@@CADH_N@Z 0048f4e0 f i libucrtd:output.obj
 0001:0008e530       ?adjust_hexit@?$output_processor@DV?$stream_output_adapter@D@__crt_stdio_output@@V?$positional_parameter_base@DV?$stream_output_adapter@D@__crt_stdio_output@@@2@@__crt_stdio_output@@CADH_N@Z 0048f530 f i libucrtd:output.obj
 0001:0008e580       ?adjust_hexit@?$output_processor@DV?$stream_output_adapter@D@__crt_stdio_output@@V?$standard_base@DV?$stream_output_adapter@D@__crt_stdio_output@@@2@@__crt_stdio_output@@CADH_N@Z 0048f580 f i libucrtd:output.obj
 0001:0008e5d0       ?adjust_hexit@?$output_processor@DV?$string_output_adapter@D@__crt_stdio_output@@V?$format_validation_base@DV?$string_output_adapter@D@__crt_stdio_output@@@2@@__crt_stdio_output@@CADH_N@Z 0048f5d0 f i libucrtd:output.obj
 0001:0008e620       ?adjust_hexit@?$output_processor@DV?$string_output_adapter@D@__crt_stdio_output@@V?$positional_parameter_base@DV?$string_output_adapter@D@__crt_stdio_output@@@2@@__crt_stdio_output@@CADH_N@Z 0048f620 f i libucrtd:output.obj
 0001:0008e670       ?adjust_hexit@?$output_processor@DV?$string_output_adapter@D@__crt_stdio_output@@V?$standard_base@DV?$string_output_adapter@D@__crt_stdio_output@@@2@@__crt_stdio_output@@CADH_N@Z 0048f670 f i libucrtd:output.obj
 0001:0008e6c0       ?adjust_hexit@?$output_processor@_WV?$stream_output_adapter@_W@__crt_stdio_output@@V?$format_validation_base@_WV?$stream_output_adapter@_W@__crt_stdio_output@@@2@@__crt_stdio_output@@CADH_N@Z 0048f6c0 f i libucrtd:output.obj
 0001:0008e710       ?adjust_hexit@?$output_processor@_WV?$stream_output_adapter@_W@__crt_stdio_output@@V?$positional_parameter_base@_WV?$stream_output_adapter@_W@__crt_stdio_output@@@2@@__crt_stdio_output@@CADH_N@Z 0048f710 f i libucrtd:output.obj
 0001:0008e760       ?adjust_hexit@?$output_processor@_WV?$stream_output_adapter@_W@__crt_stdio_output@@V?$standard_base@_WV?$stream_output_adapter@_W@__crt_stdio_output@@@2@@__crt_stdio_output@@CADH_N@Z 0048f760 f i libucrtd:output.obj
 0001:0008e7b0       ?adjust_hexit@?$output_processor@_WV?$string_output_adapter@_W@__crt_stdio_output@@V?$format_validation_base@_WV?$string_output_adapter@_W@__crt_stdio_output@@@2@@__crt_stdio_output@@CADH_N@Z 0048f7b0 f i libucrtd:output.obj
 0001:0008e800       ?adjust_hexit@?$output_processor@_WV?$string_output_adapter@_W@__crt_stdio_output@@V?$positional_parameter_base@_WV?$string_output_adapter@_W@__crt_stdio_output@@@2@@__crt_stdio_output@@CADH_N@Z 0048f800 f i libucrtd:output.obj
 0001:0008e850       ?adjust_hexit@?$output_processor@_WV?$string_output_adapter@_W@__crt_stdio_output@@V?$standard_base@_WV?$string_output_adapter@_W@__crt_stdio_output@@@2@@__crt_stdio_output@@CADH_N@Z 0048f850 f i libucrtd:output.obj
 0001:0008e8a0       ?advance_to_next_pass@?$positional_parameter_base@DV?$stream_output_adapter@D@__crt_stdio_output@@@__crt_stdio_output@@IAE_NXZ 0048f8a0 f i libucrtd:output.obj
 0001:0008e960       ?advance_to_next_pass@?$positional_parameter_base@DV?$string_output_adapter@D@__crt_stdio_output@@@__crt_stdio_output@@IAE_NXZ 0048f960 f i libucrtd:output.obj
 0001:0008ea20       ?advance_to_next_pass@?$positional_parameter_base@_WV?$stream_output_adapter@_W@__crt_stdio_output@@@__crt_stdio_output@@IAE_NXZ 0048fa20 f i libucrtd:output.obj
 0001:0008eae0       ?advance_to_next_pass@?$positional_parameter_base@_WV?$string_output_adapter@_W@__crt_stdio_output@@@__crt_stdio_output@@IAE_NXZ 0048fae0 f i libucrtd:output.obj
 0001:0008eba0       ?advance_to_next_pass@?$standard_base@DV?$stream_output_adapter@D@__crt_stdio_output@@@__crt_stdio_output@@IAE_NXZ 0048fba0 f i libucrtd:output.obj
 0001:0008ec00       ?advance_to_next_pass@?$standard_base@DV?$string_output_adapter@D@__crt_stdio_output@@@__crt_stdio_output@@IAE_NXZ 0048fc00 f i libucrtd:output.obj
 0001:0008ec60       ?advance_to_next_pass@?$standard_base@_WV?$stream_output_adapter@_W@__crt_stdio_output@@@__crt_stdio_output@@IAE_NXZ 0048fc60 f i libucrtd:output.obj
 0001:0008ecc0       ?advance_to_next_pass@?$standard_base@_WV?$string_output_adapter@_W@__crt_stdio_output@@@__crt_stdio_output@@IAE_NXZ 0048fcc0 f i libucrtd:output.obj
 0001:0008ed20       ?crop_zeroes@__crt_stdio_output@@YAXPADQAU__crt_locale_pointers@@@Z 0048fd20 f i libucrtd:output.obj
 0001:0008ee50       ?find_next_state@?$output_processor@DV?$stream_output_adapter@D@__crt_stdio_output@@V?$format_validation_base@DV?$stream_output_adapter@D@__crt_stdio_output@@@2@@__crt_stdio_output@@ABE?AW4state@2@DW432@@Z 0048fe50 f i libucrtd:output.obj
 0001:0008eee0       ?find_next_state@?$output_processor@DV?$stream_output_adapter@D@__crt_stdio_output@@V?$positional_parameter_base@DV?$stream_output_adapter@D@__crt_stdio_output@@@2@@__crt_stdio_output@@ABE?AW4state@2@DW432@@Z 0048fee0 f i libucrtd:output.obj
 0001:0008ef70       ?find_next_state@?$output_processor@DV?$stream_output_adapter@D@__crt_stdio_output@@V?$standard_base@DV?$stream_output_adapter@D@__crt_stdio_output@@@2@@__crt_stdio_output@@ABE?AW4state@2@DW432@@Z 0048ff70 f i libucrtd:output.obj
 0001:0008f000       ?find_next_state@?$output_processor@DV?$string_output_adapter@D@__crt_stdio_output@@V?$format_validation_base@DV?$string_output_adapter@D@__crt_stdio_output@@@2@@__crt_stdio_output@@ABE?AW4state@2@DW432@@Z 00490000 f i libucrtd:output.obj
 0001:0008f090       ?find_next_state@?$output_processor@DV?$string_output_adapter@D@__crt_stdio_output@@V?$positional_parameter_base@DV?$string_output_adapter@D@__crt_stdio_output@@@2@@__crt_stdio_output@@ABE?AW4state@2@DW432@@Z 00490090 f i libucrtd:output.obj
 0001:0008f120       ?find_next_state@?$output_processor@DV?$string_output_adapter@D@__crt_stdio_output@@V?$standard_base@DV?$string_output_adapter@D@__crt_stdio_output@@@2@@__crt_stdio_output@@ABE?AW4state@2@DW432@@Z 00490120 f i libucrtd:output.obj
 0001:0008f1b0       ?find_next_state@?$output_processor@_WV?$stream_output_adapter@_W@__crt_stdio_output@@V?$format_validation_base@_WV?$stream_output_adapter@_W@__crt_stdio_output@@@2@@__crt_stdio_output@@ABE?AW4state@2@_WW432@@Z 004901b0 f i libucrtd:output.obj
 0001:0008f240       ?find_next_state@?$output_processor@_WV?$stream_output_adapter@_W@__crt_stdio_output@@V?$positional_parameter_base@_WV?$stream_output_adapter@_W@__crt_stdio_output@@@2@@__crt_stdio_output@@ABE?AW4state@2@_WW432@@Z 00490240 f i libucrtd:output.obj
 0001:0008f2d0       ?find_next_state@?$output_processor@_WV?$stream_output_adapter@_W@__crt_stdio_output@@V?$standard_base@_WV?$stream_output_adapter@_W@__crt_stdio_output@@@2@@__crt_stdio_output@@ABE?AW4state@2@_WW432@@Z 004902d0 f i libucrtd:output.obj
 0001:0008f360       ?find_next_state@?$output_processor@_WV?$string_output_adapter@_W@__crt_stdio_output@@V?$format_validation_base@_WV?$string_output_adapter@_W@__crt_stdio_output@@@2@@__crt_stdio_output@@ABE?AW4state@2@_WW432@@Z 00490360 f i libucrtd:output.obj
 0001:0008f3f0       ?find_next_state@?$output_processor@_WV?$string_output_adapter@_W@__crt_stdio_output@@V?$positional_parameter_base@_WV?$string_output_adapter@_W@__crt_stdio_output@@@2@@__crt_stdio_output@@ABE?AW4state@2@_WW432@@Z 004903f0 f i libucrtd:output.obj
 0001:0008f480       ?find_next_state@?$output_processor@_WV?$string_output_adapter@_W@__crt_stdio_output@@V?$standard_base@_WV?$string_output_adapter@_W@__crt_stdio_output@@@2@@__crt_stdio_output@@ABE?AW4state@2@_WW432@@Z 00490480 f i libucrtd:output.obj
 0001:0008f510       ?force_decimal_point@__crt_stdio_output@@YAXPADQAU__crt_locale_pointers@@@Z 00490510 f i libucrtd:output.obj
 0001:0008f610       ?get@__crt_deferred_errno_cache@@QAEAAHXZ 00490610 f i libucrtd:output.obj
 0001:0008f640       ?get_parameter_type@?$positional_parameter_base@DV?$stream_output_adapter@D@__crt_stdio_output@@@__crt_stdio_output@@CA?AW4parameter_type@12@F@Z 00490640 f i libucrtd:output.obj
 0001:0008f650       ?get_parameter_type@?$positional_parameter_base@DV?$stream_output_adapter@D@__crt_stdio_output@@@__crt_stdio_output@@CA?AW4parameter_type@12@G@Z 00490650 f i libucrtd:output.obj
 0001:0008f660       ?get_parameter_type@?$positional_parameter_base@DV?$stream_output_adapter@D@__crt_stdio_output@@@__crt_stdio_output@@CA?AW4parameter_type@12@H@Z 00490660 f i libucrtd:output.obj
 0001:0008f670       ?get_parameter_type@?$positional_parameter_base@DV?$stream_output_adapter@D@__crt_stdio_output@@@__crt_stdio_output@@CA?AW4parameter_type@12@I@Z 00490670 f i libucrtd:output.obj
 0001:0008f680       ?get_parameter_type@?$positional_parameter_base@DV?$stream_output_adapter@D@__crt_stdio_output@@@__crt_stdio_output@@CA?AW4parameter_type@12@U_CRT_DOUBLE@@@Z 00490680 f i libucrtd:output.obj
 0001:0008f690       ?get_parameter_type@?$positional_parameter_base@DV?$stream_output_adapter@D@__crt_stdio_output@@@__crt_stdio_output@@CA?AW4parameter_type@12@_J@Z 00490690 f i libucrtd:output.obj
 0001:0008f6a0       ?get_parameter_type@?$positional_parameter_base@DV?$stream_output_adapter@D@__crt_stdio_output@@@__crt_stdio_output@@CA?AW4parameter_type@12@_K@Z 004906a0 f i libucrtd:output.obj
 0001:0008f6b0       ?get_parameter_type@?$positional_parameter_base@DV?$stream_output_adapter@D@__crt_stdio_output@@@__crt_stdio_output@@CA?AW4parameter_type@12@_W@Z 004906b0 f i libucrtd:output.obj
 0001:0008f6c0       ?get_parameter_type@?$positional_parameter_base@DV?$string_output_adapter@D@__crt_stdio_output@@@__crt_stdio_output@@CA?AW4parameter_type@12@F@Z 004906c0 f i libucrtd:output.obj
 0001:0008f6d0       ?get_parameter_type@?$positional_parameter_base@DV?$string_output_adapter@D@__crt_stdio_output@@@__crt_stdio_output@@CA?AW4parameter_type@12@G@Z 004906d0 f i libucrtd:output.obj
 0001:0008f6e0       ?get_parameter_type@?$positional_parameter_base@DV?$string_output_adapter@D@__crt_stdio_output@@@__crt_stdio_output@@CA?AW4parameter_type@12@H@Z 004906e0 f i libucrtd:output.obj
 0001:0008f6f0       ?get_parameter_type@?$positional_parameter_base@DV?$string_output_adapter@D@__crt_stdio_output@@@__crt_stdio_output@@CA?AW4parameter_type@12@I@Z 004906f0 f i libucrtd:output.obj
 0001:0008f700       ?get_parameter_type@?$positional_parameter_base@DV?$string_output_adapter@D@__crt_stdio_output@@@__crt_stdio_output@@CA?AW4parameter_type@12@U_CRT_DOUBLE@@@Z 00490700 f i libucrtd:output.obj
 0001:0008f710       ?get_parameter_type@?$positional_parameter_base@DV?$string_output_adapter@D@__crt_stdio_output@@@__crt_stdio_output@@CA?AW4parameter_type@12@_J@Z 00490710 f i libucrtd:output.obj
 0001:0008f720       ?get_parameter_type@?$positional_parameter_base@DV?$string_output_adapter@D@__crt_stdio_output@@@__crt_stdio_output@@CA?AW4parameter_type@12@_K@Z 00490720 f i libucrtd:output.obj
 0001:0008f730       ?get_parameter_type@?$positional_parameter_base@DV?$string_output_adapter@D@__crt_stdio_output@@@__crt_stdio_output@@CA?AW4parameter_type@12@_W@Z 00490730 f i libucrtd:output.obj
 0001:0008f740       ?get_parameter_type@?$positional_parameter_base@_WV?$stream_output_adapter@_W@__crt_stdio_output@@@__crt_stdio_output@@CA?AW4parameter_type@12@F@Z 00490740 f i libucrtd:output.obj
 0001:0008f750       ?get_parameter_type@?$positional_parameter_base@_WV?$stream_output_adapter@_W@__crt_stdio_output@@@__crt_stdio_output@@CA?AW4parameter_type@12@G@Z 00490750 f i libucrtd:output.obj
 0001:0008f760       ?get_parameter_type@?$positional_parameter_base@_WV?$stream_output_adapter@_W@__crt_stdio_output@@@__crt_stdio_output@@CA?AW4parameter_type@12@H@Z 00490760 f i libucrtd:output.obj
 0001:0008f770       ?get_parameter_type@?$positional_parameter_base@_WV?$stream_output_adapter@_W@__crt_stdio_output@@@__crt_stdio_output@@CA?AW4parameter_type@12@I@Z 00490770 f i libucrtd:output.obj
 0001:0008f780       ?get_parameter_type@?$positional_parameter_base@_WV?$stream_output_adapter@_W@__crt_stdio_output@@@__crt_stdio_output@@CA?AW4parameter_type@12@U_CRT_DOUBLE@@@Z 00490780 f i libucrtd:output.obj
 0001:0008f790       ?get_parameter_type@?$positional_parameter_base@_WV?$stream_output_adapter@_W@__crt_stdio_output@@@__crt_stdio_output@@CA?AW4parameter_type@12@_J@Z 00490790 f i libucrtd:output.obj
 0001:0008f7a0       ?get_parameter_type@?$positional_parameter_base@_WV?$stream_output_adapter@_W@__crt_stdio_output@@@__crt_stdio_output@@CA?AW4parameter_type@12@_K@Z 004907a0 f i libucrtd:output.obj
 0001:0008f7b0       ?get_parameter_type@?$positional_parameter_base@_WV?$stream_output_adapter@_W@__crt_stdio_output@@@__crt_stdio_output@@CA?AW4parameter_type@12@_W@Z 004907b0 f i libucrtd:output.obj
 0001:0008f7c0       ?get_parameter_type@?$positional_parameter_base@_WV?$string_output_adapter@_W@__crt_stdio_output@@@__crt_stdio_output@@CA?AW4parameter_type@12@F@Z 004907c0 f i libucrtd:output.obj
 0001:0008f7d0       ?get_parameter_type@?$positional_parameter_base@_WV?$string_output_adapter@_W@__crt_stdio_output@@@__crt_stdio_output@@CA?AW4parameter_type@12@G@Z 004907d0 f i libucrtd:output.obj
 0001:0008f7e0       ?get_parameter_type@?$positional_parameter_base@_WV?$string_output_adapter@_W@__crt_stdio_output@@@__crt_stdio_output@@CA?AW4parameter_type@12@H@Z 004907e0 f i libucrtd:output.obj
 0001:0008f7f0       ?get_parameter_type@?$positional_parameter_base@_WV?$string_output_adapter@_W@__crt_stdio_output@@@__crt_stdio_output@@CA?AW4parameter_type@12@I@Z 004907f0 f i libucrtd:output.obj
 0001:0008f800       ?get_parameter_type@?$positional_parameter_base@_WV?$string_output_adapter@_W@__crt_stdio_output@@@__crt_stdio_output@@CA?AW4parameter_type@12@U_CRT_DOUBLE@@@Z 00490800 f i libucrtd:output.obj
 0001:0008f810       ?get_parameter_type@?$positional_parameter_base@_WV?$string_output_adapter@_W@__crt_stdio_output@@@__crt_stdio_output@@CA?AW4parameter_type@12@_J@Z 00490810 f i libucrtd:output.obj
 0001:0008f820       ?get_parameter_type@?$positional_parameter_base@_WV?$string_output_adapter@_W@__crt_stdio_output@@@__crt_stdio_output@@CA?AW4parameter_type@12@_K@Z 00490820 f i libucrtd:output.obj
 0001:0008f830       ?get_parameter_type@?$positional_parameter_base@_WV?$string_output_adapter@_W@__crt_stdio_output@@@__crt_stdio_output@@CA?AW4parameter_type@12@_W@Z 00490830 f i libucrtd:output.obj
 0001:0008f840       ?has_flag@?$output_processor@DV?$stream_output_adapter@D@__crt_stdio_output@@V?$format_validation_base@DV?$stream_output_adapter@D@__crt_stdio_output@@@2@@__crt_stdio_output@@ABE_NI@Z 00490840 f i libucrtd:output.obj
 0001:0008f880       ?has_flag@?$output_processor@DV?$stream_output_adapter@D@__crt_stdio_output@@V?$positional_parameter_base@DV?$stream_output_adapter@D@__crt_stdio_output@@@2@@__crt_stdio_output@@ABE_NI@Z 00490880 f i libucrtd:output.obj
 0001:0008f8c0       ?has_flag@?$output_processor@DV?$stream_output_adapter@D@__crt_stdio_output@@V?$standard_base@DV?$stream_output_adapter@D@__crt_stdio_output@@@2@@__crt_stdio_output@@ABE_NI@Z 004908c0 f i libucrtd:output.obj
 0001:0008f900       ?has_flag@?$output_processor@DV?$string_output_adapter@D@__crt_stdio_output@@V?$format_validation_base@DV?$string_output_adapter@D@__crt_stdio_output@@@2@@__crt_stdio_output@@ABE_NI@Z 00490900 f i libucrtd:output.obj
 0001:0008f940       ?has_flag@?$output_processor@DV?$string_output_adapter@D@__crt_stdio_output@@V?$positional_parameter_base@DV?$string_output_adapter@D@__crt_stdio_output@@@2@@__crt_stdio_output@@ABE_NI@Z 00490940 f i libucrtd:output.obj
 0001:0008f980       ?has_flag@?$output_processor@DV?$string_output_adapter@D@__crt_stdio_output@@V?$standard_base@DV?$string_output_adapter@D@__crt_stdio_output@@@2@@__crt_stdio_output@@ABE_NI@Z 00490980 f i libucrtd:output.obj
 0001:0008f9c0       ?has_flag@?$output_processor@_WV?$stream_output_adapter@_W@__crt_stdio_output@@V?$format_validation_base@_WV?$stream_output_adapter@_W@__crt_stdio_output@@@2@@__crt_stdio_output@@ABE_NI@Z 004909c0 f i libucrtd:output.obj
 0001:0008fa00       ?has_flag@?$output_processor@_WV?$stream_output_adapter@_W@__crt_stdio_output@@V?$positional_parameter_base@_WV?$stream_output_adapter@_W@__crt_stdio_output@@@2@@__crt_stdio_output@@ABE_NI@Z 00490a00 f i libucrtd:output.obj
 0001:0008fa40       ?has_flag@?$output_processor@_WV?$stream_output_adapter@_W@__crt_stdio_output@@V?$standard_base@_WV?$stream_output_adapter@_W@__crt_stdio_output@@@2@@__crt_stdio_output@@ABE_NI@Z 00490a40 f i libucrtd:output.obj
 0001:0008fa80       ?has_flag@?$output_processor@_WV?$string_output_adapter@_W@__crt_stdio_output@@V?$format_validation_base@_WV?$string_output_adapter@_W@__crt_stdio_output@@@2@@__crt_stdio_output@@ABE_NI@Z 00490a80 f i libucrtd:output.obj
 0001:0008fac0       ?has_flag@?$output_processor@_WV?$string_output_adapter@_W@__crt_stdio_output@@V?$positional_parameter_base@_WV?$string_output_adapter@_W@__crt_stdio_output@@@2@@__crt_stdio_output@@ABE_NI@Z 00490ac0 f i libucrtd:output.obj
 0001:0008fb00       ?has_flag@?$output_processor@_WV?$string_output_adapter@_W@__crt_stdio_output@@V?$standard_base@_WV?$string_output_adapter@_W@__crt_stdio_output@@@2@@__crt_stdio_output@@ABE_NI@Z 00490b00 f i libucrtd:output.obj
 0001:0008fb40       ?is_positional_parameter_reappearance_consistent@?$positional_parameter_base@DV?$stream_output_adapter@D@__crt_stdio_output@@@__crt_stdio_output@@AAE_NABUparameter_data@12@W4parameter_type@12@DW4length_modifier@2@@Z 00490b40 f i libucrtd:output.obj
 0001:0008fdf0       ?is_positional_parameter_reappearance_consistent@?$positional_parameter_base@DV?$string_output_adapter@D@__crt_stdio_output@@@__crt_stdio_output@@AAE_NABUparameter_data@12@W4parameter_type@12@DW4length_modifier@2@@Z 00490df0 f i libucrtd:output.obj
 0001:000900a0       ?is_positional_parameter_reappearance_consistent@?$positional_parameter_base@_WV?$stream_output_adapter@_W@__crt_stdio_output@@@__crt_stdio_output@@AAE_NABUparameter_data@12@W4parameter_type@12@_WW4length_modifier@2@@Z 004910a0 f i libucrtd:output.obj
 0001:00090350       ?is_positional_parameter_reappearance_consistent@?$positional_parameter_base@_WV?$string_output_adapter@_W@__crt_stdio_output@@@__crt_stdio_output@@AAE_NABUparameter_data@12@W4parameter_type@12@_WW4length_modifier@2@@Z 00491350 f i libucrtd:output.obj
 0001:00090600       ?narrow_null_string@?$output_processor@DV?$stream_output_adapter@D@__crt_stdio_output@@V?$format_validation_base@DV?$stream_output_adapter@D@__crt_stdio_output@@@2@@__crt_stdio_output@@CAPADXZ 00491600 f i libucrtd:output.obj
 0001:00090610       ?narrow_null_string@?$output_processor@DV?$stream_output_adapter@D@__crt_stdio_output@@V?$positional_parameter_base@DV?$stream_output_adapter@D@__crt_stdio_output@@@2@@__crt_stdio_output@@CAPADXZ 00491610 f i libucrtd:output.obj
 0001:00090620       ?narrow_null_string@?$output_processor@DV?$stream_output_adapter@D@__crt_stdio_output@@V?$standard_base@DV?$stream_output_adapter@D@__crt_stdio_output@@@2@@__crt_stdio_output@@CAPADXZ 00491620 f i libucrtd:output.obj
 0001:00090630       ?narrow_null_string@?$output_processor@DV?$string_output_adapter@D@__crt_stdio_output@@V?$format_validation_base@DV?$string_output_adapter@D@__crt_stdio_output@@@2@@__crt_stdio_output@@CAPADXZ 00491630 f i libucrtd:output.obj
 0001:00090640       ?narrow_null_string@?$output_processor@DV?$string_output_adapter@D@__crt_stdio_output@@V?$positional_parameter_base@DV?$string_output_adapter@D@__crt_stdio_output@@@2@@__crt_stdio_output@@CAPADXZ 00491640 f i libucrtd:output.obj
 0001:00090650       ?narrow_null_string@?$output_processor@DV?$string_output_adapter@D@__crt_stdio_output@@V?$standard_base@DV?$string_output_adapter@D@__crt_stdio_output@@@2@@__crt_stdio_output@@CAPADXZ 00491650 f i libucrtd:output.obj
 0001:00090660       ?narrow_null_string@?$output_processor@_WV?$stream_output_adapter@_W@__crt_stdio_output@@V?$format_validation_base@_WV?$stream_output_adapter@_W@__crt_stdio_output@@@2@@__crt_stdio_output@@CAPADXZ 00491660 f i libucrtd:output.obj
 0001:00090670       ?narrow_null_string@?$output_processor@_WV?$stream_output_adapter@_W@__crt_stdio_output@@V?$positional_parameter_base@_WV?$stream_output_adapter@_W@__crt_stdio_output@@@2@@__crt_stdio_output@@CAPADXZ 00491670 f i libucrtd:output.obj
 0001:00090680       ?narrow_null_string@?$output_processor@_WV?$stream_output_adapter@_W@__crt_stdio_output@@V?$standard_base@_WV?$stream_output_adapter@_W@__crt_stdio_output@@@2@@__crt_stdio_output@@CAPADXZ 00491680 f i libucrtd:output.obj
 0001:00090690       ?narrow_null_string@?$output_processor@_WV?$string_output_adapter@_W@__crt_stdio_output@@V?$format_validation_base@_WV?$string_output_adapter@_W@__crt_stdio_output@@@2@@__crt_stdio_output@@CAPADXZ 00491690 f i libucrtd:output.obj
 0001:000906a0       ?narrow_null_string@?$output_processor@_WV?$string_output_adapter@_W@__crt_stdio_output@@V?$positional_parameter_base@_WV?$string_output_adapter@_W@__crt_stdio_output@@@2@@__crt_stdio_output@@CAPADXZ 004916a0 f i libucrtd:output.obj
 0001:000906b0       ?narrow_null_string@?$output_processor@_WV?$string_output_adapter@_W@__crt_stdio_output@@V?$standard_base@_WV?$string_output_adapter@_W@__crt_stdio_output@@@2@@__crt_stdio_output@@CAPADXZ 004916b0 f i libucrtd:output.obj
 0001:000906c0       ?parse_int_from_format_string@?$output_processor@DV?$stream_output_adapter@D@__crt_stdio_output@@V?$format_validation_base@DV?$stream_output_adapter@D@__crt_stdio_output@@@2@@__crt_stdio_output@@AAE_NQAH@Z 004916c0 f i libucrtd:output.obj
 0001:000907a0       ?parse_int_from_format_string@?$output_processor@DV?$stream_output_adapter@D@__crt_stdio_output@@V?$positional_parameter_base@DV?$stream_output_adapter@D@__crt_stdio_output@@@2@@__crt_stdio_output@@AAE_NQAH@Z 004917a0 f i libucrtd:output.obj
 0001:00090880       ?parse_int_from_format_string@?$output_processor@DV?$stream_output_adapter@D@__crt_stdio_output@@V?$standard_base@DV?$stream_output_adapter@D@__crt_stdio_output@@@2@@__crt_stdio_output@@AAE_NQAH@Z 00491880 f i libucrtd:output.obj
 0001:00090960       ?parse_int_from_format_string@?$output_processor@DV?$string_output_adapter@D@__crt_stdio_output@@V?$format_validation_base@DV?$string_output_adapter@D@__crt_stdio_output@@@2@@__crt_stdio_output@@AAE_NQAH@Z 00491960 f i libucrtd:output.obj
 0001:00090a40       ?parse_int_from_format_string@?$output_processor@DV?$string_output_adapter@D@__crt_stdio_output@@V?$positional_parameter_base@DV?$string_output_adapter@D@__crt_stdio_output@@@2@@__crt_stdio_output@@AAE_NQAH@Z 00491a40 f i libucrtd:output.obj
 0001:00090b20       ?parse_int_from_format_string@?$output_processor@DV?$string_output_adapter@D@__crt_stdio_output@@V?$standard_base@DV?$string_output_adapter@D@__crt_stdio_output@@@2@@__crt_stdio_output@@AAE_NQAH@Z 00491b20 f i libucrtd:output.obj
 0001:00090c00       ?parse_int_from_format_string@?$output_processor@_WV?$stream_output_adapter@_W@__crt_stdio_output@@V?$format_validation_base@_WV?$stream_output_adapter@_W@__crt_stdio_output@@@2@@__crt_stdio_output@@AAE_NQAH@Z 00491c00 f i libucrtd:output.obj
 0001:00090ce0       ?parse_int_from_format_string@?$output_processor@_WV?$stream_output_adapter@_W@__crt_stdio_output@@V?$positional_parameter_base@_WV?$stream_output_adapter@_W@__crt_stdio_output@@@2@@__crt_stdio_output@@AAE_NQAH@Z 00491ce0 f i libucrtd:output.obj
 0001:00090dc0       ?parse_int_from_format_string@?$output_processor@_WV?$stream_output_adapter@_W@__crt_stdio_output@@V?$standard_base@_WV?$stream_output_adapter@_W@__crt_stdio_output@@@2@@__crt_stdio_output@@AAE_NQAH@Z 00491dc0 f i libucrtd:output.obj
 0001:00090ea0       ?parse_int_from_format_string@?$output_processor@_WV?$string_output_adapter@_W@__crt_stdio_output@@V?$format_validation_base@_WV?$string_output_adapter@_W@__crt_stdio_output@@@2@@__crt_stdio_output@@AAE_NQAH@Z 00491ea0 f i libucrtd:output.obj
 0001:00090f80       ?parse_int_from_format_string@?$output_processor@_WV?$string_output_adapter@_W@__crt_stdio_output@@V?$positional_parameter_base@_WV?$string_output_adapter@_W@__crt_stdio_output@@@2@@__crt_stdio_output@@AAE_NQAH@Z 00491f80 f i libucrtd:output.obj
 0001:00091060       ?parse_int_from_format_string@?$output_processor@_WV?$string_output_adapter@_W@__crt_stdio_output@@V?$standard_base@_WV?$string_output_adapter@_W@__crt_stdio_output@@@2@@__crt_stdio_output@@AAE_NQAH@Z 00492060 f i libucrtd:output.obj
 0001:00091140       ?process@?$output_processor@DV?$stream_output_adapter@D@__crt_stdio_output@@V?$format_validation_base@DV?$stream_output_adapter@D@__crt_stdio_output@@@2@@__crt_stdio_output@@QAEHXZ 00492140 f i libucrtd:output.obj
 0001:00091490       ?process@?$output_processor@DV?$stream_output_adapter@D@__crt_stdio_output@@V?$positional_parameter_base@DV?$stream_output_adapter@D@__crt_stdio_output@@@2@@__crt_stdio_output@@QAEHXZ 00492490 f i libucrtd:output.obj
 0001:000917e0       ?process@?$output_processor@DV?$stream_output_adapter@D@__crt_stdio_output@@V?$standard_base@DV?$stream_output_adapter@D@__crt_stdio_output@@@2@@__crt_stdio_output@@QAEHXZ 004927e0 f i libucrtd:output.obj
 0001:00091b30       ?process@?$output_processor@DV?$string_output_adapter@D@__crt_stdio_output@@V?$format_validation_base@DV?$string_output_adapter@D@__crt_stdio_output@@@2@@__crt_stdio_output@@QAEHXZ 00492b30 f i libucrtd:output.obj
 0001:00091e80       ?process@?$output_processor@DV?$string_output_adapter@D@__crt_stdio_output@@V?$positional_parameter_base@DV?$string_output_adapter@D@__crt_stdio_output@@@2@@__crt_stdio_output@@QAEHXZ 00492e80 f i libucrtd:output.obj
 0001:000921d0       ?process@?$output_processor@DV?$string_output_adapter@D@__crt_stdio_output@@V?$standard_base@DV?$string_output_adapter@D@__crt_stdio_output@@@2@@__crt_stdio_output@@QAEHXZ 004931d0 f i libucrtd:output.obj
 0001:00092520       ?process@?$output_processor@_WV?$stream_output_adapter@_W@__crt_stdio_output@@V?$format_validation_base@_WV?$stream_output_adapter@_W@__crt_stdio_output@@@2@@__crt_stdio_output@@QAEHXZ 00493520 f i libucrtd:output.obj
 0001:00092870       ?process@?$output_processor@_WV?$stream_output_adapter@_W@__crt_stdio_output@@V?$positional_parameter_base@_WV?$stream_output_adapter@_W@__crt_stdio_output@@@2@@__crt_stdio_output@@QAEHXZ 00493870 f i libucrtd:output.obj
 0001:00092bc0       ?process@?$output_processor@_WV?$stream_output_adapter@_W@__crt_stdio_output@@V?$standard_base@_WV?$stream_output_adapter@_W@__crt_stdio_output@@@2@@__crt_stdio_output@@QAEHXZ 00493bc0 f i libucrtd:output.obj
 0001:00092f10       ?process@?$output_processor@_WV?$string_output_adapter@_W@__crt_stdio_output@@V?$format_validation_base@_WV?$string_output_adapter@_W@__crt_stdio_output@@@2@@__crt_stdio_output@@QAEHXZ 00493f10 f i libucrtd:output.obj
 0001:00093260       ?process@?$output_processor@_WV?$string_output_adapter@_W@__crt_stdio_output@@V?$positional_parameter_base@_WV?$string_output_adapter@_W@__crt_stdio_output@@@2@@__crt_stdio_output@@QAEHXZ 00494260 f i libucrtd:output.obj
 0001:000935b0       ?process@?$output_processor@_WV?$string_output_adapter@_W@__crt_stdio_output@@V?$standard_base@_WV?$string_output_adapter@_W@__crt_stdio_output@@@2@@__crt_stdio_output@@QAEHXZ 004945b0 f i libucrtd:output.obj
 0001:00093900       ?set_flag@?$output_processor@DV?$stream_output_adapter@D@__crt_stdio_output@@V?$format_validation_base@DV?$stream_output_adapter@D@__crt_stdio_output@@@2@@__crt_stdio_output@@AAEXI@Z 00494900 f i libucrtd:output.obj
 0001:00093930       ?set_flag@?$output_processor@DV?$stream_output_adapter@D@__crt_stdio_output@@V?$positional_parameter_base@DV?$stream_output_adapter@D@__crt_stdio_output@@@2@@__crt_stdio_output@@AAEXI@Z 00494930 f i libucrtd:output.obj
 0001:00093960       ?set_flag@?$output_processor@DV?$stream_output_adapter@D@__crt_stdio_output@@V?$standard_base@DV?$stream_output_adapter@D@__crt_stdio_output@@@2@@__crt_stdio_output@@AAEXI@Z 00494960 f i libucrtd:output.obj
 0001:00093990       ?set_flag@?$output_processor@DV?$string_output_adapter@D@__crt_stdio_output@@V?$format_validation_base@DV?$string_output_adapter@D@__crt_stdio_output@@@2@@__crt_stdio_output@@AAEXI@Z 00494990 f i libucrtd:output.obj
 0001:000939c0       ?set_flag@?$output_processor@DV?$string_output_adapter@D@__crt_stdio_output@@V?$positional_parameter_base@DV?$string_output_adapter@D@__crt_stdio_output@@@2@@__crt_stdio_output@@AAEXI@Z 004949c0 f i libucrtd:output.obj
 0001:000939f0       ?set_flag@?$output_processor@DV?$string_output_adapter@D@__crt_stdio_output@@V?$standard_base@DV?$string_output_adapter@D@__crt_stdio_output@@@2@@__crt_stdio_output@@AAEXI@Z 004949f0 f i libucrtd:output.obj
 0001:00093a20       ?set_flag@?$output_processor@_WV?$stream_output_adapter@_W@__crt_stdio_output@@V?$format_validation_base@_WV?$stream_output_adapter@_W@__crt_stdio_output@@@2@@__crt_stdio_output@@AAEXI@Z 00494a20 f i libucrtd:output.obj
 0001:00093a50       ?set_flag@?$output_processor@_WV?$stream_output_adapter@_W@__crt_stdio_output@@V?$positional_parameter_base@_WV?$stream_output_adapter@_W@__crt_stdio_output@@@2@@__crt_stdio_output@@AAEXI@Z 00494a50 f i libucrtd:output.obj
 0001:00093a80       ?set_flag@?$output_processor@_WV?$stream_output_adapter@_W@__crt_stdio_output@@V?$standard_base@_WV?$stream_output_adapter@_W@__crt_stdio_output@@@2@@__crt_stdio_output@@AAEXI@Z 00494a80 f i libucrtd:output.obj
 0001:00093ab0       ?set_flag@?$output_processor@_WV?$string_output_adapter@_W@__crt_stdio_output@@V?$format_validation_base@_WV?$string_output_adapter@_W@__crt_stdio_output@@@2@@__crt_stdio_output@@AAEXI@Z 00494ab0 f i libucrtd:output.obj
 0001:00093ae0       ?set_flag@?$output_processor@_WV?$string_output_adapter@_W@__crt_stdio_output@@V?$positional_parameter_base@_WV?$string_output_adapter@_W@__crt_stdio_output@@@2@@__crt_stdio_output@@AAEXI@Z 00494ae0 f i libucrtd:output.obj
 0001:00093b10       ?set_flag@?$output_processor@_WV?$string_output_adapter@_W@__crt_stdio_output@@V?$standard_base@_WV?$string_output_adapter@_W@__crt_stdio_output@@@2@@__crt_stdio_output@@AAEXI@Z 00494b10 f i libucrtd:output.obj
 0001:00093b40       ?should_format@?$positional_parameter_base@DV?$stream_output_adapter@D@__crt_stdio_output@@@__crt_stdio_output@@IAE_NXZ 00494b40 f i libucrtd:output.obj
 0001:00093b90       ?should_format@?$positional_parameter_base@DV?$string_output_adapter@D@__crt_stdio_output@@@__crt_stdio_output@@IAE_NXZ 00494b90 f i libucrtd:output.obj
 0001:00093be0       ?should_format@?$positional_parameter_base@_WV?$stream_output_adapter@_W@__crt_stdio_output@@@__crt_stdio_output@@IAE_NXZ 00494be0 f i libucrtd:output.obj
 0001:00093c30       ?should_format@?$positional_parameter_base@_WV?$string_output_adapter@_W@__crt_stdio_output@@@__crt_stdio_output@@IAE_NXZ 00494c30 f i libucrtd:output.obj
 0001:00093c80       ?should_format@?$standard_base@DV?$stream_output_adapter@D@__crt_stdio_output@@@__crt_stdio_output@@IAE_NXZ 00494c80 f i libucrtd:output.obj
 0001:00093ca0       ?should_format@?$standard_base@DV?$string_output_adapter@D@__crt_stdio_output@@@__crt_stdio_output@@IAE_NXZ 00494ca0 f i libucrtd:output.obj
 0001:00093cc0       ?should_format@?$standard_base@_WV?$stream_output_adapter@_W@__crt_stdio_output@@@__crt_stdio_output@@IAE_NXZ 00494cc0 f i libucrtd:output.obj
 0001:00093ce0       ?should_format@?$standard_base@_WV?$string_output_adapter@_W@__crt_stdio_output@@@__crt_stdio_output@@IAE_NXZ 00494ce0 f i libucrtd:output.obj
 0001:00093d00       ?should_skip_normal_state_processing@?$positional_parameter_base@DV?$stream_output_adapter@D@__crt_stdio_output@@@__crt_stdio_output@@IAE_NXZ 00494d00 f i libucrtd:output.obj
 0001:00093d60       ?should_skip_normal_state_processing@?$positional_parameter_base@DV?$string_output_adapter@D@__crt_stdio_output@@@__crt_stdio_output@@IAE_NXZ 00494d60 f i libucrtd:output.obj
 0001:00093dc0       ?should_skip_normal_state_processing@?$positional_parameter_base@_WV?$stream_output_adapter@_W@__crt_stdio_output@@@__crt_stdio_output@@IAE_NXZ 00494dc0 f i libucrtd:output.obj
 0001:00093e20       ?should_skip_normal_state_processing@?$positional_parameter_base@_WV?$string_output_adapter@_W@__crt_stdio_output@@@__crt_stdio_output@@IAE_NXZ 00494e20 f i libucrtd:output.obj
 0001:00093e80       ?should_skip_normal_state_processing@?$standard_base@DV?$stream_output_adapter@D@__crt_stdio_output@@@__crt_stdio_output@@IAE_NXZ 00494e80 f i libucrtd:output.obj
 0001:00093ea0       ?should_skip_normal_state_processing@?$standard_base@DV?$string_output_adapter@D@__crt_stdio_output@@@__crt_stdio_output@@IAE_NXZ 00494ea0 f i libucrtd:output.obj
 0001:00093ec0       ?should_skip_normal_state_processing@?$standard_base@_WV?$stream_output_adapter@_W@__crt_stdio_output@@@__crt_stdio_output@@IAE_NXZ 00494ec0 f i libucrtd:output.obj
 0001:00093ee0       ?should_skip_normal_state_processing@?$standard_base@_WV?$string_output_adapter@_W@__crt_stdio_output@@@__crt_stdio_output@@IAE_NXZ 00494ee0 f i libucrtd:output.obj
 0001:00093f00       ?should_skip_type_state_output@?$positional_parameter_base@DV?$stream_output_adapter@D@__crt_stdio_output@@@__crt_stdio_output@@IBE_NXZ 00494f00 f i libucrtd:output.obj
 0001:00093f50       ?should_skip_type_state_output@?$positional_parameter_base@DV?$string_output_adapter@D@__crt_stdio_output@@@__crt_stdio_output@@IBE_NXZ 00494f50 f i libucrtd:output.obj
 0001:00093fa0       ?should_skip_type_state_output@?$positional_parameter_base@_WV?$stream_output_adapter@_W@__crt_stdio_output@@@__crt_stdio_output@@IBE_NXZ 00494fa0 f i libucrtd:output.obj
 0001:00093ff0       ?should_skip_type_state_output@?$positional_parameter_base@_WV?$string_output_adapter@_W@__crt_stdio_output@@@__crt_stdio_output@@IBE_NXZ 00494ff0 f i libucrtd:output.obj
 0001:00094040       ?should_skip_type_state_output@?$standard_base@DV?$stream_output_adapter@D@__crt_stdio_output@@@__crt_stdio_output@@IBE_NXZ 00495040 f i libucrtd:output.obj
 0001:00094060       ?should_skip_type_state_output@?$standard_base@DV?$string_output_adapter@D@__crt_stdio_output@@@__crt_stdio_output@@IBE_NXZ 00495060 f i libucrtd:output.obj
 0001:00094080       ?should_skip_type_state_output@?$standard_base@_WV?$stream_output_adapter@_W@__crt_stdio_output@@@__crt_stdio_output@@IBE_NXZ 00495080 f i libucrtd:output.obj
 0001:000940a0       ?should_skip_type_state_output@?$standard_base@_WV?$string_output_adapter@_W@__crt_stdio_output@@@__crt_stdio_output@@IBE_NXZ 004950a0 f i libucrtd:output.obj
 0001:000940c0       ?state_case_dot@?$output_processor@DV?$stream_output_adapter@D@__crt_stdio_output@@V?$format_validation_base@DV?$stream_output_adapter@D@__crt_stdio_output@@@2@@__crt_stdio_output@@AAE_NXZ 004950c0 f i libucrtd:output.obj
 0001:000940e0       ?state_case_dot@?$output_processor@DV?$stream_output_adapter@D@__crt_stdio_output@@V?$positional_parameter_base@DV?$stream_output_adapter@D@__crt_stdio_output@@@2@@__crt_stdio_output@@AAE_NXZ 004950e0 f i libucrtd:output.obj
 0001:00094100       ?state_case_dot@?$output_processor@DV?$stream_output_adapter@D@__crt_stdio_output@@V?$standard_base@DV?$stream_output_adapter@D@__crt_stdio_output@@@2@@__crt_stdio_output@@AAE_NXZ 00495100 f i libucrtd:output.obj
 0001:00094120       ?state_case_dot@?$output_processor@DV?$string_output_adapter@D@__crt_stdio_output@@V?$format_validation_base@DV?$string_output_adapter@D@__crt_stdio_output@@@2@@__crt_stdio_output@@AAE_NXZ 00495120 f i libucrtd:output.obj
 0001:00094140       ?state_case_dot@?$output_processor@DV?$string_output_adapter@D@__crt_stdio_output@@V?$positional_parameter_base@DV?$string_output_adapter@D@__crt_stdio_output@@@2@@__crt_stdio_output@@AAE_NXZ 00495140 f i libucrtd:output.obj
 0001:00094160       ?state_case_dot@?$output_processor@DV?$string_output_adapter@D@__crt_stdio_output@@V?$standard_base@DV?$string_output_adapter@D@__crt_stdio_output@@@2@@__crt_stdio_output@@AAE_NXZ 00495160 f i libucrtd:output.obj
 0001:00094180       ?state_case_dot@?$output_processor@_WV?$stream_output_adapter@_W@__crt_stdio_output@@V?$format_validation_base@_WV?$stream_output_adapter@_W@__crt_stdio_output@@@2@@__crt_stdio_output@@AAE_NXZ 00495180 f i libucrtd:output.obj
 0001:000941a0       ?state_case_dot@?$output_processor@_WV?$stream_output_adapter@_W@__crt_stdio_output@@V?$positional_parameter_base@_WV?$stream_output_adapter@_W@__crt_stdio_output@@@2@@__crt_stdio_output@@AAE_NXZ 004951a0 f i libucrtd:output.obj
 0001:000941c0       ?state_case_dot@?$output_processor@_WV?$stream_output_adapter@_W@__crt_stdio_output@@V?$standard_base@_WV?$stream_output_adapter@_W@__crt_stdio_output@@@2@@__crt_stdio_output@@AAE_NXZ 004951c0 f i libucrtd:output.obj
 0001:000941e0       ?state_case_dot@?$output_processor@_WV?$string_output_adapter@_W@__crt_stdio_output@@V?$format_validation_base@_WV?$string_output_adapter@_W@__crt_stdio_output@@@2@@__crt_stdio_output@@AAE_NXZ 004951e0 f i libucrtd:output.obj
 0001:00094200       ?state_case_dot@?$output_processor@_WV?$string_output_adapter@_W@__crt_stdio_output@@V?$positional_parameter_base@_WV?$string_output_adapter@_W@__crt_stdio_output@@@2@@__crt_stdio_output@@AAE_NXZ 00495200 f i libucrtd:output.obj
 0001:00094220       ?state_case_dot@?$output_processor@_WV?$string_output_adapter@_W@__crt_stdio_output@@V?$standard_base@_WV?$string_output_adapter@_W@__crt_stdio_output@@@2@@__crt_stdio_output@@AAE_NXZ 00495220 f i libucrtd:output.obj
 0001:00094240       ?state_case_flag@?$output_processor@DV?$stream_output_adapter@D@__crt_stdio_output@@V?$format_validation_base@DV?$stream_output_adapter@D@__crt_stdio_output@@@2@@__crt_stdio_output@@AAE_NXZ 00495240 f i libucrtd:output.obj
 0001:00094310       ?state_case_flag@?$output_processor@DV?$stream_output_adapter@D@__crt_stdio_output@@V?$positional_parameter_base@DV?$stream_output_adapter@D@__crt_stdio_output@@@2@@__crt_stdio_output@@AAE_NXZ 00495310 f i libucrtd:output.obj
 0001:000943e0       ?state_case_flag@?$output_processor@DV?$stream_output_adapter@D@__crt_stdio_output@@V?$standard_base@DV?$stream_output_adapter@D@__crt_stdio_output@@@2@@__crt_stdio_output@@AAE_NXZ 004953e0 f i libucrtd:output.obj
 0001:000944b0       ?state_case_flag@?$output_processor@DV?$string_output_adapter@D@__crt_stdio_output@@V?$format_validation_base@DV?$string_output_adapter@D@__crt_stdio_output@@@2@@__crt_stdio_output@@AAE_NXZ 004954b0 f i libucrtd:output.obj
 0001:00094580       ?state_case_flag@?$output_processor@DV?$string_output_adapter@D@__crt_stdio_output@@V?$positional_parameter_base@DV?$string_output_adapter@D@__crt_stdio_output@@@2@@__crt_stdio_output@@AAE_NXZ 00495580 f i libucrtd:output.obj
 0001:00094650       ?state_case_flag@?$output_processor@DV?$string_output_adapter@D@__crt_stdio_output@@V?$standard_base@DV?$string_output_adapter@D@__crt_stdio_output@@@2@@__crt_stdio_output@@AAE_NXZ 00495650 f i libucrtd:output.obj
 0001:00094720       ?state_case_flag@?$output_processor@_WV?$stream_output_adapter@_W@__crt_stdio_output@@V?$format_validation_base@_WV?$stream_output_adapter@_W@__crt_stdio_output@@@2@@__crt_stdio_output@@AAE_NXZ 00495720 f i libucrtd:output.obj
 0001:000947f0       ?state_case_flag@?$output_processor@_WV?$stream_output_adapter@_W@__crt_stdio_output@@V?$positional_parameter_base@_WV?$stream_output_adapter@_W@__crt_stdio_output@@@2@@__crt_stdio_output@@AAE_NXZ 004957f0 f i libucrtd:output.obj
 0001:000948c0       ?state_case_flag@?$output_processor@_WV?$stream_output_adapter@_W@__crt_stdio_output@@V?$standard_base@_WV?$stream_output_adapter@_W@__crt_stdio_output@@@2@@__crt_stdio_output@@AAE_NXZ 004958c0 f i libucrtd:output.obj
 0001:00094990       ?state_case_flag@?$output_processor@_WV?$string_output_adapter@_W@__crt_stdio_output@@V?$format_validation_base@_WV?$string_output_adapter@_W@__crt_stdio_output@@@2@@__crt_stdio_output@@AAE_NXZ 00495990 f i libucrtd:output.obj
 0001:00094a60       ?state_case_flag@?$output_processor@_WV?$string_output_adapter@_W@__crt_stdio_output@@V?$positional_parameter_base@_WV?$string_output_adapter@_W@__crt_stdio_output@@@2@@__crt_stdio_output@@AAE_NXZ 00495a60 f i libucrtd:output.obj
 0001:00094b30       ?state_case_flag@?$output_processor@_WV?$string_output_adapter@_W@__crt_stdio_output@@V?$standard_base@_WV?$string_output_adapter@_W@__crt_stdio_output@@@2@@__crt_stdio_output@@AAE_NXZ 00495b30 f i libucrtd:output.obj
 0001:00094c00       ?state_case_normal@?$output_processor@DV?$stream_output_adapter@D@__crt_stdio_output@@V?$format_validation_base@DV?$stream_output_adapter@D@__crt_stdio_output@@@2@@__crt_stdio_output@@AAE_NXZ 00495c00 f i libucrtd:output.obj
 0001:00094ce0       ?state_case_normal@?$output_processor@DV?$stream_output_adapter@D@__crt_stdio_output@@V?$positional_parameter_base@DV?$stream_output_adapter@D@__crt_stdio_output@@@2@@__crt_stdio_output@@AAE_NXZ 00495ce0 f i libucrtd:output.obj
 0001:00094dc0       ?state_case_normal@?$output_processor@DV?$stream_output_adapter@D@__crt_stdio_output@@V?$standard_base@DV?$stream_output_adapter@D@__crt_stdio_output@@@2@@__crt_stdio_output@@AAE_NXZ 00495dc0 f i libucrtd:output.obj
 0001:00094ea0       ?state_case_normal@?$output_processor@DV?$string_output_adapter@D@__crt_stdio_output@@V?$format_validation_base@DV?$string_output_adapter@D@__crt_stdio_output@@@2@@__crt_stdio_output@@AAE_NXZ 00495ea0 f i libucrtd:output.obj
 0001:00094f80       ?state_case_normal@?$output_processor@DV?$string_output_adapter@D@__crt_stdio_output@@V?$positional_parameter_base@DV?$string_output_adapter@D@__crt_stdio_output@@@2@@__crt_stdio_output@@AAE_NXZ 00495f80 f i libucrtd:output.obj
 0001:00095060       ?state_case_normal@?$output_processor@DV?$string_output_adapter@D@__crt_stdio_output@@V?$standard_base@DV?$string_output_adapter@D@__crt_stdio_output@@@2@@__crt_stdio_output@@AAE_NXZ 00496060 f i libucrtd:output.obj
 0001:00095140       ?state_case_normal@?$output_processor@_WV?$stream_output_adapter@_W@__crt_stdio_output@@V?$format_validation_base@_WV?$stream_output_adapter@_W@__crt_stdio_output@@@2@@__crt_stdio_output@@AAE_NXZ 00496140 f i libucrtd:output.obj
 0001:00095220       ?state_case_normal@?$output_processor@_WV?$stream_output_adapter@_W@__crt_stdio_output@@V?$positional_parameter_base@_WV?$stream_output_adapter@_W@__crt_stdio_output@@@2@@__crt_stdio_output@@AAE_NXZ 00496220 f i libucrtd:output.obj
 0001:00095300       ?state_case_normal@?$output_processor@_WV?$stream_output_adapter@_W@__crt_stdio_output@@V?$standard_base@_WV?$stream_output_adapter@_W@__crt_stdio_output@@@2@@__crt_stdio_output@@AAE_NXZ 00496300 f i libucrtd:output.obj
 0001:000953e0       ?state_case_normal@?$output_processor@_WV?$string_output_adapter@_W@__crt_stdio_output@@V?$format_validation_base@_WV?$string_output_adapter@_W@__crt_stdio_output@@@2@@__crt_stdio_output@@AAE_NXZ 004963e0 f i libucrtd:output.obj
 0001:000954c0       ?state_case_normal@?$output_processor@_WV?$string_output_adapter@_W@__crt_stdio_output@@V?$positional_parameter_base@_WV?$string_output_adapter@_W@__crt_stdio_output@@@2@@__crt_stdio_output@@AAE_NXZ 004964c0 f i libucrtd:output.obj
 0001:000955a0       ?state_case_normal@?$output_processor@_WV?$string_output_adapter@_W@__crt_stdio_output@@V?$standard_base@_WV?$string_output_adapter@_W@__crt_stdio_output@@@2@@__crt_stdio_output@@AAE_NXZ 004965a0 f i libucrtd:output.obj
 0001:00095680       ?state_case_normal_common@?$output_processor@DV?$stream_output_adapter@D@__crt_stdio_output@@V?$format_validation_base@DV?$stream_output_adapter@D@__crt_stdio_output@@@2@@__crt_stdio_output@@AAE_NXZ 00496680 f i libucrtd:output.obj
 0001:000956e0       ?state_case_normal_common@?$output_processor@DV?$stream_output_adapter@D@__crt_stdio_output@@V?$positional_parameter_base@DV?$stream_output_adapter@D@__crt_stdio_output@@@2@@__crt_stdio_output@@AAE_NXZ 004966e0 f i libucrtd:output.obj
 0001:00095740       ?state_case_normal_common@?$output_processor@DV?$stream_output_adapter@D@__crt_stdio_output@@V?$standard_base@DV?$stream_output_adapter@D@__crt_stdio_output@@@2@@__crt_stdio_output@@AAE_NXZ 00496740 f i libucrtd:output.obj
 0001:000957a0       ?state_case_normal_common@?$output_processor@DV?$string_output_adapter@D@__crt_stdio_output@@V?$format_validation_base@DV?$string_output_adapter@D@__crt_stdio_output@@@2@@__crt_stdio_output@@AAE_NXZ 004967a0 f i libucrtd:output.obj
 0001:00095800       ?state_case_normal_common@?$output_processor@DV?$string_output_adapter@D@__crt_stdio_output@@V?$positional_parameter_base@DV?$string_output_adapter@D@__crt_stdio_output@@@2@@__crt_stdio_output@@AAE_NXZ 00496800 f i libucrtd:output.obj
 0001:00095860       ?state_case_normal_common@?$output_processor@DV?$string_output_adapter@D@__crt_stdio_output@@V?$standard_base@DV?$string_output_adapter@D@__crt_stdio_output@@@2@@__crt_stdio_output@@AAE_NXZ 00496860 f i libucrtd:output.obj
 0001:000958c0       ?state_case_normal_common@?$output_processor@_WV?$stream_output_adapter@_W@__crt_stdio_output@@V?$format_validation_base@_WV?$stream_output_adapter@_W@__crt_stdio_output@@@2@@__crt_stdio_output@@AAE_NXZ 004968c0 f i libucrtd:output.obj
 0001:00095920       ?state_case_normal_common@?$output_processor@_WV?$stream_output_adapter@_W@__crt_stdio_output@@V?$positional_parameter_base@_WV?$stream_output_adapter@_W@__crt_stdio_output@@@2@@__crt_stdio_output@@AAE_NXZ 00496920 f i libucrtd:output.obj
 0001:00095980       ?state_case_normal_common@?$output_processor@_WV?$stream_output_adapter@_W@__crt_stdio_output@@V?$standard_base@_WV?$stream_output_adapter@_W@__crt_stdio_output@@@2@@__crt_stdio_output@@AAE_NXZ 00496980 f i libucrtd:output.obj
 0001:000959e0       ?state_case_normal_common@?$output_processor@_WV?$string_output_adapter@_W@__crt_stdio_output@@V?$format_validation_base@_WV?$string_output_adapter@_W@__crt_stdio_output@@@2@@__crt_stdio_output@@AAE_NXZ 004969e0 f i libucrtd:output.obj
 0001:00095a40       ?state_case_normal_common@?$output_processor@_WV?$string_output_adapter@_W@__crt_stdio_output@@V?$positional_parameter_base@_WV?$string_output_adapter@_W@__crt_stdio_output@@@2@@__crt_stdio_output@@AAE_NXZ 00496a40 f i libucrtd:output.obj
 0001:00095aa0       ?state_case_normal_common@?$output_processor@_WV?$string_output_adapter@_W@__crt_stdio_output@@V?$standard_base@_WV?$string_output_adapter@_W@__crt_stdio_output@@@2@@__crt_stdio_output@@AAE_NXZ 00496aa0 f i libucrtd:output.obj
 0001:00095b00       ?state_case_normal_tchar@?$output_processor@DV?$stream_output_adapter@D@__crt_stdio_output@@V?$format_validation_base@DV?$stream_output_adapter@D@__crt_stdio_output@@@2@@__crt_stdio_output@@AAE_ND@Z 00496b00 f i libucrtd:output.obj
 0001:00095c30       ?state_case_normal_tchar@?$output_processor@DV?$stream_output_adapter@D@__crt_stdio_output@@V?$positional_parameter_base@DV?$stream_output_adapter@D@__crt_stdio_output@@@2@@__crt_stdio_output@@AAE_ND@Z 00496c30 f i libucrtd:output.obj
 0001:00095d60       ?state_case_normal_tchar@?$output_processor@DV?$stream_output_adapter@D@__crt_stdio_output@@V?$standard_base@DV?$stream_output_adapter@D@__crt_stdio_output@@@2@@__crt_stdio_output@@AAE_ND@Z 00496d60 f i libucrtd:output.obj
 0001:00095e90       ?state_case_normal_tchar@?$output_processor@DV?$string_output_adapter@D@__crt_stdio_output@@V?$format_validation_base@DV?$string_output_adapter@D@__crt_stdio_output@@@2@@__crt_stdio_output@@AAE_ND@Z 00496e90 f i libucrtd:output.obj
 0001:00095fc0       ?state_case_normal_tchar@?$output_processor@DV?$string_output_adapter@D@__crt_stdio_output@@V?$positional_parameter_base@DV?$string_output_adapter@D@__crt_stdio_output@@@2@@__crt_stdio_output@@AAE_ND@Z 00496fc0 f i libucrtd:output.obj
 0001:000960f0       ?state_case_normal_tchar@?$output_processor@DV?$string_output_adapter@D@__crt_stdio_output@@V?$standard_base@DV?$string_output_adapter@D@__crt_stdio_output@@@2@@__crt_stdio_output@@AAE_ND@Z 004970f0 f i libucrtd:output.obj
 0001:00096220       ?state_case_normal_tchar@?$output_processor@_WV?$stream_output_adapter@_W@__crt_stdio_output@@V?$format_validation_base@_WV?$stream_output_adapter@_W@__crt_stdio_output@@@2@@__crt_stdio_output@@AAE_N_W@Z 00497220 f i libucrtd:output.obj
 0001:00096240       ?state_case_normal_tchar@?$output_processor@_WV?$stream_output_adapter@_W@__crt_stdio_output@@V?$positional_parameter_base@_WV?$stream_output_adapter@_W@__crt_stdio_output@@@2@@__crt_stdio_output@@AAE_N_W@Z 00497240 f i libucrtd:output.obj
 0001:00096260       ?state_case_normal_tchar@?$output_processor@_WV?$stream_output_adapter@_W@__crt_stdio_output@@V?$standard_base@_WV?$stream_output_adapter@_W@__crt_stdio_output@@@2@@__crt_stdio_output@@AAE_N_W@Z 00497260 f i libucrtd:output.obj
 0001:00096280       ?state_case_normal_tchar@?$output_processor@_WV?$string_output_adapter@_W@__crt_stdio_output@@V?$format_validation_base@_WV?$string_output_adapter@_W@__crt_stdio_output@@@2@@__crt_stdio_output@@AAE_N_W@Z 00497280 f i libucrtd:output.obj
 0001:000962a0       ?state_case_normal_tchar@?$output_processor@_WV?$string_output_adapter@_W@__crt_stdio_output@@V?$positional_parameter_base@_WV?$string_output_adapter@_W@__crt_stdio_output@@@2@@__crt_stdio_output@@AAE_N_W@Z 004972a0 f i libucrtd:output.obj
 0001:000962c0       ?state_case_normal_tchar@?$output_processor@_WV?$string_output_adapter@_W@__crt_stdio_output@@V?$standard_base@_WV?$string_output_adapter@_W@__crt_stdio_output@@@2@@__crt_stdio_output@@AAE_N_W@Z 004972c0 f i libucrtd:output.obj
 0001:000962e0       ?state_case_percent@?$output_processor@DV?$stream_output_adapter@D@__crt_stdio_output@@V?$format_validation_base@DV?$stream_output_adapter@D@__crt_stdio_output@@@2@@__crt_stdio_output@@AAE_NXZ 004972e0 f i libucrtd:output.obj
 0001:00096340       ?state_case_percent@?$output_processor@DV?$stream_output_adapter@D@__crt_stdio_output@@V?$positional_parameter_base@DV?$stream_output_adapter@D@__crt_stdio_output@@@2@@__crt_stdio_output@@AAE_NXZ 00497340 f i libucrtd:output.obj
 0001:000963a0       ?state_case_percent@?$output_processor@DV?$stream_output_adapter@D@__crt_stdio_output@@V?$standard_base@DV?$stream_output_adapter@D@__crt_stdio_output@@@2@@__crt_stdio_output@@AAE_NXZ 004973a0 f i libucrtd:output.obj
 0001:00096400       ?state_case_percent@?$output_processor@DV?$string_output_adapter@D@__crt_stdio_output@@V?$format_validation_base@DV?$string_output_adapter@D@__crt_stdio_output@@@2@@__crt_stdio_output@@AAE_NXZ 00497400 f i libucrtd:output.obj
 0001:00096460       ?state_case_percent@?$output_processor@DV?$string_output_adapter@D@__crt_stdio_output@@V?$positional_parameter_base@DV?$string_output_adapter@D@__crt_stdio_output@@@2@@__crt_stdio_output@@AAE_NXZ 00497460 f i libucrtd:output.obj
 0001:000964c0       ?state_case_percent@?$output_processor@DV?$string_output_adapter@D@__crt_stdio_output@@V?$standard_base@DV?$string_output_adapter@D@__crt_stdio_output@@@2@@__crt_stdio_output@@AAE_NXZ 004974c0 f i libucrtd:output.obj
 0001:00096520       ?state_case_percent@?$output_processor@_WV?$stream_output_adapter@_W@__crt_stdio_output@@V?$format_validation_base@_WV?$stream_output_adapter@_W@__crt_stdio_output@@@2@@__crt_stdio_output@@AAE_NXZ 00497520 f i libucrtd:output.obj
 0001:00096580       ?state_case_percent@?$output_processor@_WV?$stream_output_adapter@_W@__crt_stdio_output@@V?$positional_parameter_base@_WV?$stream_output_adapter@_W@__crt_stdio_output@@@2@@__crt_stdio_output@@AAE_NXZ 00497580 f i libucrtd:output.obj
 0001:000965e0       ?state_case_percent@?$output_processor@_WV?$stream_output_adapter@_W@__crt_stdio_output@@V?$standard_base@_WV?$stream_output_adapter@_W@__crt_stdio_output@@@2@@__crt_stdio_output@@AAE_NXZ 004975e0 f i libucrtd:output.obj
 0001:00096640       ?state_case_percent@?$output_processor@_WV?$string_output_adapter@_W@__crt_stdio_output@@V?$format_validation_base@_WV?$string_output_adapter@_W@__crt_stdio_output@@@2@@__crt_stdio_output@@AAE_NXZ 00497640 f i libucrtd:output.obj
 0001:000966a0       ?state_case_percent@?$output_processor@_WV?$string_output_adapter@_W@__crt_stdio_output@@V?$positional_parameter_base@_WV?$string_output_adapter@_W@__crt_stdio_output@@@2@@__crt_stdio_output@@AAE_NXZ 004976a0 f i libucrtd:output.obj
 0001:00096700       ?state_case_percent@?$output_processor@_WV?$string_output_adapter@_W@__crt_stdio_output@@V?$standard_base@_WV?$string_output_adapter@_W@__crt_stdio_output@@@2@@__crt_stdio_output@@AAE_NXZ 00497700 f i libucrtd:output.obj
 0001:00096760       ?state_case_precision@?$output_processor@DV?$stream_output_adapter@D@__crt_stdio_output@@V?$format_validation_base@DV?$stream_output_adapter@D@__crt_stdio_output@@@2@@__crt_stdio_output@@AAE_NXZ 00497760 f i libucrtd:output.obj
 0001:000967e0       ?state_case_precision@?$output_processor@DV?$stream_output_adapter@D@__crt_stdio_output@@V?$positional_parameter_base@DV?$stream_output_adapter@D@__crt_stdio_output@@@2@@__crt_stdio_output@@AAE_NXZ 004977e0 f i libucrtd:output.obj
 0001:00096860       ?state_case_precision@?$output_processor@DV?$stream_output_adapter@D@__crt_stdio_output@@V?$standard_base@DV?$stream_output_adapter@D@__crt_stdio_output@@@2@@__crt_stdio_output@@AAE_NXZ 00497860 f i libucrtd:output.obj
 0001:000968e0       ?state_case_precision@?$output_processor@DV?$string_output_adapter@D@__crt_stdio_output@@V?$format_validation_base@DV?$string_output_adapter@D@__crt_stdio_output@@@2@@__crt_stdio_output@@AAE_NXZ 004978e0 f i libucrtd:output.obj
 0001:00096960       ?state_case_precision@?$output_processor@DV?$string_output_adapter@D@__crt_stdio_output@@V?$positional_parameter_base@DV?$string_output_adapter@D@__crt_stdio_output@@@2@@__crt_stdio_output@@AAE_NXZ 00497960 f i libucrtd:output.obj
 0001:000969e0       ?state_case_precision@?$output_processor@DV?$string_output_adapter@D@__crt_stdio_output@@V?$standard_base@DV?$string_output_adapter@D@__crt_stdio_output@@@2@@__crt_stdio_output@@AAE_NXZ 004979e0 f i libucrtd:output.obj
 0001:00096a60       ?state_case_precision@?$output_processor@_WV?$stream_output_adapter@_W@__crt_stdio_output@@V?$format_validation_base@_WV?$stream_output_adapter@_W@__crt_stdio_output@@@2@@__crt_stdio_output@@AAE_NXZ 00497a60 f i libucrtd:output.obj
 0001:00096ae0       ?state_case_precision@?$output_processor@_WV?$stream_output_adapter@_W@__crt_stdio_output@@V?$positional_parameter_base@_WV?$stream_output_adapter@_W@__crt_stdio_output@@@2@@__crt_stdio_output@@AAE_NXZ 00497ae0 f i libucrtd:output.obj
 0001:00096b60       ?state_case_precision@?$output_processor@_WV?$stream_output_adapter@_W@__crt_stdio_output@@V?$standard_base@_WV?$stream_output_adapter@_W@__crt_stdio_output@@@2@@__crt_stdio_output@@AAE_NXZ 00497b60 f i libucrtd:output.obj
 0001:00096be0       ?state_case_precision@?$output_processor@_WV?$string_output_adapter@_W@__crt_stdio_output@@V?$format_validation_base@_WV?$string_output_adapter@_W@__crt_stdio_output@@@2@@__crt_stdio_output@@AAE_NXZ 00497be0 f i libucrtd:output.obj
 0001:00096c60       ?state_case_precision@?$output_processor@_WV?$string_output_adapter@_W@__crt_stdio_output@@V?$positional_parameter_base@_WV?$string_output_adapter@_W@__crt_stdio_output@@@2@@__crt_stdio_output@@AAE_NXZ 00497c60 f i libucrtd:output.obj
 0001:00096ce0       ?state_case_precision@?$output_processor@_WV?$string_output_adapter@_W@__crt_stdio_output@@V?$standard_base@_WV?$string_output_adapter@_W@__crt_stdio_output@@@2@@__crt_stdio_output@@AAE_NXZ 00497ce0 f i libucrtd:output.obj
 0001:00096d60       ?state_case_size@?$output_processor@DV?$stream_output_adapter@D@__crt_stdio_output@@V?$format_validation_base@DV?$stream_output_adapter@D@__crt_stdio_output@@@2@@__crt_stdio_output@@AAE_NXZ 00497d60 f i libucrtd:output.obj
 0001:00097220       ?state_case_size@?$output_processor@DV?$stream_output_adapter@D@__crt_stdio_output@@V?$positional_parameter_base@DV?$stream_output_adapter@D@__crt_stdio_output@@@2@@__crt_stdio_output@@AAE_NXZ 00498220 f i libucrtd:output.obj
 0001:000976e0       ?state_case_size@?$output_processor@DV?$stream_output_adapter@D@__crt_stdio_output@@V?$standard_base@DV?$stream_output_adapter@D@__crt_stdio_output@@@2@@__crt_stdio_output@@AAE_NXZ 004986e0 f i libucrtd:output.obj
 0001:00097ba0       ?state_case_size@?$output_processor@DV?$string_output_adapter@D@__crt_stdio_output@@V?$format_validation_base@DV?$string_output_adapter@D@__crt_stdio_output@@@2@@__crt_stdio_output@@AAE_NXZ 00498ba0 f i libucrtd:output.obj
 0001:00098060       ?state_case_size@?$output_processor@DV?$string_output_adapter@D@__crt_stdio_output@@V?$positional_parameter_base@DV?$string_output_adapter@D@__crt_stdio_output@@@2@@__crt_stdio_output@@AAE_NXZ 00499060 f i libucrtd:output.obj
 0001:00098520       ?state_case_size@?$output_processor@DV?$string_output_adapter@D@__crt_stdio_output@@V?$standard_base@DV?$string_output_adapter@D@__crt_stdio_output@@@2@@__crt_stdio_output@@AAE_NXZ 00499520 f i libucrtd:output.obj
 0001:000989e0       ?state_case_size@?$output_processor@_WV?$stream_output_adapter@_W@__crt_stdio_output@@V?$format_validation_base@_WV?$stream_output_adapter@_W@__crt_stdio_output@@@2@@__crt_stdio_output@@AAE_NXZ 004999e0 f i libucrtd:output.obj
 0001:00098ea0       ?state_case_size@?$output_processor@_WV?$stream_output_adapter@_W@__crt_stdio_output@@V?$positional_parameter_base@_WV?$stream_output_adapter@_W@__crt_stdio_output@@@2@@__crt_stdio_output@@AAE_NXZ 00499ea0 f i libucrtd:output.obj
 0001:00099360       ?state_case_size@?$output_processor@_WV?$stream_output_adapter@_W@__crt_stdio_output@@V?$standard_base@_WV?$stream_output_adapter@_W@__crt_stdio_output@@@2@@__crt_stdio_output@@AAE_NXZ 0049a360 f i libucrtd:output.obj
 0001:00099820       ?state_case_size@?$output_processor@_WV?$string_output_adapter@_W@__crt_stdio_output@@V?$format_validation_base@_WV?$string_output_adapter@_W@__crt_stdio_output@@@2@@__crt_stdio_output@@AAE_NXZ 0049a820 f i libucrtd:output.obj
 0001:00099ce0       ?state_case_size@?$output_processor@_WV?$string_output_adapter@_W@__crt_stdio_output@@V?$positional_parameter_base@_WV?$string_output_adapter@_W@__crt_stdio_output@@@2@@__crt_stdio_output@@AAE_NXZ 0049ace0 f i libucrtd:output.obj
 0001:0009a1a0       ?state_case_size@?$output_processor@_WV?$string_output_adapter@_W@__crt_stdio_output@@V?$standard_base@_WV?$string_output_adapter@_W@__crt_stdio_output@@@2@@__crt_stdio_output@@AAE_NXZ 0049b1a0 f i libucrtd:output.obj
 0001:0009a660       ?state_case_type@?$output_processor@DV?$stream_output_adapter@D@__crt_stdio_output@@V?$format_validation_base@DV?$stream_output_adapter@D@__crt_stdio_output@@@2@@__crt_stdio_output@@AAE_NXZ 0049b660 f i libucrtd:output.obj
 0001:0009ab00       ?state_case_type@?$output_processor@DV?$stream_output_adapter@D@__crt_stdio_output@@V?$positional_parameter_base@DV?$stream_output_adapter@D@__crt_stdio_output@@@2@@__crt_stdio_output@@AAE_NXZ 0049bb00 f i libucrtd:output.obj
 0001:0009afa0       ?state_case_type@?$output_processor@DV?$stream_output_adapter@D@__crt_stdio_output@@V?$standard_base@DV?$stream_output_adapter@D@__crt_stdio_output@@@2@@__crt_stdio_output@@AAE_NXZ 0049bfa0 f i libucrtd:output.obj
 0001:0009b440       ?state_case_type@?$output_processor@DV?$string_output_adapter@D@__crt_stdio_output@@V?$format_validation_base@DV?$string_output_adapter@D@__crt_stdio_output@@@2@@__crt_stdio_output@@AAE_NXZ 0049c440 f i libucrtd:output.obj
 0001:0009b8e0       ?state_case_type@?$output_processor@DV?$string_output_adapter@D@__crt_stdio_output@@V?$positional_parameter_base@DV?$string_output_adapter@D@__crt_stdio_output@@@2@@__crt_stdio_output@@AAE_NXZ 0049c8e0 f i libucrtd:output.obj
 0001:0009bd80       ?state_case_type@?$output_processor@DV?$string_output_adapter@D@__crt_stdio_output@@V?$standard_base@DV?$string_output_adapter@D@__crt_stdio_output@@@2@@__crt_stdio_output@@AAE_NXZ 0049cd80 f i libucrtd:output.obj
 0001:0009c220       ?state_case_type@?$output_processor@_WV?$stream_output_adapter@_W@__crt_stdio_output@@V?$format_validation_base@_WV?$stream_output_adapter@_W@__crt_stdio_output@@@2@@__crt_stdio_output@@AAE_NXZ 0049d220 f i libucrtd:output.obj
 0001:0009c6f0       ?state_case_type@?$output_processor@_WV?$stream_output_adapter@_W@__crt_stdio_output@@V?$positional_parameter_base@_WV?$stream_output_adapter@_W@__crt_stdio_output@@@2@@__crt_stdio_output@@AAE_NXZ 0049d6f0 f i libucrtd:output.obj
 0001:0009cbc0       ?state_case_type@?$output_processor@_WV?$stream_output_adapter@_W@__crt_stdio_output@@V?$standard_base@_WV?$stream_output_adapter@_W@__crt_stdio_output@@@2@@__crt_stdio_output@@AAE_NXZ 0049dbc0 f i libucrtd:output.obj
 0001:0009d090       ?state_case_type@?$output_processor@_WV?$string_output_adapter@_W@__crt_stdio_output@@V?$format_validation_base@_WV?$string_output_adapter@_W@__crt_stdio_output@@@2@@__crt_stdio_output@@AAE_NXZ 0049e090 f i libucrtd:output.obj
 0001:0009d560       ?state_case_type@?$output_processor@_WV?$string_output_adapter@_W@__crt_stdio_output@@V?$positional_parameter_base@_WV?$string_output_adapter@_W@__crt_stdio_output@@@2@@__crt_stdio_output@@AAE_NXZ 0049e560 f i libucrtd:output.obj
 0001:0009da30       ?state_case_type@?$output_processor@_WV?$string_output_adapter@_W@__crt_stdio_output@@V?$standard_base@_WV?$string_output_adapter@_W@__crt_stdio_output@@@2@@__crt_stdio_output@@AAE_NXZ 0049ea30 f i libucrtd:output.obj
 0001:0009df00       ?state_case_width@?$output_processor@DV?$stream_output_adapter@D@__crt_stdio_output@@V?$format_validation_base@DV?$stream_output_adapter@D@__crt_stdio_output@@@2@@__crt_stdio_output@@AAE_NXZ 0049ef00 f i libucrtd:output.obj
 0001:0009df90       ?state_case_width@?$output_processor@DV?$stream_output_adapter@D@__crt_stdio_output@@V?$positional_parameter_base@DV?$stream_output_adapter@D@__crt_stdio_output@@@2@@__crt_stdio_output@@AAE_NXZ 0049ef90 f i libucrtd:output.obj
 0001:0009e020       ?state_case_width@?$output_processor@DV?$stream_output_adapter@D@__crt_stdio_output@@V?$standard_base@DV?$stream_output_adapter@D@__crt_stdio_output@@@2@@__crt_stdio_output@@AAE_NXZ 0049f020 f i libucrtd:output.obj
 0001:0009e0b0       ?state_case_width@?$output_processor@DV?$string_output_adapter@D@__crt_stdio_output@@V?$format_validation_base@DV?$string_output_adapter@D@__crt_stdio_output@@@2@@__crt_stdio_output@@AAE_NXZ 0049f0b0 f i libucrtd:output.obj
 0001:0009e140       ?state_case_width@?$output_processor@DV?$string_output_adapter@D@__crt_stdio_output@@V?$positional_parameter_base@DV?$string_output_adapter@D@__crt_stdio_output@@@2@@__crt_stdio_output@@AAE_NXZ 0049f140 f i libucrtd:output.obj
 0001:0009e1d0       ?state_case_width@?$output_processor@DV?$string_output_adapter@D@__crt_stdio_output@@V?$standard_base@DV?$string_output_adapter@D@__crt_stdio_output@@@2@@__crt_stdio_output@@AAE_NXZ 0049f1d0 f i libucrtd:output.obj
 0001:0009e260       ?state_case_width@?$output_processor@_WV?$stream_output_adapter@_W@__crt_stdio_output@@V?$format_validation_base@_WV?$stream_output_adapter@_W@__crt_stdio_output@@@2@@__crt_stdio_output@@AAE_NXZ 0049f260 f i libucrtd:output.obj
 0001:0009e2f0       ?state_case_width@?$output_processor@_WV?$stream_output_adapter@_W@__crt_stdio_output@@V?$positional_parameter_base@_WV?$stream_output_adapter@_W@__crt_stdio_output@@@2@@__crt_stdio_output@@AAE_NXZ 0049f2f0 f i libucrtd:output.obj
 0001:0009e380       ?state_case_width@?$output_processor@_WV?$stream_output_adapter@_W@__crt_stdio_output@@V?$standard_base@_WV?$stream_output_adapter@_W@__crt_stdio_output@@@2@@__crt_stdio_output@@AAE_NXZ 0049f380 f i libucrtd:output.obj
 0001:0009e410       ?state_case_width@?$output_processor@_WV?$string_output_adapter@_W@__crt_stdio_output@@V?$format_validation_base@_WV?$string_output_adapter@_W@__crt_stdio_output@@@2@@__crt_stdio_output@@AAE_NXZ 0049f410 f i libucrtd:output.obj
 0001:0009e4a0       ?state_case_width@?$output_processor@_WV?$string_output_adapter@_W@__crt_stdio_output@@V?$positional_parameter_base@_WV?$string_output_adapter@_W@__crt_stdio_output@@@2@@__crt_stdio_output@@AAE_NXZ 0049f4a0 f i libucrtd:output.obj
 0001:0009e530       ?state_case_width@?$output_processor@_WV?$string_output_adapter@_W@__crt_stdio_output@@V?$standard_base@_WV?$string_output_adapter@_W@__crt_stdio_output@@@2@@__crt_stdio_output@@AAE_NXZ 0049f530 f i libucrtd:output.obj
 0001:0009e5c0       ?state_count@?$format_validation_base@DV?$stream_output_adapter@D@__crt_stdio_output@@@__crt_stdio_output@@KAIXZ 0049f5c0 f i libucrtd:output.obj
 0001:0009e5d0       ?state_count@?$format_validation_base@DV?$string_output_adapter@D@__crt_stdio_output@@@__crt_stdio_output@@KAIXZ 0049f5d0 f i libucrtd:output.obj
 0001:0009e5e0       ?state_count@?$format_validation_base@_WV?$stream_output_adapter@_W@__crt_stdio_output@@@__crt_stdio_output@@KAIXZ 0049f5e0 f i libucrtd:output.obj
 0001:0009e5f0       ?state_count@?$format_validation_base@_WV?$string_output_adapter@_W@__crt_stdio_output@@@__crt_stdio_output@@KAIXZ 0049f5f0 f i libucrtd:output.obj
 0001:0009e600       ?state_count@?$standard_base@DV?$stream_output_adapter@D@__crt_stdio_output@@@__crt_stdio_output@@KAIXZ 0049f600 f i libucrtd:output.obj
 0001:0009e610       ?state_count@?$standard_base@DV?$string_output_adapter@D@__crt_stdio_output@@@__crt_stdio_output@@KAIXZ 0049f610 f i libucrtd:output.obj
 0001:0009e620       ?state_count@?$standard_base@_WV?$stream_output_adapter@_W@__crt_stdio_output@@@__crt_stdio_output@@KAIXZ 0049f620 f i libucrtd:output.obj
 0001:0009e630       ?state_count@?$standard_base@_WV?$string_output_adapter@_W@__crt_stdio_output@@@__crt_stdio_output@@KAIXZ 0049f630 f i libucrtd:output.obj
 0001:0009e640       ?state_transition_table@?$format_validation_base@DV?$stream_output_adapter@D@__crt_stdio_output@@@__crt_stdio_output@@KAABV?$spectre_mitigated_lookup_table@Ustate_transition_pair@__crt_stdio_output@@$0IA@@2@XZ 0049f640 f i libucrtd:output.obj
 0001:0009e650       ?state_transition_table@?$format_validation_base@DV?$string_output_adapter@D@__crt_stdio_output@@@__crt_stdio_output@@KAABV?$spectre_mitigated_lookup_table@Ustate_transition_pair@__crt_stdio_output@@$0IA@@2@XZ 0049f650 f i libucrtd:output.obj
 0001:0009e660       ?state_transition_table@?$format_validation_base@_WV?$stream_output_adapter@_W@__crt_stdio_output@@@__crt_stdio_output@@KAABV?$spectre_mitigated_lookup_table@Ustate_transition_pair@__crt_stdio_output@@$0IA@@2@XZ 0049f660 f i libucrtd:output.obj
 0001:0009e670       ?state_transition_table@?$format_validation_base@_WV?$string_output_adapter@_W@__crt_stdio_output@@@__crt_stdio_output@@KAABV?$spectre_mitigated_lookup_table@Ustate_transition_pair@__crt_stdio_output@@$0IA@@2@XZ 0049f670 f i libucrtd:output.obj
 0001:0009e680       ?state_transition_table@?$standard_base@DV?$stream_output_adapter@D@__crt_stdio_output@@@__crt_stdio_output@@KAABV?$spectre_mitigated_lookup_table@Ustate_transition_pair@__crt_stdio_output@@$0IA@@2@XZ 0049f680 f i libucrtd:output.obj
 0001:0009e690       ?state_transition_table@?$standard_base@DV?$string_output_adapter@D@__crt_stdio_output@@@__crt_stdio_output@@KAABV?$spectre_mitigated_lookup_table@Ustate_transition_pair@__crt_stdio_output@@$0IA@@2@XZ 0049f690 f i libucrtd:output.obj
 0001:0009e6a0       ?state_transition_table@?$standard_base@_WV?$stream_output_adapter@_W@__crt_stdio_output@@@__crt_stdio_output@@KAABV?$spectre_mitigated_lookup_table@Ustate_transition_pair@__crt_stdio_output@@$0IA@@2@XZ 0049f6a0 f i libucrtd:output.obj
 0001:0009e6b0       ?state_transition_table@?$standard_base@_WV?$string_output_adapter@_W@__crt_stdio_output@@@__crt_stdio_output@@KAABV?$spectre_mitigated_lookup_table@Ustate_transition_pair@__crt_stdio_output@@$0IA@@2@XZ 0049f6b0 f i libucrtd:output.obj
 0001:0009e6c0       ?tchar_string@?$common_data@D@__crt_stdio_output@@IAEAAPADD@Z 0049f6c0 f i libucrtd:output.obj
 0001:0009e6e0       ?tchar_string@?$common_data@D@__crt_stdio_output@@IAEAAPADXZ 0049f6e0 f i libucrtd:output.obj
 0001:0009e700       ?tchar_string@?$common_data@_W@__crt_stdio_output@@IAEAAPA_WXZ 0049f700 f i libucrtd:output.obj
 0001:0009e720       ?tchar_string@?$common_data@_W@__crt_stdio_output@@IAEAAPA_W_W@Z 0049f720 f i libucrtd:output.obj
 0001:0009e740       ?to_integer_size@__crt_stdio_output@@YAIW4length_modifier@1@@Z 0049f740 f i libucrtd:output.obj
 0001:0009e810       ?type_case_X@?$output_processor@DV?$stream_output_adapter@D@__crt_stdio_output@@V?$format_validation_base@DV?$stream_output_adapter@D@__crt_stdio_output@@@2@@__crt_stdio_output@@AAE_NXZ 0049f810 f i libucrtd:output.obj
 0001:0009e830       ?type_case_X@?$output_processor@DV?$stream_output_adapter@D@__crt_stdio_output@@V?$positional_parameter_base@DV?$stream_output_adapter@D@__crt_stdio_output@@@2@@__crt_stdio_output@@AAE_NXZ 0049f830 f i libucrtd:output.obj
 0001:0009e850       ?type_case_X@?$output_processor@DV?$stream_output_adapter@D@__crt_stdio_output@@V?$standard_base@DV?$stream_output_adapter@D@__crt_stdio_output@@@2@@__crt_stdio_output@@AAE_NXZ 0049f850 f i libucrtd:output.obj
 0001:0009e870       ?type_case_X@?$output_processor@DV?$string_output_adapter@D@__crt_stdio_output@@V?$format_validation_base@DV?$string_output_adapter@D@__crt_stdio_output@@@2@@__crt_stdio_output@@AAE_NXZ 0049f870 f i libucrtd:output.obj
 0001:0009e890       ?type_case_X@?$output_processor@DV?$string_output_adapter@D@__crt_stdio_output@@V?$positional_parameter_base@DV?$string_output_adapter@D@__crt_stdio_output@@@2@@__crt_stdio_output@@AAE_NXZ 0049f890 f i libucrtd:output.obj
 0001:0009e8b0       ?type_case_X@?$output_processor@DV?$string_output_adapter@D@__crt_stdio_output@@V?$standard_base@DV?$string_output_adapter@D@__crt_stdio_output@@@2@@__crt_stdio_output@@AAE_NXZ 0049f8b0 f i libucrtd:output.obj
 0001:0009e8d0       ?type_case_X@?$output_processor@_WV?$stream_output_adapter@_W@__crt_stdio_output@@V?$format_validation_base@_WV?$stream_output_adapter@_W@__crt_stdio_output@@@2@@__crt_stdio_output@@AAE_NXZ 0049f8d0 f i libucrtd:output.obj
 0001:0009e8f0       ?type_case_X@?$output_processor@_WV?$stream_output_adapter@_W@__crt_stdio_output@@V?$positional_parameter_base@_WV?$stream_output_adapter@_W@__crt_stdio_output@@@2@@__crt_stdio_output@@AAE_NXZ 0049f8f0 f i libucrtd:output.obj
 0001:0009e910       ?type_case_X@?$output_processor@_WV?$stream_output_adapter@_W@__crt_stdio_output@@V?$standard_base@_WV?$stream_output_adapter@_W@__crt_stdio_output@@@2@@__crt_stdio_output@@AAE_NXZ 0049f910 f i libucrtd:output.obj
 0001:0009e930       ?type_case_X@?$output_processor@_WV?$string_output_adapter@_W@__crt_stdio_output@@V?$format_validation_base@_WV?$string_output_adapter@_W@__crt_stdio_output@@@2@@__crt_stdio_output@@AAE_NXZ 0049f930 f i libucrtd:output.obj
 0001:0009e950       ?type_case_X@?$output_processor@_WV?$string_output_adapter@_W@__crt_stdio_output@@V?$positional_parameter_base@_WV?$string_output_adapter@_W@__crt_stdio_output@@@2@@__crt_stdio_output@@AAE_NXZ 0049f950 f i libucrtd:output.obj
 0001:0009e970       ?type_case_X@?$output_processor@_WV?$string_output_adapter@_W@__crt_stdio_output@@V?$standard_base@_WV?$string_output_adapter@_W@__crt_stdio_output@@@2@@__crt_stdio_output@@AAE_NXZ 0049f970 f i libucrtd:output.obj
 0001:0009e990       ?type_case_Z@?$output_processor@DV?$stream_output_adapter@D@__crt_stdio_output@@V?$format_validation_base@DV?$stream_output_adapter@D@__crt_stdio_output@@@2@@__crt_stdio_output@@AAE_NXZ 0049f990 f i libucrtd:output.obj
 0001:0009eac0       ?type_case_Z@?$output_processor@DV?$stream_output_adapter@D@__crt_stdio_output@@V?$positional_parameter_base@DV?$stream_output_adapter@D@__crt_stdio_output@@@2@@__crt_stdio_output@@AAE_NXZ 0049fac0 f i libucrtd:output.obj
 0001:0009ebf0       ?type_case_Z@?$output_processor@DV?$stream_output_adapter@D@__crt_stdio_output@@V?$standard_base@DV?$stream_output_adapter@D@__crt_stdio_output@@@2@@__crt_stdio_output@@AAE_NXZ 0049fbf0 f i libucrtd:output.obj
 0001:0009ed20       ?type_case_Z@?$output_processor@DV?$string_output_adapter@D@__crt_stdio_output@@V?$format_validation_base@DV?$string_output_adapter@D@__crt_stdio_output@@@2@@__crt_stdio_output@@AAE_NXZ 0049fd20 f i libucrtd:output.obj
 0001:0009ee50       ?type_case_Z@?$output_processor@DV?$string_output_adapter@D@__crt_stdio_output@@V?$positional_parameter_base@DV?$string_output_adapter@D@__crt_stdio_output@@@2@@__crt_stdio_output@@AAE_NXZ 0049fe50 f i libucrtd:output.obj
 0001:0009ef80       ?type_case_Z@?$output_processor@DV?$string_output_adapter@D@__crt_stdio_output@@V?$standard_base@DV?$string_output_adapter@D@__crt_stdio_output@@@2@@__crt_stdio_output@@AAE_NXZ 0049ff80 f i libucrtd:output.obj
 0001:0009f0b0       ?type_case_Z@?$output_processor@_WV?$stream_output_adapter@_W@__crt_stdio_output@@V?$format_validation_base@_WV?$stream_output_adapter@_W@__crt_stdio_output@@@2@@__crt_stdio_output@@AAE_NXZ 004a00b0 f i libucrtd:output.obj
 0001:0009f1e0       ?type_case_Z@?$output_processor@_WV?$stream_output_adapter@_W@__crt_stdio_output@@V?$positional_parameter_base@_WV?$stream_output_adapter@_W@__crt_stdio_output@@@2@@__crt_stdio_output@@AAE_NXZ 004a01e0 f i libucrtd:output.obj
 0001:0009f310       ?type_case_Z@?$output_processor@_WV?$stream_output_adapter@_W@__crt_stdio_output@@V?$standard_base@_WV?$stream_output_adapter@_W@__crt_stdio_output@@@2@@__crt_stdio_output@@AAE_NXZ 004a0310 f i libucrtd:output.obj
 0001:0009f440       ?type_case_Z@?$output_processor@_WV?$string_output_adapter@_W@__crt_stdio_output@@V?$format_validation_base@_WV?$string_output_adapter@_W@__crt_stdio_output@@@2@@__crt_stdio_output@@AAE_NXZ 004a0440 f i libucrtd:output.obj
 0001:0009f570       ?type_case_Z@?$output_processor@_WV?$string_output_adapter@_W@__crt_stdio_output@@V?$positional_parameter_base@_WV?$string_output_adapter@_W@__crt_stdio_output@@@2@@__crt_stdio_output@@AAE_NXZ 004a0570 f i libucrtd:output.obj
 0001:0009f6a0       ?type_case_Z@?$output_processor@_WV?$string_output_adapter@_W@__crt_stdio_output@@V?$standard_base@_WV?$string_output_adapter@_W@__crt_stdio_output@@@2@@__crt_stdio_output@@AAE_NXZ 004a06a0 f i libucrtd:output.obj
 0001:0009f7d0       ?type_case_a@?$output_processor@DV?$stream_output_adapter@D@__crt_stdio_output@@V?$format_validation_base@DV?$stream_output_adapter@D@__crt_stdio_output@@@2@@__crt_stdio_output@@AAE_NXZ 004a07d0 f i libucrtd:output.obj
 0001:0009fad0       ?type_case_a@?$output_processor@DV?$stream_output_adapter@D@__crt_stdio_output@@V?$positional_parameter_base@DV?$stream_output_adapter@D@__crt_stdio_output@@@2@@__crt_stdio_output@@AAE_NXZ 004a0ad0 f i libucrtd:output.obj
 0001:0009fdd0       ?type_case_a@?$output_processor@DV?$stream_output_adapter@D@__crt_stdio_output@@V?$standard_base@DV?$stream_output_adapter@D@__crt_stdio_output@@@2@@__crt_stdio_output@@AAE_NXZ 004a0dd0 f i libucrtd:output.obj
 0001:000a00d0       ?type_case_a@?$output_processor@DV?$string_output_adapter@D@__crt_stdio_output@@V?$format_validation_base@DV?$string_output_adapter@D@__crt_stdio_output@@@2@@__crt_stdio_output@@AAE_NXZ 004a10d0 f i libucrtd:output.obj
 0001:000a03d0       ?type_case_a@?$output_processor@DV?$string_output_adapter@D@__crt_stdio_output@@V?$positional_parameter_base@DV?$string_output_adapter@D@__crt_stdio_output@@@2@@__crt_stdio_output@@AAE_NXZ 004a13d0 f i libucrtd:output.obj
 0001:000a06d0       ?type_case_a@?$output_processor@DV?$string_output_adapter@D@__crt_stdio_output@@V?$standard_base@DV?$string_output_adapter@D@__crt_stdio_output@@@2@@__crt_stdio_output@@AAE_NXZ 004a16d0 f i libucrtd:output.obj
 0001:000a09d0       ?type_case_a@?$output_processor@_WV?$stream_output_adapter@_W@__crt_stdio_output@@V?$format_validation_base@_WV?$stream_output_adapter@_W@__crt_stdio_output@@@2@@__crt_stdio_output@@AAE_NXZ 004a19d0 f i libucrtd:output.obj
 0001:000a0ce0       ?type_case_a@?$output_processor@_WV?$stream_output_adapter@_W@__crt_stdio_output@@V?$positional_parameter_base@_WV?$stream_output_adapter@_W@__crt_stdio_output@@@2@@__crt_stdio_output@@AAE_NXZ 004a1ce0 f i libucrtd:output.obj
 0001:000a0ff0       ?type_case_a@?$output_processor@_WV?$stream_output_adapter@_W@__crt_stdio_output@@V?$standard_base@_WV?$stream_output_adapter@_W@__crt_stdio_output@@@2@@__crt_stdio_output@@AAE_NXZ 004a1ff0 f i libucrtd:output.obj
 0001:000a1300       ?type_case_a@?$output_processor@_WV?$string_output_adapter@_W@__crt_stdio_output@@V?$format_validation_base@_WV?$string_output_adapter@_W@__crt_stdio_output@@@2@@__crt_stdio_output@@AAE_NXZ 004a2300 f i libucrtd:output.obj
 0001:000a1610       ?type_case_a@?$output_processor@_WV?$string_output_adapter@_W@__crt_stdio_output@@V?$positional_parameter_base@_WV?$string_output_adapter@_W@__crt_stdio_output@@@2@@__crt_stdio_output@@AAE_NXZ 004a2610 f i libucrtd:output.obj
 0001:000a1920       ?type_case_a@?$output_processor@_WV?$string_output_adapter@_W@__crt_stdio_output@@V?$standard_base@_WV?$string_output_adapter@_W@__crt_stdio_output@@@2@@__crt_stdio_output@@AAE_NXZ 004a2920 f i libucrtd:output.obj
 0001:000a1c30       ?type_case_c@?$output_processor@DV?$stream_output_adapter@D@__crt_stdio_output@@V?$format_validation_base@DV?$stream_output_adapter@D@__crt_stdio_output@@@2@@__crt_stdio_output@@AAE_NXZ 004a2c30 f i libucrtd:output.obj
 0001:000a1c50       ?type_case_c@?$output_processor@DV?$stream_output_adapter@D@__crt_stdio_output@@V?$positional_parameter_base@DV?$stream_output_adapter@D@__crt_stdio_output@@@2@@__crt_stdio_output@@AAE_NXZ 004a2c50 f i libucrtd:output.obj
 0001:000a1c70       ?type_case_c@?$output_processor@DV?$stream_output_adapter@D@__crt_stdio_output@@V?$standard_base@DV?$stream_output_adapter@D@__crt_stdio_output@@@2@@__crt_stdio_output@@AAE_NXZ 004a2c70 f i libucrtd:output.obj
 0001:000a1c90       ?type_case_c@?$output_processor@DV?$string_output_adapter@D@__crt_stdio_output@@V?$format_validation_base@DV?$string_output_adapter@D@__crt_stdio_output@@@2@@__crt_stdio_output@@AAE_NXZ 004a2c90 f i libucrtd:output.obj
 0001:000a1cb0       ?type_case_c@?$output_processor@DV?$string_output_adapter@D@__crt_stdio_output@@V?$positional_parameter_base@DV?$string_output_adapter@D@__crt_stdio_output@@@2@@__crt_stdio_output@@AAE_NXZ 004a2cb0 f i libucrtd:output.obj
 0001:000a1cd0       ?type_case_c@?$output_processor@DV?$string_output_adapter@D@__crt_stdio_output@@V?$standard_base@DV?$string_output_adapter@D@__crt_stdio_output@@@2@@__crt_stdio_output@@AAE_NXZ 004a2cd0 f i libucrtd:output.obj
 0001:000a1cf0       ?type_case_c@?$output_processor@_WV?$stream_output_adapter@_W@__crt_stdio_output@@V?$format_validation_base@_WV?$stream_output_adapter@_W@__crt_stdio_output@@@2@@__crt_stdio_output@@AAE_NXZ 004a2cf0 f i libucrtd:output.obj
 0001:000a1d10       ?type_case_c@?$output_processor@_WV?$stream_output_adapter@_W@__crt_stdio_output@@V?$positional_parameter_base@_WV?$stream_output_adapter@_W@__crt_stdio_output@@@2@@__crt_stdio_output@@AAE_NXZ 004a2d10 f i libucrtd:output.obj
 0001:000a1d30       ?type_case_c@?$output_processor@_WV?$stream_output_adapter@_W@__crt_stdio_output@@V?$standard_base@_WV?$stream_output_adapter@_W@__crt_stdio_output@@@2@@__crt_stdio_output@@AAE_NXZ 004a2d30 f i libucrtd:output.obj
 0001:000a1d50       ?type_case_c@?$output_processor@_WV?$string_output_adapter@_W@__crt_stdio_output@@V?$format_validation_base@_WV?$string_output_adapter@_W@__crt_stdio_output@@@2@@__crt_stdio_output@@AAE_NXZ 004a2d50 f i libucrtd:output.obj
 0001:000a1d70       ?type_case_c@?$output_processor@_WV?$string_output_adapter@_W@__crt_stdio_output@@V?$positional_parameter_base@_WV?$string_output_adapter@_W@__crt_stdio_output@@@2@@__crt_stdio_output@@AAE_NXZ 004a2d70 f i libucrtd:output.obj
 0001:000a1d90       ?type_case_c@?$output_processor@_WV?$string_output_adapter@_W@__crt_stdio_output@@V?$standard_base@_WV?$string_output_adapter@_W@__crt_stdio_output@@@2@@__crt_stdio_output@@AAE_NXZ 004a2d90 f i libucrtd:output.obj
 0001:000a1db0       ?type_case_c_tchar@?$output_processor@DV?$stream_output_adapter@D@__crt_stdio_output@@V?$format_validation_base@DV?$stream_output_adapter@D@__crt_stdio_output@@@2@@__crt_stdio_output@@AAE_ND@Z 004a2db0 f i libucrtd:output.obj
 0001:000a1f00       ?type_case_c_tchar@?$output_processor@DV?$stream_output_adapter@D@__crt_stdio_output@@V?$positional_parameter_base@DV?$stream_output_adapter@D@__crt_stdio_output@@@2@@__crt_stdio_output@@AAE_ND@Z 004a2f00 f i libucrtd:output.obj
 0001:000a2050       ?type_case_c_tchar@?$output_processor@DV?$stream_output_adapter@D@__crt_stdio_output@@V?$standard_base@DV?$stream_output_adapter@D@__crt_stdio_output@@@2@@__crt_stdio_output@@AAE_ND@Z 004a3050 f i libucrtd:output.obj
 0001:000a21a0       ?type_case_c_tchar@?$output_processor@DV?$string_output_adapter@D@__crt_stdio_output@@V?$format_validation_base@DV?$string_output_adapter@D@__crt_stdio_output@@@2@@__crt_stdio_output@@AAE_ND@Z 004a31a0 f i libucrtd:output.obj
 0001:000a22f0       ?type_case_c_tchar@?$output_processor@DV?$string_output_adapter@D@__crt_stdio_output@@V?$positional_parameter_base@DV?$string_output_adapter@D@__crt_stdio_output@@@2@@__crt_stdio_output@@AAE_ND@Z 004a32f0 f i libucrtd:output.obj
 0001:000a2440       ?type_case_c_tchar@?$output_processor@DV?$string_output_adapter@D@__crt_stdio_output@@V?$standard_base@DV?$string_output_adapter@D@__crt_stdio_output@@@2@@__crt_stdio_output@@AAE_ND@Z 004a3440 f i libucrtd:output.obj
 0001:000a2590       ?type_case_c_tchar@?$output_processor@_WV?$stream_output_adapter@_W@__crt_stdio_output@@V?$format_validation_base@_WV?$stream_output_adapter@_W@__crt_stdio_output@@@2@@__crt_stdio_output@@AAE_N_W@Z 004a3590 f i libucrtd:output.obj
 0001:000a26d0       ?type_case_c_tchar@?$output_processor@_WV?$stream_output_adapter@_W@__crt_stdio_output@@V?$positional_parameter_base@_WV?$stream_output_adapter@_W@__crt_stdio_output@@@2@@__crt_stdio_output@@AAE_N_W@Z 004a36d0 f i libucrtd:output.obj
 0001:000a2810       ?type_case_c_tchar@?$output_processor@_WV?$stream_output_adapter@_W@__crt_stdio_output@@V?$standard_base@_WV?$stream_output_adapter@_W@__crt_stdio_output@@@2@@__crt_stdio_output@@AAE_N_W@Z 004a3810 f i libucrtd:output.obj
 0001:000a2950       ?type_case_c_tchar@?$output_processor@_WV?$string_output_adapter@_W@__crt_stdio_output@@V?$format_validation_base@_WV?$string_output_adapter@_W@__crt_stdio_output@@@2@@__crt_stdio_output@@AAE_N_W@Z 004a3950 f i libucrtd:output.obj
 0001:000a2a90       ?type_case_c_tchar@?$output_processor@_WV?$string_output_adapter@_W@__crt_stdio_output@@V?$positional_parameter_base@_WV?$string_output_adapter@_W@__crt_stdio_output@@@2@@__crt_stdio_output@@AAE_N_W@Z 004a3a90 f i libucrtd:output.obj
 0001:000a2bd0       ?type_case_c_tchar@?$output_processor@_WV?$string_output_adapter@_W@__crt_stdio_output@@V?$standard_base@_WV?$string_output_adapter@_W@__crt_stdio_output@@@2@@__crt_stdio_output@@AAE_N_W@Z 004a3bd0 f i libucrtd:output.obj
 0001:000a2d10       ?type_case_d@?$output_processor@DV?$stream_output_adapter@D@__crt_stdio_output@@V?$format_validation_base@DV?$stream_output_adapter@D@__crt_stdio_output@@@2@@__crt_stdio_output@@AAE_NXZ 004a3d10 f i libucrtd:output.obj
 0001:000a2d40       ?type_case_d@?$output_processor@DV?$stream_output_adapter@D@__crt_stdio_output@@V?$positional_parameter_base@DV?$stream_output_adapter@D@__crt_stdio_output@@@2@@__crt_stdio_output@@AAE_NXZ 004a3d40 f i libucrtd:output.obj
 0001:000a2d70       ?type_case_d@?$output_processor@DV?$stream_output_adapter@D@__crt_stdio_output@@V?$standard_base@DV?$stream_output_adapter@D@__crt_stdio_output@@@2@@__crt_stdio_output@@AAE_NXZ 004a3d70 f i libucrtd:output.obj
 0001:000a2da0       ?type_case_d@?$output_processor@DV?$string_output_adapter@D@__crt_stdio_output@@V?$format_validation_base@DV?$string_output_adapter@D@__crt_stdio_output@@@2@@__crt_stdio_output@@AAE_NXZ 004a3da0 f i libucrtd:output.obj
 0001:000a2dd0       ?type_case_d@?$output_processor@DV?$string_output_adapter@D@__crt_stdio_output@@V?$positional_parameter_base@DV?$string_output_adapter@D@__crt_stdio_output@@@2@@__crt_stdio_output@@AAE_NXZ 004a3dd0 f i libucrtd:output.obj
 0001:000a2e00       ?type_case_d@?$output_processor@DV?$string_output_adapter@D@__crt_stdio_output@@V?$standard_base@DV?$string_output_adapter@D@__crt_stdio_output@@@2@@__crt_stdio_output@@AAE_NXZ 004a3e00 f i libucrtd:output.obj
 0001:000a2e30       ?type_case_d@?$output_processor@_WV?$stream_output_adapter@_W@__crt_stdio_output@@V?$format_validation_base@_WV?$stream_output_adapter@_W@__crt_stdio_output@@@2@@__crt_stdio_output@@AAE_NXZ 004a3e30 f i libucrtd:output.obj
 0001:000a2e60       ?type_case_d@?$output_processor@_WV?$stream_output_adapter@_W@__crt_stdio_output@@V?$positional_parameter_base@_WV?$stream_output_adapter@_W@__crt_stdio_output@@@2@@__crt_stdio_output@@AAE_NXZ 004a3e60 f i libucrtd:output.obj
 0001:000a2e90       ?type_case_d@?$output_processor@_WV?$stream_output_adapter@_W@__crt_stdio_output@@V?$standard_base@_WV?$stream_output_adapter@_W@__crt_stdio_output@@@2@@__crt_stdio_output@@AAE_NXZ 004a3e90 f i libucrtd:output.obj
 0001:000a2ec0       ?type_case_d@?$output_processor@_WV?$string_output_adapter@_W@__crt_stdio_output@@V?$format_validation_base@_WV?$string_output_adapter@_W@__crt_stdio_output@@@2@@__crt_stdio_output@@AAE_NXZ 004a3ec0 f i libucrtd:output.obj
 0001:000a2ef0       ?type_case_d@?$output_processor@_WV?$string_output_adapter@_W@__crt_stdio_output@@V?$positional_parameter_base@_WV?$string_output_adapter@_W@__crt_stdio_output@@@2@@__crt_stdio_output@@AAE_NXZ 004a3ef0 f i libucrtd:output.obj
 0001:000a2f20       ?type_case_d@?$output_processor@_WV?$string_output_adapter@_W@__crt_stdio_output@@V?$standard_base@_WV?$string_output_adapter@_W@__crt_stdio_output@@@2@@__crt_stdio_output@@AAE_NXZ 004a3f20 f i libucrtd:output.obj
 0001:000a2f50       ?type_case_integer@?$output_processor@DV?$stream_output_adapter@D@__crt_stdio_output@@V?$format_validation_base@DV?$stream_output_adapter@D@__crt_stdio_output@@@2@@__crt_stdio_output@@AAE_NI_N@Z 004a3f50 f i libucrtd:output.obj
 0001:000a3370       ?type_case_integer@?$output_processor@DV?$stream_output_adapter@D@__crt_stdio_output@@V?$positional_parameter_base@DV?$stream_output_adapter@D@__crt_stdio_output@@@2@@__crt_stdio_output@@AAE_NI_N@Z 004a4370 f i libucrtd:output.obj
 0001:000a3790       ?type_case_integer@?$output_processor@DV?$stream_output_adapter@D@__crt_stdio_output@@V?$standard_base@DV?$stream_output_adapter@D@__crt_stdio_output@@@2@@__crt_stdio_output@@AAE_NI_N@Z 004a4790 f i libucrtd:output.obj
 0001:000a3bb0       ?type_case_integer@?$output_processor@DV?$string_output_adapter@D@__crt_stdio_output@@V?$format_validation_base@DV?$string_output_adapter@D@__crt_stdio_output@@@2@@__crt_stdio_output@@AAE_NI_N@Z 004a4bb0 f i libucrtd:output.obj
 0001:000a3fd0       ?type_case_integer@?$output_processor@DV?$string_output_adapter@D@__crt_stdio_output@@V?$positional_parameter_base@DV?$string_output_adapter@D@__crt_stdio_output@@@2@@__crt_stdio_output@@AAE_NI_N@Z 004a4fd0 f i libucrtd:output.obj
 0001:000a43f0       ?type_case_integer@?$output_processor@DV?$string_output_adapter@D@__crt_stdio_output@@V?$standard_base@DV?$string_output_adapter@D@__crt_stdio_output@@@2@@__crt_stdio_output@@AAE_NI_N@Z 004a53f0 f i libucrtd:output.obj
 0001:000a4810       ?type_case_integer@?$output_processor@_WV?$stream_output_adapter@_W@__crt_stdio_output@@V?$format_validation_base@_WV?$stream_output_adapter@_W@__crt_stdio_output@@@2@@__crt_stdio_output@@AAE_NI_N@Z 004a5810 f i libucrtd:output.obj
 0001:000a4c30       ?type_case_integer@?$output_processor@_WV?$stream_output_adapter@_W@__crt_stdio_output@@V?$positional_parameter_base@_WV?$stream_output_adapter@_W@__crt_stdio_output@@@2@@__crt_stdio_output@@AAE_NI_N@Z 004a5c30 f i libucrtd:output.obj
 0001:000a5050       ?type_case_integer@?$output_processor@_WV?$stream_output_adapter@_W@__crt_stdio_output@@V?$standard_base@_WV?$stream_output_adapter@_W@__crt_stdio_output@@@2@@__crt_stdio_output@@AAE_NI_N@Z 004a6050 f i libucrtd:output.obj
 0001:000a5470       ?type_case_integer@?$output_processor@_WV?$string_output_adapter@_W@__crt_stdio_output@@V?$format_validation_base@_WV?$string_output_adapter@_W@__crt_stdio_output@@@2@@__crt_stdio_output@@AAE_NI_N@Z 004a6470 f i libucrtd:output.obj
 0001:000a5890       ?type_case_integer@?$output_processor@_WV?$string_output_adapter@_W@__crt_stdio_output@@V?$positional_parameter_base@_WV?$string_output_adapter@_W@__crt_stdio_output@@@2@@__crt_stdio_output@@AAE_NI_N@Z 004a6890 f i libucrtd:output.obj
 0001:000a5cb0       ?type_case_integer@?$output_processor@_WV?$string_output_adapter@_W@__crt_stdio_output@@V?$standard_base@_WV?$string_output_adapter@_W@__crt_stdio_output@@@2@@__crt_stdio_output@@AAE_NI_N@Z 004a6cb0 f i libucrtd:output.obj
 0001:000a60d0       ?type_case_n@?$output_processor@DV?$stream_output_adapter@D@__crt_stdio_output@@V?$format_validation_base@DV?$stream_output_adapter@D@__crt_stdio_output@@@2@@__crt_stdio_output@@AAE_NXZ 004a70d0 f i libucrtd:output.obj
 0001:000a6340       ?type_case_n@?$output_processor@DV?$stream_output_adapter@D@__crt_stdio_output@@V?$positional_parameter_base@DV?$stream_output_adapter@D@__crt_stdio_output@@@2@@__crt_stdio_output@@AAE_NXZ 004a7340 f i libucrtd:output.obj
 0001:000a65b0       ?type_case_n@?$output_processor@DV?$stream_output_adapter@D@__crt_stdio_output@@V?$standard_base@DV?$stream_output_adapter@D@__crt_stdio_output@@@2@@__crt_stdio_output@@AAE_NXZ 004a75b0 f i libucrtd:output.obj
 0001:000a6820       ?type_case_n@?$output_processor@DV?$string_output_adapter@D@__crt_stdio_output@@V?$format_validation_base@DV?$string_output_adapter@D@__crt_stdio_output@@@2@@__crt_stdio_output@@AAE_NXZ 004a7820 f i libucrtd:output.obj
 0001:000a6a90       ?type_case_n@?$output_processor@DV?$string_output_adapter@D@__crt_stdio_output@@V?$positional_parameter_base@DV?$string_output_adapter@D@__crt_stdio_output@@@2@@__crt_stdio_output@@AAE_NXZ 004a7a90 f i libucrtd:output.obj
 0001:000a6d00       ?type_case_n@?$output_processor@DV?$string_output_adapter@D@__crt_stdio_output@@V?$standard_base@DV?$string_output_adapter@D@__crt_stdio_output@@@2@@__crt_stdio_output@@AAE_NXZ 004a7d00 f i libucrtd:output.obj
 0001:000a6f70       ?type_case_n@?$output_processor@_WV?$stream_output_adapter@_W@__crt_stdio_output@@V?$format_validation_base@_WV?$stream_output_adapter@_W@__crt_stdio_output@@@2@@__crt_stdio_output@@AAE_NXZ 004a7f70 f i libucrtd:output.obj
 0001:000a71e0       ?type_case_n@?$output_processor@_WV?$stream_output_adapter@_W@__crt_stdio_output@@V?$positional_parameter_base@_WV?$stream_output_adapter@_W@__crt_stdio_output@@@2@@__crt_stdio_output@@AAE_NXZ 004a81e0 f i libucrtd:output.obj
 0001:000a7450       ?type_case_n@?$output_processor@_WV?$stream_output_adapter@_W@__crt_stdio_output@@V?$standard_base@_WV?$stream_output_adapter@_W@__crt_stdio_output@@@2@@__crt_stdio_output@@AAE_NXZ 004a8450 f i libucrtd:output.obj
 0001:000a76c0       ?type_case_n@?$output_processor@_WV?$string_output_adapter@_W@__crt_stdio_output@@V?$format_validation_base@_WV?$string_output_adapter@_W@__crt_stdio_output@@@2@@__crt_stdio_output@@AAE_NXZ 004a86c0 f i libucrtd:output.obj
 0001:000a7930       ?type_case_n@?$output_processor@_WV?$string_output_adapter@_W@__crt_stdio_output@@V?$positional_parameter_base@_WV?$string_output_adapter@_W@__crt_stdio_output@@@2@@__crt_stdio_output@@AAE_NXZ 004a8930 f i libucrtd:output.obj
 0001:000a7ba0       ?type_case_n@?$output_processor@_WV?$string_output_adapter@_W@__crt_stdio_output@@V?$standard_base@_WV?$string_output_adapter@_W@__crt_stdio_output@@@2@@__crt_stdio_output@@AAE_NXZ 004a8ba0 f i libucrtd:output.obj
 0001:000a7e10       ?type_case_o@?$output_processor@DV?$stream_output_adapter@D@__crt_stdio_output@@V?$format_validation_base@DV?$stream_output_adapter@D@__crt_stdio_output@@@2@@__crt_stdio_output@@AAE_NXZ 004a8e10 f i libucrtd:output.obj
 0001:000a7e60       ?type_case_o@?$output_processor@DV?$stream_output_adapter@D@__crt_stdio_output@@V?$positional_parameter_base@DV?$stream_output_adapter@D@__crt_stdio_output@@@2@@__crt_stdio_output@@AAE_NXZ 004a8e60 f i libucrtd:output.obj
 0001:000a7eb0       ?type_case_o@?$output_processor@DV?$stream_output_adapter@D@__crt_stdio_output@@V?$standard_base@DV?$stream_output_adapter@D@__crt_stdio_output@@@2@@__crt_stdio_output@@AAE_NXZ 004a8eb0 f i libucrtd:output.obj
 0001:000a7f00       ?type_case_o@?$output_processor@DV?$string_output_adapter@D@__crt_stdio_output@@V?$format_validation_base@DV?$string_output_adapter@D@__crt_stdio_output@@@2@@__crt_stdio_output@@AAE_NXZ 004a8f00 f i libucrtd:output.obj
 0001:000a7f50       ?type_case_o@?$output_processor@DV?$string_output_adapter@D@__crt_stdio_output@@V?$positional_parameter_base@DV?$string_output_adapter@D@__crt_stdio_output@@@2@@__crt_stdio_output@@AAE_NXZ 004a8f50 f i libucrtd:output.obj
 0001:000a7fa0       ?type_case_o@?$output_processor@DV?$string_output_adapter@D@__crt_stdio_output@@V?$standard_base@DV?$string_output_adapter@D@__crt_stdio_output@@@2@@__crt_stdio_output@@AAE_NXZ 004a8fa0 f i libucrtd:output.obj
 0001:000a7ff0       ?type_case_o@?$output_processor@_WV?$stream_output_adapter@_W@__crt_stdio_output@@V?$format_validation_base@_WV?$stream_output_adapter@_W@__crt_stdio_output@@@2@@__crt_stdio_output@@AAE_NXZ 004a8ff0 f i libucrtd:output.obj
 0001:000a8040       ?type_case_o@?$output_processor@_WV?$stream_output_adapter@_W@__crt_stdio_output@@V?$positional_parameter_base@_WV?$stream_output_adapter@_W@__crt_stdio_output@@@2@@__crt_stdio_output@@AAE_NXZ 004a9040 f i libucrtd:output.obj
 0001:000a8090       ?type_case_o@?$output_processor@_WV?$stream_output_adapter@_W@__crt_stdio_output@@V?$standard_base@_WV?$stream_output_adapter@_W@__crt_stdio_output@@@2@@__crt_stdio_output@@AAE_NXZ 004a9090 f i libucrtd:output.obj
 0001:000a80e0       ?type_case_o@?$output_processor@_WV?$string_output_adapter@_W@__crt_stdio_output@@V?$format_validation_base@_WV?$string_output_adapter@_W@__crt_stdio_output@@@2@@__crt_stdio_output@@AAE_NXZ 004a90e0 f i libucrtd:output.obj
 0001:000a8130       ?type_case_o@?$output_processor@_WV?$string_output_adapter@_W@__crt_stdio_output@@V?$positional_parameter_base@_WV?$string_output_adapter@_W@__crt_stdio_output@@@2@@__crt_stdio_output@@AAE_NXZ 004a9130 f i libucrtd:output.obj
 0001:000a8180       ?type_case_o@?$output_processor@_WV?$string_output_adapter@_W@__crt_stdio_output@@V?$standard_base@_WV?$string_output_adapter@_W@__crt_stdio_output@@@2@@__crt_stdio_output@@AAE_NXZ 004a9180 f i libucrtd:output.obj
 0001:000a81d0       ?type_case_p@?$output_processor@DV?$stream_output_adapter@D@__crt_stdio_output@@V?$format_validation_base@DV?$stream_output_adapter@D@__crt_stdio_output@@@2@@__crt_stdio_output@@AAE_NXZ 004a91d0 f i libucrtd:output.obj
 0001:000a8210       ?type_case_p@?$output_processor@DV?$stream_output_adapter@D@__crt_stdio_output@@V?$positional_parameter_base@DV?$stream_output_adapter@D@__crt_stdio_output@@@2@@__crt_stdio_output@@AAE_NXZ 004a9210 f i libucrtd:output.obj
 0001:000a8250       ?type_case_p@?$output_processor@DV?$stream_output_adapter@D@__crt_stdio_output@@V?$standard_base@DV?$stream_output_adapter@D@__crt_stdio_output@@@2@@__crt_stdio_output@@AAE_NXZ 004a9250 f i libucrtd:output.obj
 0001:000a8290       ?type_case_p@?$output_processor@DV?$string_output_adapter@D@__crt_stdio_output@@V?$format_validation_base@DV?$string_output_adapter@D@__crt_stdio_output@@@2@@__crt_stdio_output@@AAE_NXZ 004a9290 f i libucrtd:output.obj
 0001:000a82d0       ?type_case_p@?$output_processor@DV?$string_output_adapter@D@__crt_stdio_output@@V?$positional_parameter_base@DV?$string_output_adapter@D@__crt_stdio_output@@@2@@__crt_stdio_output@@AAE_NXZ 004a92d0 f i libucrtd:output.obj
 0001:000a8310       ?type_case_p@?$output_processor@DV?$string_output_adapter@D@__crt_stdio_output@@V?$standard_base@DV?$string_output_adapter@D@__crt_stdio_output@@@2@@__crt_stdio_output@@AAE_NXZ 004a9310 f i libucrtd:output.obj
 0001:000a8350       ?type_case_p@?$output_processor@_WV?$stream_output_adapter@_W@__crt_stdio_output@@V?$format_validation_base@_WV?$stream_output_adapter@_W@__crt_stdio_output@@@2@@__crt_stdio_output@@AAE_NXZ 004a9350 f i libucrtd:output.obj
 0001:000a8390       ?type_case_p@?$output_processor@_WV?$stream_output_adapter@_W@__crt_stdio_output@@V?$positional_parameter_base@_WV?$stream_output_adapter@_W@__crt_stdio_output@@@2@@__crt_stdio_output@@AAE_NXZ 004a9390 f i libucrtd:output.obj
 0001:000a83d0       ?type_case_p@?$output_processor@_WV?$stream_output_adapter@_W@__crt_stdio_output@@V?$standard_base@_WV?$stream_output_adapter@_W@__crt_stdio_output@@@2@@__crt_stdio_output@@AAE_NXZ 004a93d0 f i libucrtd:output.obj
 0001:000a8410       ?type_case_p@?$output_processor@_WV?$string_output_adapter@_W@__crt_stdio_output@@V?$format_validation_base@_WV?$string_output_adapter@_W@__crt_stdio_output@@@2@@__crt_stdio_output@@AAE_NXZ 004a9410 f i libucrtd:output.obj
 0001:000a8450       ?type_case_p@?$output_processor@_WV?$string_output_adapter@_W@__crt_stdio_output@@V?$positional_parameter_base@_WV?$string_output_adapter@_W@__crt_stdio_output@@@2@@__crt_stdio_output@@AAE_NXZ 004a9450 f i libucrtd:output.obj
 0001:000a8490       ?type_case_p@?$output_processor@_WV?$string_output_adapter@_W@__crt_stdio_output@@V?$standard_base@_WV?$string_output_adapter@_W@__crt_stdio_output@@@2@@__crt_stdio_output@@AAE_NXZ 004a9490 f i libucrtd:output.obj
 0001:000a84d0       ?type_case_s@?$output_processor@DV?$stream_output_adapter@D@__crt_stdio_output@@V?$format_validation_base@DV?$stream_output_adapter@D@__crt_stdio_output@@@2@@__crt_stdio_output@@AAE_NXZ 004a94d0 f i libucrtd:output.obj
 0001:000a8600       ?type_case_s@?$output_processor@DV?$stream_output_adapter@D@__crt_stdio_output@@V?$positional_parameter_base@DV?$stream_output_adapter@D@__crt_stdio_output@@@2@@__crt_stdio_output@@AAE_NXZ 004a9600 f i libucrtd:output.obj
 0001:000a8730       ?type_case_s@?$output_processor@DV?$stream_output_adapter@D@__crt_stdio_output@@V?$standard_base@DV?$stream_output_adapter@D@__crt_stdio_output@@@2@@__crt_stdio_output@@AAE_NXZ 004a9730 f i libucrtd:output.obj
 0001:000a8860       ?type_case_s@?$output_processor@DV?$string_output_adapter@D@__crt_stdio_output@@V?$format_validation_base@DV?$string_output_adapter@D@__crt_stdio_output@@@2@@__crt_stdio_output@@AAE_NXZ 004a9860 f i libucrtd:output.obj
 0001:000a8990       ?type_case_s@?$output_processor@DV?$string_output_adapter@D@__crt_stdio_output@@V?$positional_parameter_base@DV?$string_output_adapter@D@__crt_stdio_output@@@2@@__crt_stdio_output@@AAE_NXZ 004a9990 f i libucrtd:output.obj
 0001:000a8ac0       ?type_case_s@?$output_processor@DV?$string_output_adapter@D@__crt_stdio_output@@V?$standard_base@DV?$string_output_adapter@D@__crt_stdio_output@@@2@@__crt_stdio_output@@AAE_NXZ 004a9ac0 f i libucrtd:output.obj
 0001:000a8bf0       ?type_case_s@?$output_processor@_WV?$stream_output_adapter@_W@__crt_stdio_output@@V?$format_validation_base@_WV?$stream_output_adapter@_W@__crt_stdio_output@@@2@@__crt_stdio_output@@AAE_NXZ 004a9bf0 f i libucrtd:output.obj
 0001:000a8d20       ?type_case_s@?$output_processor@_WV?$stream_output_adapter@_W@__crt_stdio_output@@V?$positional_parameter_base@_WV?$stream_output_adapter@_W@__crt_stdio_output@@@2@@__crt_stdio_output@@AAE_NXZ 004a9d20 f i libucrtd:output.obj
 0001:000a8e50       ?type_case_s@?$output_processor@_WV?$stream_output_adapter@_W@__crt_stdio_output@@V?$standard_base@_WV?$stream_output_adapter@_W@__crt_stdio_output@@@2@@__crt_stdio_output@@AAE_NXZ 004a9e50 f i libucrtd:output.obj
 0001:000a8f80       ?type_case_s@?$output_processor@_WV?$string_output_adapter@_W@__crt_stdio_output@@V?$format_validation_base@_WV?$string_output_adapter@_W@__crt_stdio_output@@@2@@__crt_stdio_output@@AAE_NXZ 004a9f80 f i libucrtd:output.obj
 0001:000a90b0       ?type_case_s@?$output_processor@_WV?$string_output_adapter@_W@__crt_stdio_output@@V?$positional_parameter_base@_WV?$string_output_adapter@_W@__crt_stdio_output@@@2@@__crt_stdio_output@@AAE_NXZ 004aa0b0 f i libucrtd:output.obj
 0001:000a91e0       ?type_case_s@?$output_processor@_WV?$string_output_adapter@_W@__crt_stdio_output@@V?$standard_base@_WV?$string_output_adapter@_W@__crt_stdio_output@@@2@@__crt_stdio_output@@AAE_NXZ 004aa1e0 f i libucrtd:output.obj
 0001:000a9310       ?type_case_s_compute_narrow_string_length@?$output_processor@DV?$stream_output_adapter@D@__crt_stdio_output@@V?$format_validation_base@DV?$stream_output_adapter@D@__crt_stdio_output@@@2@@__crt_stdio_output@@ABEHHD@Z 004aa310 f i libucrtd:output.obj
 0001:000a9340       ?type_case_s_compute_narrow_string_length@?$output_processor@DV?$stream_output_adapter@D@__crt_stdio_output@@V?$positional_parameter_base@DV?$stream_output_adapter@D@__crt_stdio_output@@@2@@__crt_stdio_output@@ABEHHD@Z 004aa340 f i libucrtd:output.obj
 0001:000a9370       ?type_case_s_compute_narrow_string_length@?$output_processor@DV?$stream_output_adapter@D@__crt_stdio_output@@V?$standard_base@DV?$stream_output_adapter@D@__crt_stdio_output@@@2@@__crt_stdio_output@@ABEHHD@Z 004aa370 f i libucrtd:output.obj
 0001:000a93a0       ?type_case_s_compute_narrow_string_length@?$output_processor@DV?$string_output_adapter@D@__crt_stdio_output@@V?$format_validation_base@DV?$string_output_adapter@D@__crt_stdio_output@@@2@@__crt_stdio_output@@ABEHHD@Z 004aa3a0 f i libucrtd:output.obj
 0001:000a93d0       ?type_case_s_compute_narrow_string_length@?$output_processor@DV?$string_output_adapter@D@__crt_stdio_output@@V?$positional_parameter_base@DV?$string_output_adapter@D@__crt_stdio_output@@@2@@__crt_stdio_output@@ABEHHD@Z 004aa3d0 f i libucrtd:output.obj
 0001:000a9400       ?type_case_s_compute_narrow_string_length@?$output_processor@DV?$string_output_adapter@D@__crt_stdio_output@@V?$standard_base@DV?$string_output_adapter@D@__crt_stdio_output@@@2@@__crt_stdio_output@@ABEHHD@Z 004aa400 f i libucrtd:output.obj
 0001:000a9430       ?type_case_s_compute_narrow_string_length@?$output_processor@_WV?$stream_output_adapter@_W@__crt_stdio_output@@V?$format_validation_base@_WV?$stream_output_adapter@_W@__crt_stdio_output@@@2@@__crt_stdio_output@@ABEHH_W@Z 004aa430 f i libucrtd:output.obj
 0001:000a94c0       ?type_case_s_compute_narrow_string_length@?$output_processor@_WV?$stream_output_adapter@_W@__crt_stdio_output@@V?$positional_parameter_base@_WV?$stream_output_adapter@_W@__crt_stdio_output@@@2@@__crt_stdio_output@@ABEHH_W@Z 004aa4c0 f i libucrtd:output.obj
 0001:000a9550       ?type_case_s_compute_narrow_string_length@?$output_processor@_WV?$stream_output_adapter@_W@__crt_stdio_output@@V?$standard_base@_WV?$stream_output_adapter@_W@__crt_stdio_output@@@2@@__crt_stdio_output@@ABEHH_W@Z 004aa550 f i libucrtd:output.obj
 0001:000a95e0       ?type_case_s_compute_narrow_string_length@?$output_processor@_WV?$string_output_adapter@_W@__crt_stdio_output@@V?$format_validation_base@_WV?$string_output_adapter@_W@__crt_stdio_output@@@2@@__crt_stdio_output@@ABEHH_W@Z 004aa5e0 f i libucrtd:output.obj
 0001:000a9670       ?type_case_s_compute_narrow_string_length@?$output_processor@_WV?$string_output_adapter@_W@__crt_stdio_output@@V?$positional_parameter_base@_WV?$string_output_adapter@_W@__crt_stdio_output@@@2@@__crt_stdio_output@@ABEHH_W@Z 004aa670 f i libucrtd:output.obj
 0001:000a9700       ?type_case_s_compute_narrow_string_length@?$output_processor@_WV?$string_output_adapter@_W@__crt_stdio_output@@V?$standard_base@_WV?$string_output_adapter@_W@__crt_stdio_output@@@2@@__crt_stdio_output@@ABEHH_W@Z 004aa700 f i libucrtd:output.obj
 0001:000a9790       ?type_case_u@?$output_processor@DV?$stream_output_adapter@D@__crt_stdio_output@@V?$format_validation_base@DV?$stream_output_adapter@D@__crt_stdio_output@@@2@@__crt_stdio_output@@AAE_NXZ 004aa790 f i libucrtd:output.obj
 0001:000a97b0       ?type_case_u@?$output_processor@DV?$stream_output_adapter@D@__crt_stdio_output@@V?$positional_parameter_base@DV?$stream_output_adapter@D@__crt_stdio_output@@@2@@__crt_stdio_output@@AAE_NXZ 004aa7b0 f i libucrtd:output.obj
 0001:000a97d0       ?type_case_u@?$output_processor@DV?$stream_output_adapter@D@__crt_stdio_output@@V?$standard_base@DV?$stream_output_adapter@D@__crt_stdio_output@@@2@@__crt_stdio_output@@AAE_NXZ 004aa7d0 f i libucrtd:output.obj
 0001:000a97f0       ?type_case_u@?$output_processor@DV?$string_output_adapter@D@__crt_stdio_output@@V?$format_validation_base@DV?$string_output_adapter@D@__crt_stdio_output@@@2@@__crt_stdio_output@@AAE_NXZ 004aa7f0 f i libucrtd:output.obj
 0001:000a9810       ?type_case_u@?$output_processor@DV?$string_output_adapter@D@__crt_stdio_output@@V?$positional_parameter_base@DV?$string_output_adapter@D@__crt_stdio_output@@@2@@__crt_stdio_output@@AAE_NXZ 004aa810 f i libucrtd:output.obj
 0001:000a9830       ?type_case_u@?$output_processor@DV?$string_output_adapter@D@__crt_stdio_output@@V?$standard_base@DV?$string_output_adapter@D@__crt_stdio_output@@@2@@__crt_stdio_output@@AAE_NXZ 004aa830 f i libucrtd:output.obj
 0001:000a9850       ?type_case_u@?$output_processor@_WV?$stream_output_adapter@_W@__crt_stdio_output@@V?$format_validation_base@_WV?$stream_output_adapter@_W@__crt_stdio_output@@@2@@__crt_stdio_output@@AAE_NXZ 004aa850 f i libucrtd:output.obj
 0001:000a9870       ?type_case_u@?$output_processor@_WV?$stream_output_adapter@_W@__crt_stdio_output@@V?$positional_parameter_base@_WV?$stream_output_adapter@_W@__crt_stdio_output@@@2@@__crt_stdio_output@@AAE_NXZ 004aa870 f i libucrtd:output.obj
 0001:000a9890       ?type_case_u@?$output_processor@_WV?$stream_output_adapter@_W@__crt_stdio_output@@V?$standard_base@_WV?$stream_output_adapter@_W@__crt_stdio_output@@@2@@__crt_stdio_output@@AAE_NXZ 004aa890 f i libucrtd:output.obj
 0001:000a98b0       ?type_case_u@?$output_processor@_WV?$string_output_adapter@_W@__crt_stdio_output@@V?$format_validation_base@_WV?$string_output_adapter@_W@__crt_stdio_output@@@2@@__crt_stdio_output@@AAE_NXZ 004aa8b0 f i libucrtd:output.obj
 0001:000a98d0       ?type_case_u@?$output_processor@_WV?$string_output_adapter@_W@__crt_stdio_output@@V?$positional_parameter_base@_WV?$string_output_adapter@_W@__crt_stdio_output@@@2@@__crt_stdio_output@@AAE_NXZ 004aa8d0 f i libucrtd:output.obj
 0001:000a98f0       ?type_case_u@?$output_processor@_WV?$string_output_adapter@_W@__crt_stdio_output@@V?$standard_base@_WV?$string_output_adapter@_W@__crt_stdio_output@@@2@@__crt_stdio_output@@AAE_NXZ 004aa8f0 f i libucrtd:output.obj
 0001:000a9910       ?type_case_x@?$output_processor@DV?$stream_output_adapter@D@__crt_stdio_output@@V?$format_validation_base@DV?$stream_output_adapter@D@__crt_stdio_output@@@2@@__crt_stdio_output@@AAE_NXZ 004aa910 f i libucrtd:output.obj
 0001:000a9930       ?type_case_x@?$output_processor@DV?$stream_output_adapter@D@__crt_stdio_output@@V?$positional_parameter_base@DV?$stream_output_adapter@D@__crt_stdio_output@@@2@@__crt_stdio_output@@AAE_NXZ 004aa930 f i libucrtd:output.obj
 0001:000a9950       ?type_case_x@?$output_processor@DV?$stream_output_adapter@D@__crt_stdio_output@@V?$standard_base@DV?$stream_output_adapter@D@__crt_stdio_output@@@2@@__crt_stdio_output@@AAE_NXZ 004aa950 f i libucrtd:output.obj
 0001:000a9970       ?type_case_x@?$output_processor@DV?$string_output_adapter@D@__crt_stdio_output@@V?$format_validation_base@DV?$string_output_adapter@D@__crt_stdio_output@@@2@@__crt_stdio_output@@AAE_NXZ 004aa970 f i libucrtd:output.obj
 0001:000a9990       ?type_case_x@?$output_processor@DV?$string_output_adapter@D@__crt_stdio_output@@V?$positional_parameter_base@DV?$string_output_adapter@D@__crt_stdio_output@@@2@@__crt_stdio_output@@AAE_NXZ 004aa990 f i libucrtd:output.obj
 0001:000a99b0       ?type_case_x@?$output_processor@DV?$string_output_adapter@D@__crt_stdio_output@@V?$standard_base@DV?$string_output_adapter@D@__crt_stdio_output@@@2@@__crt_stdio_output@@AAE_NXZ 004aa9b0 f i libucrtd:output.obj
 0001:000a99d0       ?type_case_x@?$output_processor@_WV?$stream_output_adapter@_W@__crt_stdio_output@@V?$format_validation_base@_WV?$stream_output_adapter@_W@__crt_stdio_output@@@2@@__crt_stdio_output@@AAE_NXZ 004aa9d0 f i libucrtd:output.obj
 0001:000a99f0       ?type_case_x@?$output_processor@_WV?$stream_output_adapter@_W@__crt_stdio_output@@V?$positional_parameter_base@_WV?$stream_output_adapter@_W@__crt_stdio_output@@@2@@__crt_stdio_output@@AAE_NXZ 004aa9f0 f i libucrtd:output.obj
 0001:000a9a10       ?type_case_x@?$output_processor@_WV?$stream_output_adapter@_W@__crt_stdio_output@@V?$standard_base@_WV?$stream_output_adapter@_W@__crt_stdio_output@@@2@@__crt_stdio_output@@AAE_NXZ 004aaa10 f i libucrtd:output.obj
 0001:000a9a30       ?type_case_x@?$output_processor@_WV?$string_output_adapter@_W@__crt_stdio_output@@V?$format_validation_base@_WV?$string_output_adapter@_W@__crt_stdio_output@@@2@@__crt_stdio_output@@AAE_NXZ 004aaa30 f i libucrtd:output.obj
 0001:000a9a50       ?type_case_x@?$output_processor@_WV?$string_output_adapter@_W@__crt_stdio_output@@V?$positional_parameter_base@_WV?$string_output_adapter@_W@__crt_stdio_output@@@2@@__crt_stdio_output@@AAE_NXZ 004aaa50 f i libucrtd:output.obj
 0001:000a9a70       ?type_case_x@?$output_processor@_WV?$string_output_adapter@_W@__crt_stdio_output@@V?$standard_base@_WV?$string_output_adapter@_W@__crt_stdio_output@@@2@@__crt_stdio_output@@AAE_NXZ 004aaa70 f i libucrtd:output.obj
 0001:000a9a90       ?unset_flag@?$output_processor@DV?$stream_output_adapter@D@__crt_stdio_output@@V?$format_validation_base@DV?$stream_output_adapter@D@__crt_stdio_output@@@2@@__crt_stdio_output@@AAEXI@Z 004aaa90 f i libucrtd:output.obj
 0001:000a9ac0       ?unset_flag@?$output_processor@DV?$stream_output_adapter@D@__crt_stdio_output@@V?$positional_parameter_base@DV?$stream_output_adapter@D@__crt_stdio_output@@@2@@__crt_stdio_output@@AAEXI@Z 004aaac0 f i libucrtd:output.obj
 0001:000a9af0       ?unset_flag@?$output_processor@DV?$stream_output_adapter@D@__crt_stdio_output@@V?$standard_base@DV?$stream_output_adapter@D@__crt_stdio_output@@@2@@__crt_stdio_output@@AAEXI@Z 004aaaf0 f i libucrtd:output.obj
 0001:000a9b20       ?unset_flag@?$output_processor@DV?$string_output_adapter@D@__crt_stdio_output@@V?$format_validation_base@DV?$string_output_adapter@D@__crt_stdio_output@@@2@@__crt_stdio_output@@AAEXI@Z 004aab20 f i libucrtd:output.obj
 0001:000a9b50       ?unset_flag@?$output_processor@DV?$string_output_adapter@D@__crt_stdio_output@@V?$positional_parameter_base@DV?$string_output_adapter@D@__crt_stdio_output@@@2@@__crt_stdio_output@@AAEXI@Z 004aab50 f i libucrtd:output.obj
 0001:000a9b80       ?unset_flag@?$output_processor@DV?$string_output_adapter@D@__crt_stdio_output@@V?$standard_base@DV?$string_output_adapter@D@__crt_stdio_output@@@2@@__crt_stdio_output@@AAEXI@Z 004aab80 f i libucrtd:output.obj
 0001:000a9bb0       ?unset_flag@?$output_processor@_WV?$stream_output_adapter@_W@__crt_stdio_output@@V?$format_validation_base@_WV?$stream_output_adapter@_W@__crt_stdio_output@@@2@@__crt_stdio_output@@AAEXI@Z 004aabb0 f i libucrtd:output.obj
 0001:000a9be0       ?unset_flag@?$output_processor@_WV?$stream_output_adapter@_W@__crt_stdio_output@@V?$positional_parameter_base@_WV?$stream_output_adapter@_W@__crt_stdio_output@@@2@@__crt_stdio_output@@AAEXI@Z 004aabe0 f i libucrtd:output.obj
 0001:000a9c10       ?unset_flag@?$output_processor@_WV?$stream_output_adapter@_W@__crt_stdio_output@@V?$standard_base@_WV?$stream_output_adapter@_W@__crt_stdio_output@@@2@@__crt_stdio_output@@AAEXI@Z 004aac10 f i libucrtd:output.obj
 0001:000a9c40       ?unset_flag@?$output_processor@_WV?$string_output_adapter@_W@__crt_stdio_output@@V?$format_validation_base@_WV?$string_output_adapter@_W@__crt_stdio_output@@@2@@__crt_stdio_output@@AAEXI@Z 004aac40 f i libucrtd:output.obj
 0001:000a9c70       ?unset_flag@?$output_processor@_WV?$string_output_adapter@_W@__crt_stdio_output@@V?$positional_parameter_base@_WV?$string_output_adapter@_W@__crt_stdio_output@@@2@@__crt_stdio_output@@AAEXI@Z 004aac70 f i libucrtd:output.obj
 0001:000a9ca0       ?unset_flag@?$output_processor@_WV?$string_output_adapter@_W@__crt_stdio_output@@V?$standard_base@_WV?$string_output_adapter@_W@__crt_stdio_output@@@2@@__crt_stdio_output@@AAEXI@Z 004aaca0 f i libucrtd:output.obj
 0001:000a9cd0       ?update_field_width@?$positional_parameter_base@DV?$stream_output_adapter@D@__crt_stdio_output@@@__crt_stdio_output@@IAE_NXZ 004aacd0 f i libucrtd:output.obj
 0001:000a9eb0       ?update_field_width@?$positional_parameter_base@DV?$string_output_adapter@D@__crt_stdio_output@@@__crt_stdio_output@@IAE_NXZ 004aaeb0 f i libucrtd:output.obj
 0001:000aa090       ?update_field_width@?$positional_parameter_base@_WV?$stream_output_adapter@_W@__crt_stdio_output@@@__crt_stdio_output@@IAE_NXZ 004ab090 f i libucrtd:output.obj
 0001:000aa270       ?update_field_width@?$positional_parameter_base@_WV?$string_output_adapter@_W@__crt_stdio_output@@@__crt_stdio_output@@IAE_NXZ 004ab270 f i libucrtd:output.obj
 0001:000aa450       ?update_field_width@?$standard_base@DV?$stream_output_adapter@D@__crt_stdio_output@@@__crt_stdio_output@@IAE_NXZ 004ab450 f i libucrtd:output.obj
 0001:000aa480       ?update_field_width@?$standard_base@DV?$string_output_adapter@D@__crt_stdio_output@@@__crt_stdio_output@@IAE_NXZ 004ab480 f i libucrtd:output.obj
 0001:000aa4b0       ?update_field_width@?$standard_base@_WV?$stream_output_adapter@_W@__crt_stdio_output@@@__crt_stdio_output@@IAE_NXZ 004ab4b0 f i libucrtd:output.obj
 0001:000aa4e0       ?update_field_width@?$standard_base@_WV?$string_output_adapter@_W@__crt_stdio_output@@@__crt_stdio_output@@IAE_NXZ 004ab4e0 f i libucrtd:output.obj
 0001:000aa510       ?update_precision@?$positional_parameter_base@DV?$stream_output_adapter@D@__crt_stdio_output@@@__crt_stdio_output@@IAE_NXZ 004ab510 f i libucrtd:output.obj
 0001:000aa6f0       ?update_precision@?$positional_parameter_base@DV?$string_output_adapter@D@__crt_stdio_output@@@__crt_stdio_output@@IAE_NXZ 004ab6f0 f i libucrtd:output.obj
 0001:000aa8d0       ?update_precision@?$positional_parameter_base@_WV?$stream_output_adapter@_W@__crt_stdio_output@@@__crt_stdio_output@@IAE_NXZ 004ab8d0 f i libucrtd:output.obj
 0001:000aaab0       ?update_precision@?$positional_parameter_base@_WV?$string_output_adapter@_W@__crt_stdio_output@@@__crt_stdio_output@@IAE_NXZ 004abab0 f i libucrtd:output.obj
 0001:000aac90       ?update_precision@?$standard_base@DV?$stream_output_adapter@D@__crt_stdio_output@@@__crt_stdio_output@@IAE_NXZ 004abc90 f i libucrtd:output.obj
 0001:000aacc0       ?update_precision@?$standard_base@DV?$string_output_adapter@D@__crt_stdio_output@@@__crt_stdio_output@@IAE_NXZ 004abcc0 f i libucrtd:output.obj
 0001:000aacf0       ?update_precision@?$standard_base@_WV?$stream_output_adapter@_W@__crt_stdio_output@@@__crt_stdio_output@@IAE_NXZ 004abcf0 f i libucrtd:output.obj
 0001:000aad20       ?update_precision@?$standard_base@_WV?$string_output_adapter@_W@__crt_stdio_output@@@__crt_stdio_output@@IAE_NXZ 004abd20 f i libucrtd:output.obj
 0001:000aad50       ?validate@?$stream_output_adapter@D@__crt_stdio_output@@QBE_NXZ 004abd50 f i libucrtd:output.obj
 0001:000aae20       ?validate@?$stream_output_adapter@_W@__crt_stdio_output@@QBE_NXZ 004abe20 f i libucrtd:output.obj
 0001:000aaef0       ?validate@?$string_output_adapter@D@__crt_stdio_output@@QBE_NXZ 004abef0 f i libucrtd:output.obj
 0001:000aafb0       ?validate@?$string_output_adapter@_W@__crt_stdio_output@@QBE_NXZ 004abfb0 f i libucrtd:output.obj
 0001:000ab070       ?validate_and_store_parameter_data@?$positional_parameter_base@DV?$stream_output_adapter@D@__crt_stdio_output@@@__crt_stdio_output@@AAE_NAAUparameter_data@12@W4parameter_type@12@DW4length_modifier@2@@Z 004ac070 f i libucrtd:output.obj
 0001:000ab180       ?validate_and_store_parameter_data@?$positional_parameter_base@DV?$string_output_adapter@D@__crt_stdio_output@@@__crt_stdio_output@@AAE_NAAUparameter_data@12@W4parameter_type@12@DW4length_modifier@2@@Z 004ac180 f i libucrtd:output.obj
 0001:000ab290       ?validate_and_store_parameter_data@?$positional_parameter_base@_WV?$stream_output_adapter@_W@__crt_stdio_output@@@__crt_stdio_output@@AAE_NAAUparameter_data@12@W4parameter_type@12@_WW4length_modifier@2@@Z 004ac290 f i libucrtd:output.obj
 0001:000ab3a0       ?validate_and_store_parameter_data@?$positional_parameter_base@_WV?$string_output_adapter@_W@__crt_stdio_output@@@__crt_stdio_output@@AAE_NAAUparameter_data@12@W4parameter_type@12@_WW4length_modifier@2@@Z 004ac3a0 f i libucrtd:output.obj
 0001:000ab4b0       ?validate_and_update_state_at_beginning_of_format_character@?$positional_parameter_base@DV?$stream_output_adapter@D@__crt_stdio_output@@@__crt_stdio_output@@IAE_NXZ 004ac4b0 f i libucrtd:output.obj
 0001:000ab760       ?validate_and_update_state_at_beginning_of_format_character@?$positional_parameter_base@DV?$string_output_adapter@D@__crt_stdio_output@@@__crt_stdio_output@@IAE_NXZ 004ac760 f i libucrtd:output.obj
 0001:000aba10       ?validate_and_update_state_at_beginning_of_format_character@?$positional_parameter_base@_WV?$stream_output_adapter@_W@__crt_stdio_output@@@__crt_stdio_output@@IAE_NXZ 004aca10 f i libucrtd:output.obj
 0001:000abcc0       ?validate_and_update_state_at_beginning_of_format_character@?$positional_parameter_base@_WV?$string_output_adapter@_W@__crt_stdio_output@@@__crt_stdio_output@@IAE_NXZ 004accc0 f i libucrtd:output.obj
 0001:000abf70       ?validate_and_update_state_at_beginning_of_format_character@?$standard_base@DV?$stream_output_adapter@D@__crt_stdio_output@@@__crt_stdio_output@@IAE_NXZ 004acf70 f i libucrtd:output.obj
 0001:000abf90       ?validate_and_update_state_at_beginning_of_format_character@?$standard_base@DV?$string_output_adapter@D@__crt_stdio_output@@@__crt_stdio_output@@IAE_NXZ 004acf90 f i libucrtd:output.obj
 0001:000abfb0       ?validate_and_update_state_at_beginning_of_format_character@?$standard_base@_WV?$stream_output_adapter@_W@__crt_stdio_output@@@__crt_stdio_output@@IAE_NXZ 004acfb0 f i libucrtd:output.obj
 0001:000abfd0       ?validate_and_update_state_at_beginning_of_format_character@?$standard_base@_WV?$string_output_adapter@_W@__crt_stdio_output@@@__crt_stdio_output@@IAE_NXZ 004acfd0 f i libucrtd:output.obj
 0001:000abff0       ?validate_and_update_state_at_end_of_format_string@?$format_validation_base@DV?$stream_output_adapter@D@__crt_stdio_output@@@__crt_stdio_output@@IBE_NXZ 004acff0 f i libucrtd:output.obj
 0001:000ac0b0       ?validate_and_update_state_at_end_of_format_string@?$format_validation_base@DV?$string_output_adapter@D@__crt_stdio_output@@@__crt_stdio_output@@IBE_NXZ 004ad0b0 f i libucrtd:output.obj
 0001:000ac170       ?validate_and_update_state_at_end_of_format_string@?$format_validation_base@_WV?$stream_output_adapter@_W@__crt_stdio_output@@@__crt_stdio_output@@IBE_NXZ 004ad170 f i libucrtd:output.obj
 0001:000ac230       ?validate_and_update_state_at_end_of_format_string@?$format_validation_base@_WV?$string_output_adapter@_W@__crt_stdio_output@@@__crt_stdio_output@@IBE_NXZ 004ad230 f i libucrtd:output.obj
 0001:000ac2f0       ?validate_and_update_state_at_end_of_format_string@?$positional_parameter_base@DV?$stream_output_adapter@D@__crt_stdio_output@@@__crt_stdio_output@@IAE_NXZ 004ad2f0 f i libucrtd:output.obj
 0001:000ac4f0       ?validate_and_update_state_at_end_of_format_string@?$positional_parameter_base@DV?$string_output_adapter@D@__crt_stdio_output@@@__crt_stdio_output@@IAE_NXZ 004ad4f0 f i libucrtd:output.obj
 0001:000ac6f0       ?validate_and_update_state_at_end_of_format_string@?$positional_parameter_base@_WV?$stream_output_adapter@_W@__crt_stdio_output@@@__crt_stdio_output@@IAE_NXZ 004ad6f0 f i libucrtd:output.obj
 0001:000ac8f0       ?validate_and_update_state_at_end_of_format_string@?$positional_parameter_base@_WV?$string_output_adapter@_W@__crt_stdio_output@@@__crt_stdio_output@@IAE_NXZ 004ad8f0 f i libucrtd:output.obj
 0001:000acaf0       ?validate_and_update_state_at_end_of_format_string@?$standard_base@DV?$stream_output_adapter@D@__crt_stdio_output@@@__crt_stdio_output@@IBE_NXZ 004adaf0 f i libucrtd:output.obj
 0001:000acb10       ?validate_and_update_state_at_end_of_format_string@?$standard_base@DV?$string_output_adapter@D@__crt_stdio_output@@@__crt_stdio_output@@IBE_NXZ 004adb10 f i libucrtd:output.obj
 0001:000acb30       ?validate_and_update_state_at_end_of_format_string@?$standard_base@_WV?$stream_output_adapter@_W@__crt_stdio_output@@@__crt_stdio_output@@IBE_NXZ 004adb30 f i libucrtd:output.obj
 0001:000acb50       ?validate_and_update_state_at_end_of_format_string@?$standard_base@_WV?$string_output_adapter@_W@__crt_stdio_output@@@__crt_stdio_output@@IBE_NXZ 004adb50 f i libucrtd:output.obj
 0001:000acb70       ?validate_state_for_type_case_a@?$positional_parameter_base@DV?$stream_output_adapter@D@__crt_stdio_output@@@__crt_stdio_output@@IAE_NXZ 004adb70 f i libucrtd:output.obj
 0001:000acca0       ?validate_state_for_type_case_a@?$positional_parameter_base@DV?$string_output_adapter@D@__crt_stdio_output@@@__crt_stdio_output@@IAE_NXZ 004adca0 f i libucrtd:output.obj
 0001:000acdd0       ?validate_state_for_type_case_a@?$positional_parameter_base@_WV?$stream_output_adapter@_W@__crt_stdio_output@@@__crt_stdio_output@@IAE_NXZ 004addd0 f i libucrtd:output.obj
 0001:000acf00       ?validate_state_for_type_case_a@?$positional_parameter_base@_WV?$string_output_adapter@_W@__crt_stdio_output@@@__crt_stdio_output@@IAE_NXZ 004adf00 f i libucrtd:output.obj
 0001:000ad030       ?validate_state_for_type_case_a@?$standard_base@DV?$stream_output_adapter@D@__crt_stdio_output@@@__crt_stdio_output@@IBE_NXZ 004ae030 f i libucrtd:output.obj
 0001:000ad050       ?validate_state_for_type_case_a@?$standard_base@DV?$string_output_adapter@D@__crt_stdio_output@@@__crt_stdio_output@@IBE_NXZ 004ae050 f i libucrtd:output.obj
 0001:000ad070       ?validate_state_for_type_case_a@?$standard_base@_WV?$stream_output_adapter@_W@__crt_stdio_output@@@__crt_stdio_output@@IBE_NXZ 004ae070 f i libucrtd:output.obj
 0001:000ad090       ?validate_state_for_type_case_a@?$standard_base@_WV?$string_output_adapter@_W@__crt_stdio_output@@@__crt_stdio_output@@IBE_NXZ 004ae090 f i libucrtd:output.obj
 0001:000ad0b0       ?validate_stream_is_ansi_if_required@?$__acrt_stdio_char_traits@D@@SA_NQAU_iobuf@@@Z 004ae0b0 f i libucrtd:output.obj
 0001:000ad230       ?validate_stream_is_ansi_if_required@?$__acrt_stdio_char_traits@_W@@SA_NQAU_iobuf@@@Z 004ae230 f i libucrtd:output.obj
 0001:000ad240       ?wide_null_string@?$output_processor@DV?$stream_output_adapter@D@__crt_stdio_output@@V?$format_validation_base@DV?$stream_output_adapter@D@__crt_stdio_output@@@2@@__crt_stdio_output@@CAPA_WXZ 004ae240 f i libucrtd:output.obj
 0001:000ad250       ?wide_null_string@?$output_processor@DV?$stream_output_adapter@D@__crt_stdio_output@@V?$positional_parameter_base@DV?$stream_output_adapter@D@__crt_stdio_output@@@2@@__crt_stdio_output@@CAPA_WXZ 004ae250 f i libucrtd:output.obj
 0001:000ad260       ?wide_null_string@?$output_processor@DV?$stream_output_adapter@D@__crt_stdio_output@@V?$standard_base@DV?$stream_output_adapter@D@__crt_stdio_output@@@2@@__crt_stdio_output@@CAPA_WXZ 004ae260 f i libucrtd:output.obj
 0001:000ad270       ?wide_null_string@?$output_processor@DV?$string_output_adapter@D@__crt_stdio_output@@V?$format_validation_base@DV?$string_output_adapter@D@__crt_stdio_output@@@2@@__crt_stdio_output@@CAPA_WXZ 004ae270 f i libucrtd:output.obj
 0001:000ad280       ?wide_null_string@?$output_processor@DV?$string_output_adapter@D@__crt_stdio_output@@V?$positional_parameter_base@DV?$string_output_adapter@D@__crt_stdio_output@@@2@@__crt_stdio_output@@CAPA_WXZ 004ae280 f i libucrtd:output.obj
 0001:000ad290       ?wide_null_string@?$output_processor@DV?$string_output_adapter@D@__crt_stdio_output@@V?$standard_base@DV?$string_output_adapter@D@__crt_stdio_output@@@2@@__crt_stdio_output@@CAPA_WXZ 004ae290 f i libucrtd:output.obj
 0001:000ad2a0       ?wide_null_string@?$output_processor@_WV?$stream_output_adapter@_W@__crt_stdio_output@@V?$format_validation_base@_WV?$stream_output_adapter@_W@__crt_stdio_output@@@2@@__crt_stdio_output@@CAPA_WXZ 004ae2a0 f i libucrtd:output.obj
 0001:000ad2b0       ?wide_null_string@?$output_processor@_WV?$stream_output_adapter@_W@__crt_stdio_output@@V?$positional_parameter_base@_WV?$stream_output_adapter@_W@__crt_stdio_output@@@2@@__crt_stdio_output@@CAPA_WXZ 004ae2b0 f i libucrtd:output.obj
 0001:000ad2c0       ?wide_null_string@?$output_processor@_WV?$stream_output_adapter@_W@__crt_stdio_output@@V?$standard_base@_WV?$stream_output_adapter@_W@__crt_stdio_output@@@2@@__crt_stdio_output@@CAPA_WXZ 004ae2c0 f i libucrtd:output.obj
 0001:000ad2d0       ?wide_null_string@?$output_processor@_WV?$string_output_adapter@_W@__crt_stdio_output@@V?$format_validation_base@_WV?$string_output_adapter@_W@__crt_stdio_output@@@2@@__crt_stdio_output@@CAPA_WXZ 004ae2d0 f i libucrtd:output.obj
 0001:000ad2e0       ?wide_null_string@?$output_processor@_WV?$string_output_adapter@_W@__crt_stdio_output@@V?$positional_parameter_base@_WV?$string_output_adapter@_W@__crt_stdio_output@@@2@@__crt_stdio_output@@CAPA_WXZ 004ae2e0 f i libucrtd:output.obj
 0001:000ad2f0       ?wide_null_string@?$output_processor@_WV?$string_output_adapter@_W@__crt_stdio_output@@V?$standard_base@_WV?$string_output_adapter@_W@__crt_stdio_output@@@2@@__crt_stdio_output@@CAPA_WXZ 004ae2f0 f i libucrtd:output.obj
 0001:000ad300       ?write_character@?$output_adapter_common@DV?$stream_output_adapter@D@__crt_stdio_output@@@__crt_stdio_output@@QBEXDQAH@Z 004ae300 f i libucrtd:output.obj
 0001:000ad350       ?write_character@?$output_adapter_common@_WV?$stream_output_adapter@_W@__crt_stdio_output@@@__crt_stdio_output@@QBEX_WQAH@Z 004ae350 f i libucrtd:output.obj
 0001:000ad3a0       ?write_character@?$string_output_adapter@D@__crt_stdio_output@@QBE_NDQAH@Z 004ae3a0 f i libucrtd:output.obj
 0001:000ad460       ?write_character@?$string_output_adapter@_W@__crt_stdio_output@@QBE_N_WQAH@Z 004ae460 f i libucrtd:output.obj
 0001:000ad520       ?write_character_without_count_update@?$stream_output_adapter@D@__crt_stdio_output@@QBE_ND@Z 004ae520 f i libucrtd:output.obj
 0001:000ad5a0       ?write_character_without_count_update@?$stream_output_adapter@_W@__crt_stdio_output@@QBE_N_W@Z 004ae5a0 f i libucrtd:output.obj
 0001:000ad630       ?write_stored_string_tchar@?$output_processor@DV?$stream_output_adapter@D@__crt_stdio_output@@V?$format_validation_base@DV?$stream_output_adapter@D@__crt_stdio_output@@@2@@__crt_stdio_output@@AAE_ND@Z 004ae630 f i libucrtd:output.obj
 0001:000ad790       ?write_stored_string_tchar@?$output_processor@DV?$stream_output_adapter@D@__crt_stdio_output@@V?$positional_parameter_base@DV?$stream_output_adapter@D@__crt_stdio_output@@@2@@__crt_stdio_output@@AAE_ND@Z 004ae790 f i libucrtd:output.obj
 0001:000ad8f0       ?write_stored_string_tchar@?$output_processor@DV?$stream_output_adapter@D@__crt_stdio_output@@V?$standard_base@DV?$stream_output_adapter@D@__crt_stdio_output@@@2@@__crt_stdio_output@@AAE_ND@Z 004ae8f0 f i libucrtd:output.obj
 0001:000ada50       ?write_stored_string_tchar@?$output_processor@DV?$string_output_adapter@D@__crt_stdio_output@@V?$format_validation_base@DV?$string_output_adapter@D@__crt_stdio_output@@@2@@__crt_stdio_output@@AAE_ND@Z 004aea50 f i libucrtd:output.obj
 0001:000adbb0       ?write_stored_string_tchar@?$output_processor@DV?$string_output_adapter@D@__crt_stdio_output@@V?$positional_parameter_base@DV?$string_output_adapter@D@__crt_stdio_output@@@2@@__crt_stdio_output@@AAE_ND@Z 004aebb0 f i libucrtd:output.obj
 0001:000add10       ?write_stored_string_tchar@?$output_processor@DV?$string_output_adapter@D@__crt_stdio_output@@V?$standard_base@DV?$string_output_adapter@D@__crt_stdio_output@@@2@@__crt_stdio_output@@AAE_ND@Z 004aed10 f i libucrtd:output.obj
 0001:000ade70       ?write_stored_string_tchar@?$output_processor@_WV?$stream_output_adapter@_W@__crt_stdio_output@@V?$format_validation_base@_WV?$stream_output_adapter@_W@__crt_stdio_output@@@2@@__crt_stdio_output@@AAE_N_W@Z 004aee70 f i libucrtd:output.obj
 0001:000adf90       ?write_stored_string_tchar@?$output_processor@_WV?$stream_output_adapter@_W@__crt_stdio_output@@V?$positional_parameter_base@_WV?$stream_output_adapter@_W@__crt_stdio_output@@@2@@__crt_stdio_output@@AAE_N_W@Z 004aef90 f i libucrtd:output.obj
